 lwip_image

 Timestamp is 5bc5a7e7 (Tue Oct 16 11:57:11 2018)

 Preferred load address is 0000000180000000

 Start         Length     Name                   Class
 0001:00000000 00000020H .text$di                CODE
 0001:00000020 0002e3a0H .text$mn                CODE
 0001:0002e3c0 00000020H .text$mn$00             CODE
 0001:0002e3e0 00001f60H .text$x                 CODE
 0001:00030340 000000d1H .text$yd                CODE
 0002:00000000 000002f0H .idata$5                DATA
 0002:000002f0 00000010H .00cfg                  DATA
 0002:00000300 00000008H .CRT$XCA                DATA
 0002:00000308 00000010H .CRT$XCU                DATA
 0002:00000318 00000008H .CRT$XCZ                DATA
 0002:00000320 00000008H .CRT$XIA                DATA
 0002:00000328 00000020H .CRT$XIC                DATA
 0002:00000348 00000008H .CRT$XIZ                DATA
 0002:00000350 00000008H .CRT$XLA                DATA
 0002:00000358 00000008H .CRT$XLZ                DATA
 0002:00000360 00000008H .CRT$XPA                DATA
 0002:00000368 00000010H .CRT$XPX                DATA
 0002:00000378 00000008H .CRT$XPXA               DATA
 0002:00000380 00000008H .CRT$XPZ                DATA
 0002:00000388 00000008H .CRT$XTA                DATA
 0002:00000390 00000010H .CRT$XTZ                DATA
 0002:000003a0 0001a618H .rdata                  DATA
 0002:0001a9b8 00000028H .rdata$T                DATA
 0002:0001a9e0 00000404H .rdata$r                DATA
 0002:0001ade4 00000484H .rdata$zzzdbg           DATA
 0002:0001b268 00000008H .rtc$IAA                DATA
 0002:0001b270 00000008H .rtc$IZZ                DATA
 0002:0001b278 00000008H .rtc$TAA                DATA
 0002:0001b280 00000010H .rtc$TZZ                DATA
 0002:0001b290 00003ac0H .xdata                  DATA
 0002:0001ed50 000003ccH .xdata$x                DATA
 0002:0001f11c 00000020H .didat$2                DATA
 0002:0001f13c 00000024H .didat$3                DATA
 0002:0001f160 000001a0H .didat$4                DATA
 0002:0001f300 00000d58H .didat$6                DATA
 0002:00020058 000001a8H .didat$7                DATA
 0002:00020200 00000058H .edata                  DATA
 0002:00020258 00000028H .idata$2                DATA
 0002:00020280 00000018H .idata$3                DATA
 0002:00020298 000002f0H .idata$4                DATA
 0002:00020588 000006c2H .idata$6                DATA
 0003:00000000 00000a80H .data                   DATA
 0003:00000a80 00000258H .data$r                 DATA
 0003:00000cd8 000001a8H .didat$5                DATA
 0003:00000e80 00001464H .bss                    DATA
 0004:00000000 000024b4H .pdata                  DATA
 0005:00000000 00000084H .gfids$x                DATA
 0005:00000084 00000060H .gfids$y                DATA
 0006:00000000 00000004H .tls                    DATA
 0006:00000004 00000004H .tls$                   DATA
 0006:00000008 00000001H .tls$ZZZ                DATA
 0007:00000000 00000060H .rsrc$01                DATA
 0007:00000060 00000180H .rsrc$02                DATA

  Address         Publics by Value              Rva+Base               Lib:Object

 0000:00000000       __dynamic_value_reloc_table 0000000000000000     <absolute>
 0000:00000000       __guard_iat_count          0000000000000000     <absolute>
 0000:00000000       __guard_iat_table          0000000000000000     <absolute>
 0000:00000000       __guard_longjmp_table      0000000000000000     <absolute>
 0000:00000000       __guard_longjmp_count      0000000000000000     <absolute>
 0000:00000000       __guard_fids_count         0000000000000000     <absolute>
 0000:00000000       ___safe_se_handler_table   0000000000000000     <absolute>
 0000:00000000       ___safe_se_handler_count   0000000000000000     <absolute>
 0000:00000000       __guard_fids_table         0000000000000000     <absolute>
 0000:00000100       __guard_flags              0000000000000100     <absolute>
 0000:00000000       __ImageBase                0000000180000000     <linker-defined>
 0001:00000020       ?InitAll@@YAXV?$Local@VObject@v8@@@v8@@@Z 0000000180001020 f   init.obj
 0001:00000040       ??1?$CImg@M@cimg_library@@QEAA@XZ 0000000180001040 f i resize_worker.obj
 0001:00000040       ??1?$CImg@D@cimg_library@@QEAA@XZ 0000000180001040 f i init.obj
 0001:00000040       ??1?$CImg@E@cimg_library@@QEAA@XZ 0000000180001040 f i image.obj
 0001:00000040       ??1?$CImg@K@cimg_library@@QEAA@XZ 0000000180001040 f i resize_worker.obj
 0001:00000040       ??1?$CImg@I@cimg_library@@QEAA@XZ 0000000180001040 f i resize_worker.obj
 0001:00000050       __local_stdio_printf_options 0000000180001050 f i image.obj
 0001:00000060       fprintf                    0000000180001060 f i image.obj
 0001:000000b0       ??0exception@stdext@@QEAA@AEBV01@@Z 00000001800010b0 f i image.obj
 0001:000000d0       ??1exception@stdext@@UEAA@XZ 00000001800010d0 f i image.obj
 0001:000000e0       ?what@exception@stdext@@UEBAPEBDXZ 00000001800010e0 f i image.obj
 0001:00000100       ?_Doraise@exception@stdext@@MEBAXXZ 0000000180001100 f i image.obj
 0001:00000100       _guard_check_icall_nop     0000000180001100 f i LIBCMT:guard_support.obj
 0001:00000100       __except_validate_context_record 0000000180001100 f i libvcruntime:jbcxrval.obj
 0001:00000110       ??_Eexception@stdext@@UEAAPEAXI@Z 0000000180001110 f i * CIL library *:* CIL module *
 0001:00000110       ??_Gexception@stdext@@UEAAPEAXI@Z 0000000180001110 f i image.obj
 0001:00000140       ??1ObjectWrap@node@@UEAA@XZ 0000000180001140 f i image.obj
 0001:000001c0       ?Wrap@ObjectWrap@node@@IEAAXV?$Local@VObject@v8@@@v8@@@Z 00000001800011c0 f i image.obj
 0001:000002a0       ?Ref@ObjectWrap@node@@MEAAXXZ 00000001800012a0 f i image.obj
 0001:000002e0       ?Unref@ObjectWrap@node@@MEAAXXZ 00000001800012e0 f i image.obj
 0001:00000390       ?WeakCallback@ObjectWrap@node@@CAXAEBV?$WeakCallbackInfo@VObjectWrap@node@@@v8@@@Z 0000000180001390 f i image.obj
 0001:000003f0       ??_GObjectWrap@node@@UEAAPEAXI@Z 00000001800013f0 f i image.obj
 0001:000003f0       ??_EObjectWrap@node@@UEAAPEAXI@Z 00000001800013f0 f i * CIL library *:* CIL module *
 0001:00000500       ?NewInstance@Nan@@YA?AV?$MaybeLocal@VObject@v8@@@v8@@V?$Local@VObjectTemplate@v8@@@3@@Z 0000000180001500 f i image.obj
 0001:00000580       ?convert@?$ToFactory@VInt32@v8@@@imp@Nan@@SA?AV?$MaybeLocal@VInt32@v8@@@v8@@V?$Local@VValue@v8@@@5@@Z 0000000180001580 f i image.obj
 0001:00000600       ?New@?$Factory@VFunctionTemplate@v8@@@imp@Nan@@SA?AV?$Local@VFunctionTemplate@v8@@@v8@@P6AXAEBV?$FunctionCallbackInfo@VValue@v8@@@3@@ZV?$Local@VValue@v8@@@5@V?$Local@VSignature@v8@@@5@@Z 0000000180001600 f i image.obj
 0001:00000780       ??1EscapableHandleScope@Nan@@QEAA@XZ 0000000180001780 f i image.obj
 0001:00000780       ??1HandleScope@Nan@@QEAA@XZ 0000000180001780 f i image.obj
 0001:00000790       ?AsyncExecute@Nan@@YAXPEAUuv_work_s@@@Z 0000000180001790 f i image.obj
 0001:000007a0       ?AsyncExecuteComplete@Nan@@YAXPEAUuv_work_s@@@Z 00000001800017a0 f i image.obj
 0001:000007e0       ?SetPrototypeMethod@Nan@@YAXV?$Local@VFunctionTemplate@v8@@@v8@@PEBDP6AXAEBV?$FunctionCallbackInfo@VValue@v8@@@1@@Z@Z 00000001800017e0 f i image.obj
 0001:000008f0       ?_snprintf@cimg@cimg_library@@YAHQEAD_KQEBDZZ 00000001800018f0 f i image.obj
 0001:00000950       ?_vsnprintf@cimg@cimg_library@@YAHQEAD_KQEBDPEAD@Z 0000000180001950 f i image.obj
 0001:00000a20       ??0CImgException@cimg_library@@QEAA@AEBU01@@Z 0000000180001a20 f i image.obj
 0001:00000a90       ??1CImgException@cimg_library@@UEAA@XZ 0000000180001a90 f i image.obj
 0001:00000a90       ??1CImgArgumentException@cimg_library@@UEAA@XZ 0000000180001a90 f i image.obj
 0001:00000a90       ??1CImgInstanceException@cimg_library@@UEAA@XZ 0000000180001a90 f i image.obj
 0001:00000a90       ??1CImgIOException@cimg_library@@UEAA@XZ 0000000180001a90 f i image.obj
 0001:00000ac0       ?what@CImgException@cimg_library@@UEBAPEBDXZ 0000000180001ac0 f i image.obj
 0001:00000ad0       ??_GCImgException@cimg_library@@UEAAPEAXI@Z 0000000180001ad0 f i image.obj
 0001:00000ad0       ??_ECImgException@cimg_library@@UEAAPEAXI@Z 0000000180001ad0 f i * CIL library *:* CIL module *
 0001:00000ad0       ??_GCImgIOException@cimg_library@@UEAAPEAXI@Z 0000000180001ad0 f i image.obj
 0001:00000ad0       ??_GCImgArgumentException@cimg_library@@UEAAPEAXI@Z 0000000180001ad0 f i image.obj
 0001:00000ad0       ??_ECImgArgumentException@cimg_library@@UEAAPEAXI@Z 0000000180001ad0 f i * CIL library *:* CIL module *
 0001:00000ad0       ??_ECImgIOException@cimg_library@@UEAAPEAXI@Z 0000000180001ad0 f i * CIL library *:* CIL module *
 0001:00000ad0       ??_GCImgInstanceException@cimg_library@@UEAAPEAXI@Z 0000000180001ad0 f i image.obj
 0001:00000ad0       ??_ECImgInstanceException@cimg_library@@UEAAPEAXI@Z 0000000180001ad0 f i * CIL library *:* CIL module *
 0001:00000b20       ??0CImgArgumentException@cimg_library@@QEAA@QEBDZZ 0000000180001b20 f i image.obj
 0001:00000c20       ??0CImgInstanceException@cimg_library@@QEAA@QEBDZZ 0000000180001c20 f i image.obj
 0001:00000d20       ??0CImgIOException@cimg_library@@QEAA@QEBDZZ 0000000180001d20 f i image.obj
 0001:00000e20       ?Mutex_attr@cimg@cimg_library@@YAAEAUMutex_info@12@XZ 0000000180001e20 f i image.obj
 0001:00000ed0       ?output@cimg@cimg_library@@YAPEAU_iobuf@@PEAU3@@Z 0000000180001ed0 f i image.obj
 0001:00000f60       ?warn@cimg@cimg_library@@YAXQEBDZZ 0000000180001f60 f i image.obj
 0001:00001000       ?filenamerand@cimg@cimg_library@@YAPEBDXZ 0000000180002000 f i image.obj
 0001:00001150       ?winformat_string@cimg@cimg_library@@YAXQEAD@Z 0000000180002150 f i image.obj
 0001:000011c0       ??0CImgIOException@cimg_library@@QEAA@AEBU01@@Z 00000001800021c0 f i image.obj
 0001:000011c0       ??0CImgInstanceException@cimg_library@@QEAA@AEBU01@@Z 00000001800021c0 f i image.obj
 0001:000011c0       ??0CImgArgumentException@cimg_library@@QEAA@AEBU01@@Z 00000001800021c0 f i image.obj
 0001:00001240       ?fclose@cimg@cimg_library@@YAHPEAU_iobuf@@@Z 0000000180002240 f i image.obj
 0001:000012b0       ?info@cimg@cimg_library@@YAXXZ 00000001800022b0 f i image.obj
 0001:000016c0       ?temporary_path@cimg@cimg_library@@YAPEBDQEBD_N@Z 00000001800026c0 f i image.obj
 0001:00001c10       ?programfiles_path@cimg@cimg_library@@YAPEBDQEBD_N@Z 0000000180002c10 f i image.obj
 0001:00001d40       ?imagemagick_path@cimg@cimg_library@@YAPEBDQEBD_N@Z 0000000180002d40 f i image.obj
 0001:000027e0       ?graphicsmagick_path@cimg@cimg_library@@YAPEBDQEBD_N@Z 00000001800037e0 f i image.obj
 0001:00003280       ?medcon_path@cimg@cimg_library@@YAPEBDQEBD_N@Z 0000000180004280 f i image.obj
 0001:00003490       ?strbuffersize@cimg@cimg_library@@YAPEBDK@Z 0000000180004490 f i image.obj
 0001:000035e0       ?Init@LwipImage@@SAXV?$Local@VObject@v8@@@v8@@@Z 00000001800045e0 f   image.obj
 0001:00003880       ??0LwipImage@@QEAA@PEAE_K1@Z 0000000180004880 f   image.obj
 0001:00003910       ??_ELwipImage@@UEAAPEAXI@Z 0000000180004910 f i * CIL library *:* CIL module *
 0001:00003910       ??_GLwipImage@@UEAAPEAXI@Z 0000000180004910 f i image.obj
 0001:00003990       ?New@LwipImage@@SAXAEBV?$FunctionCallbackInfo@VValue@v8@@@Nan@@@Z 0000000180004990 f   image.obj
 0001:00003b00       ?width@LwipImage@@SAXAEBV?$FunctionCallbackInfo@VValue@v8@@@Nan@@@Z 0000000180004b00 f   image.obj
 0001:00003b90       ?height@LwipImage@@SAXAEBV?$FunctionCallbackInfo@VValue@v8@@@Nan@@@Z 0000000180004b90 f   image.obj
 0001:00003c30       ?getPixel@LwipImage@@SAXAEBV?$FunctionCallbackInfo@VValue@v8@@@Nan@@@Z 0000000180004c30 f   image.obj
 0001:00003f20       ?buffer@LwipImage@@SAXAEBV?$FunctionCallbackInfo@VValue@v8@@@Nan@@@Z 0000000180004f20 f   image.obj
 0001:00004000       ?resize@LwipImage@@SAXAEBV?$FunctionCallbackInfo@VValue@v8@@@Nan@@@Z 0000000180005000 f   image.obj
 0001:000041a0       ?rotate@LwipImage@@SAXAEBV?$FunctionCallbackInfo@VValue@v8@@@Nan@@@Z 00000001800051a0 f   image.obj
 0001:000043b0       ?blur@LwipImage@@SAXAEBV?$FunctionCallbackInfo@VValue@v8@@@Nan@@@Z 00000001800053b0 f   image.obj
 0001:000044f0       ?crop@LwipImage@@SAXAEBV?$FunctionCallbackInfo@VValue@v8@@@Nan@@@Z 00000001800054f0 f   image.obj
 0001:00004750       ?mirror@LwipImage@@SAXAEBV?$FunctionCallbackInfo@VValue@v8@@@Nan@@@Z 0000000180005750 f   image.obj
 0001:000048c0       ?pad@LwipImage@@SAXAEBV?$FunctionCallbackInfo@VValue@v8@@@Nan@@@Z 00000001800058c0 f   image.obj
 0001:00004bf0       ?sharpen@LwipImage@@SAXAEBV?$FunctionCallbackInfo@VValue@v8@@@Nan@@@Z 0000000180005bf0 f   image.obj
 0001:00004d30       ?hslaAdj@LwipImage@@SAXAEBV?$FunctionCallbackInfo@VValue@v8@@@Nan@@@Z 0000000180005d30 f   image.obj
 0001:00004f40       ?opacify@LwipImage@@SAXAEBV?$FunctionCallbackInfo@VValue@v8@@@Nan@@@Z 0000000180005f40 f   image.obj
 0001:00005050       ?paste@LwipImage@@SAXAEBV?$FunctionCallbackInfo@VValue@v8@@@Nan@@@Z 0000000180006050 f   image.obj
 0001:000052f0       ?setPixel@LwipImage@@SAXAEBV?$FunctionCallbackInfo@VValue@v8@@@Nan@@@Z 00000001800062f0 f   image.obj
 0001:00005580       ??0?$CImg@E@cimg_library@@QEAA@QEBEIIII_N@Z 0000000180006580 f i image.obj
 0001:00005620       ?assign@?$CImg@D@cimg_library@@QEAAAEAU12@IIII@Z 0000000180006620 f i image.obj
 0001:00005740       ??0?$CImg@D@cimg_library@@QEAA@IIII@Z 0000000180006740 f i image.obj
 0001:000057b0       ??0?$CImg@E@cimg_library@@QEAA@AEBU01@@Z 00000001800067b0 f i image.obj
 0001:00005860       ??0?$CImg@E@cimg_library@@QEAA@IIII@Z 0000000180006860 f i image.obj
 0001:000058e0       ??$Unwrap@VLwipImage@@@ObjectWrap@node@@SAPEAVLwipImage@@V?$Local@VObject@v8@@@v8@@@Z 00000001800068e0 f i image.obj
 0001:00005960       ?Call@Callback@Nan@@QEBA?AV?$Local@VValue@v8@@@v8@@HQEAV34@@Z 0000000180006960 f i resize_worker.obj
 0001:00005a20       ?Call@Callback@Nan@@QEBA?AV?$MaybeLocal@VValue@v8@@@v8@@HQEAV?$Local@VValue@v8@@@4@PEAVAsyncResource@2@@Z 0000000180006a20 f i resize_worker.obj
 0001:00005ae0       ?Call_@Callback@Nan@@AEBA?AV?$Local@VValue@v8@@@v8@@PEAVIsolate@4@V?$Local@VObject@v8@@@4@HQEAV34@@Z 0000000180006ae0 f i resize_worker.obj
 0001:00005ba0       ??0AsyncWorker@Nan@@QEAA@PEAVCallback@1@PEBD@Z 0000000180006ba0 f i resize_worker.obj
 0001:00005c90       ??1AsyncWorker@Nan@@UEAA@XZ 0000000180006c90 f i resize_worker.obj
 0001:00005d60       ?WorkComplete@AsyncWorker@Nan@@UEAAXXZ 0000000180006d60 f i resize_worker.obj
 0001:00005e00       ?Destroy@AsyncWorker@Nan@@UEAAXXZ 0000000180006e00 f i resize_worker.obj
 0001:00005e20       ?HandleOKCallback@AsyncWorker@Nan@@MEAAXXZ 0000000180006e20 f i resize_worker.obj
 0001:00005e70       ?HandleErrorCallback@AsyncWorker@Nan@@MEAAXXZ 0000000180006e70 f i resize_worker.obj
 0001:00005f20       ?SetErrorMessage@AsyncWorker@Nan@@IEAAXPEBD@Z 0000000180006f20 f i resize_worker.obj
 0001:00005f80       ??_GAsyncWorker@Nan@@UEAAPEAXI@Z 0000000180006f80 f i resize_worker.obj
 0001:00005f80       ??_EAsyncWorker@Nan@@UEAAPEAXI@Z 0000000180006f80 f i * CIL library *:* CIL module *
 0001:00005fc0       ??1?$Persistent@VObject@v8@@V?$NonCopyablePersistentTraits@VObject@v8@@@2@@Nan@@QEAA@XZ 0000000180006fc0 f i resize_worker.obj
 0001:00005fe0       ??_GResizeWorker@@UEAAPEAXI@Z 0000000180006fe0 f i resize_worker.obj
 0001:00005fe0       ??_EResizeWorker@@UEAAPEAXI@Z 0000000180006fe0 f i * CIL library *:* CIL module *
 0001:00006020       ?Execute@ResizeWorker@@UEAAXXZ 0000000180007020 f   resize_worker.obj
 0001:00006080       ?HandleOKCallback@BlurWorker@@UEAAXXZ 0000000180007080 f   blur_worker.obj
 0001:00006080       ?HandleOKCallback@RotateWorker@@UEAAXXZ 0000000180007080 f   rotate_worker.obj
 0001:00006080       ?HandleOKCallback@PasteWorker@@UEAAXXZ 0000000180007080 f   paste_worker.obj
 0001:00006080       ?HandleOKCallback@SharpenWorker@@UEAAXXZ 0000000180007080 f   sharpen_worker.obj
 0001:00006080       ?HandleOKCallback@OpacifyWorker@@UEAAXXZ 0000000180007080 f   opacify_worker.obj
 0001:00006080       ?HandleOKCallback@ResizeWorker@@UEAAXXZ 0000000180007080 f   resize_worker.obj
 0001:00006080       ?HandleOKCallback@CropWorker@@UEAAXXZ 0000000180007080 f   crop_worker.obj
 0001:00006080       ?HandleOKCallback@HSLAWorker@@UEAAXXZ 0000000180007080 f   hsla_worker.obj
 0001:00006080       ?HandleOKCallback@PadWorker@@UEAAXXZ 0000000180007080 f   pad_worker.obj
 0001:00006080       ?HandleOKCallback@SetPixelWorker@@UEAAXXZ 0000000180007080 f   setpixel_worker.obj
 0001:00006080       ?HandleOKCallback@MirrorWorker@@UEAAXXZ 0000000180007080 f   mirror_worker.obj
 0001:000060e0       ?resize@?$CImg@E@cimg_library@@QEAAAEAU12@HHHHHIMMMM@Z 00000001800070e0 f i resize_worker.obj
 0001:00006310       ??0?$CImg@K@cimg_library@@QEAA@IIII@Z 0000000180007310 f i resize_worker.obj
 0001:00006390       ?get_resize@?$CImg@E@cimg_library@@QEBA?AU12@HHHHHIMMMM@Z 0000000180007390 f i resize_worker.obj
 0001:0000c210       ?move_to@?$CImg@E@cimg_library@@QEAAAEAU12@AEAU12@@Z 000000018000d210 f i resize_worker.obj
 0001:0000c2d0       ?assign@?$CImg@E@cimg_library@@QEAAAEAU12@XZ 000000018000d2d0 f i resize_worker.obj
 0001:0000c310       ??0?$CImg@I@cimg_library@@QEAA@IIII@Z 000000018000d310 f i resize_worker.obj
 0001:0000c390       ?draw_image@?$CImg@E@cimg_library@@QEAAAEAU12@HHHHAEBU12@M@Z 000000018000d390 f i resize_worker.obj
 0001:0000ca60       ?get_crop@?$CImg@E@cimg_library@@QEBA?AU12@HHHHHHHH_N@Z 000000018000da60 f i resize_worker.obj
 0001:0000ccb0       ?_cimg_lanczos@?$CImg@E@cimg_library@@SAMM@Z 000000018000dcb0 f i resize_worker.obj
 0001:0000cd50       ??H?$CImg@E@cimg_library@@QEBA?AU01@XZ 000000018000dd50 f i resize_worker.obj
 0001:0000cd80       ?assign@?$CImg@E@cimg_library@@QEAAAEAU12@IIII@Z 000000018000dd80 f i resize_worker.obj
 0001:0000ceb0       ??0?$CImg@E@cimg_library@@QEAA@IIIIAEBE@Z 000000018000deb0 f i resize_worker.obj
 0001:0000cf70       ??0?$CImg@M@cimg_library@@QEAA@IIIIAEBM@Z 000000018000df70 f i resize_worker.obj
 0001:0000d010       ??0?$CImg@M@cimg_library@@QEAA@IIII@Z 000000018000e010 f i resize_worker.obj
 0001:0000d0a0       ??0?$CImg@E@cimg_library@@QEAA@AEBU01@_N@Z 000000018000e0a0 f i resize_worker.obj
 0001:0000d140       ?fill@?$CImg@M@cimg_library@@QEAAAEAU12@AEBM@Z 000000018000e140 f i resize_worker.obj
 0001:0000d240       ?assign@?$CImg@E@cimg_library@@QEAAAEAU12@QEBEIIII_N@Z 000000018000e240 f i resize_worker.obj
 0001:0000d390       ?assign@?$CImg@E@cimg_library@@QEAAAEAU12@QEBEIIII@Z 000000018000e390 f i resize_worker.obj
 0001:0000d500       ??$assign@M@?$CImg@E@cimg_library@@QEAAAEAU01@QEBMIIII@Z 000000018000e500 f i resize_worker.obj
 0001:0000d620       ??_GRotateWorker@@UEAAPEAXI@Z 000000018000e620 f i rotate_worker.obj
 0001:0000d620       ??_ERotateWorker@@UEAAPEAXI@Z 000000018000e620 f i * CIL library *:* CIL module *
 0001:0000d660       ?Execute@RotateWorker@@UEAAXXZ 000000018000e660 f   rotate_worker.obj
 0001:0000da00       ?fillC@?$CImg@E@cimg_library@@QEAAAEAU12@IIIHZZ 000000018000ea00 f i rotate_worker.obj
 0001:0000daa0       ?get_rotate@?$CImg@E@cimg_library@@QEBA?AU12@MII@Z 000000018000eaa0 f i rotate_worker.obj
 0001:0000dde0       ?_linear_atXY@?$CImg@E@cimg_library@@QEBAMMMHH@Z 000000018000ede0 f i rotate_worker.obj
 0001:0000df10       ??_EBlurWorker@@UEAAPEAXI@Z 000000018000ef10 f i * CIL library *:* CIL module *
 0001:0000df10       ??_GBlurWorker@@UEAAPEAXI@Z 000000018000ef10 f i blur_worker.obj
 0001:0000df50       ?Execute@BlurWorker@@UEAAXXZ 000000018000ef50 f   blur_worker.obj
 0001:0000dfa0       ?vanvliet@?$CImg@E@cimg_library@@QEAAAEAU12@MID_N@Z 000000018000efa0 f i blur_worker.obj
 0001:0000e390       ?_cimg_recursive_apply@?$CImg@E@cimg_library@@SAXPEAEQEBNHKI_N@Z 000000018000f390 f i blur_worker.obj
 0001:0000e780       ??_GCropWorker@@UEAAPEAXI@Z 000000018000f780 f i crop_worker.obj
 0001:0000e780       ??_ECropWorker@@UEAAPEAXI@Z 000000018000f780 f i * CIL library *:* CIL module *
 0001:0000e7c0       ?Execute@CropWorker@@UEAAXXZ 000000018000f7c0 f   crop_worker.obj
 0001:0000e810       ?crop@?$CImg@E@cimg_library@@QEAAAEAU12@HHHHHHHH_N@Z 000000018000f810 f i crop_worker.obj
 0001:0000e8a0       ??_GMirrorWorker@@UEAAPEAXI@Z 000000018000f8a0 f i mirror_worker.obj
 0001:0000e8a0       ??_EMirrorWorker@@UEAAPEAXI@Z 000000018000f8a0 f i * CIL library *:* CIL module *
 0001:0000e8e0       ?Execute@MirrorWorker@@UEAAXXZ 000000018000f8e0 f   mirror_worker.obj
 0001:0000ea80       ??1?$basic_string@DU?$char_traits@D@std@@V?$allocator@D@2@@std@@QEAA@XZ 000000018000fa80 f i mirror_worker.obj
 0001:0000eb10       ?mirror@?$CImg@E@cimg_library@@QEAAAEAU12@D@Z 000000018000fb10 f i mirror_worker.obj
 0001:0000eec0       ?assign@?$basic_string@DU?$char_traits@D@std@@V?$allocator@D@2@@std@@QEAAAEAV12@PEBD_K@Z 000000018000fec0 f i mirror_worker.obj
 0001:0000eff0       ?assign@?$basic_string@DU?$char_traits@D@std@@V?$allocator@D@2@@std@@QEAAAEAV12@AEBV12@_K1@Z 000000018000fff0 f i mirror_worker.obj
 0001:0000f120       ?append@?$basic_string@DU?$char_traits@D@std@@V?$allocator@D@2@@std@@QEAAAEAV12@PEBD_K@Z 0000000180010120 f i mirror_worker.obj
 0001:0000f270       ?append@?$basic_string@DU?$char_traits@D@std@@V?$allocator@D@2@@std@@QEAAAEAV12@AEBV12@_K1@Z 0000000180010270 f i mirror_worker.obj
 0001:0000f3a0       ?erase@?$basic_string@DU?$char_traits@D@std@@V?$allocator@D@2@@std@@QEAAAEAV12@_K0@Z 00000001800103a0 f i mirror_worker.obj
 0001:0000f440       ?_Copy@?$basic_string@DU?$char_traits@D@std@@V?$allocator@D@2@@std@@QEAAX_K0@Z 0000000180010440 f i mirror_worker.obj
 0001:0000f5c0       ??_EPadWorker@@UEAAPEAXI@Z 00000001800105c0 f i * CIL library *:* CIL module *
 0001:0000f5c0       ??_GPadWorker@@UEAAPEAXI@Z 00000001800105c0 f i pad_worker.obj
 0001:0000f600       ?Execute@PadWorker@@UEAAXXZ 0000000180010600 f   pad_worker.obj
 0001:0000f9a0       ??_GSharpenWorker@@UEAAPEAXI@Z 00000001800109a0 f i sharpen_worker.obj
 0001:0000f9a0       ??_ESharpenWorker@@UEAAPEAXI@Z 00000001800109a0 f i * CIL library *:* CIL module *
 0001:0000f9e0       ?Execute@SharpenWorker@@UEAAXXZ 00000001800109e0 f   sharpen_worker.obj
 0001:0000fa10       ?sharpen@?$CImg@E@cimg_library@@QEAAAEAU12@M_NMMM@Z 0000000180010a10 f i sharpen_worker.obj
 0001:00010200       ?max@?$CImg@M@cimg_library@@QEAAAEAMXZ 0000000180011200 f i sharpen_worker.obj
 0001:00010360       ??$?YE@?$CImg@M@cimg_library@@QEAAAEAU01@AEBU?$CImg@E@1@@Z 0000000180011360 f i sharpen_worker.obj
 0001:000105f0       ??_GHSLAWorker@@UEAAPEAXI@Z 00000001800115f0 f i hsla_worker.obj
 0001:000105f0       ??_EHSLAWorker@@UEAAPEAXI@Z 00000001800115f0 f i * CIL library *:* CIL module *
 0001:00010630       ?Execute@HSLAWorker@@UEAAXXZ 0000000180011630 f   hsla_worker.obj
 0001:00010970       ?rgb_to_hsl@@YAXEEEPEAM00@Z 0000000180011970 f   hsla_worker.obj
 0001:00010b00       ?hsl_to_rgb@@YAXMMMPEAE00@Z 0000000180011b00 f   hsla_worker.obj
 0001:00010d60       ??_GOpacifyWorker@@UEAAPEAXI@Z 0000000180011d60 f i opacify_worker.obj
 0001:00010d60       ??_EOpacifyWorker@@UEAAPEAXI@Z 0000000180011d60 f i * CIL library *:* CIL module *
 0001:00010da0       ?Execute@OpacifyWorker@@UEAAXXZ 0000000180011da0 f   opacify_worker.obj
 0001:00010e90       ?SaveToPersistent@AsyncWorker@Nan@@QEAAXPEBDAEBV?$Local@VValue@v8@@@v8@@@Z 0000000180011e90 f i paste_worker.obj
 0001:00010f50       ??_GPasteWorker@@UEAAPEAXI@Z 0000000180011f50 f i paste_worker.obj
 0001:00010f50       ??_EPasteWorker@@UEAAPEAXI@Z 0000000180011f50 f i * CIL library *:* CIL module *
 0001:00010f90       ?Execute@PasteWorker@@UEAAXXZ 0000000180011f90 f   paste_worker.obj
 0001:000112c0       ??_ESetPixelWorker@@UEAAPEAXI@Z 00000001800122c0 f i * CIL library *:* CIL module *
 0001:000112c0       ??_GSetPixelWorker@@UEAAPEAXI@Z 00000001800122c0 f i setpixel_worker.obj
 0001:00011300       ?Execute@SetPixelWorker@@UEAAXXZ 0000000180012300 f   setpixel_worker.obj
 0001:000113ac       __imp_load_node_module_register 00000001800123ac f   node:node.exe
 0001:000113b8       __tailMerge_node_exe       00000001800123b8 f i node:node.exe
 0001:00011431       __imp_load_uv_queue_work   0000000180012431 f   node:node.exe
 0001:0001143d       __imp_load_?Value@External@v8@@QEBAPEAXXZ 000000018001243d f   node:node.exe
 0001:00011449       __imp_load_?New@External@v8@@SA?AV?$Local@VExternal@v8@@@2@PEAVIsolate@2@PEAX@Z 0000000180012449 f   node:node.exe
 0001:00011455       __imp_load_?Value@Integer@v8@@QEBA_JXZ 0000000180012455 f   node:node.exe
 0001:00011461       __imp_load_?New@Integer@v8@@SA?AV?$Local@VInteger@v8@@@2@PEAVIsolate@2@H@Z 0000000180012461 f   node:node.exe
 0001:0001146d       __imp_load_?New@Signature@v8@@SA?AV?$Local@VSignature@v8@@@2@PEAVIsolate@2@V?$Local@VFunctionTemplate@v8@@@2@@Z 000000018001246d f   node:node.exe
 0001:00011479       __imp_load_?GetCurrentContext@Isolate@v8@@QEAA?AV?$Local@VContext@v8@@@2@XZ 0000000180012479 f   node:node.exe
 0001:00011485       __imp_load_?GetCurrent@Isolate@v8@@SAPEAV12@XZ 0000000180012485 f   node:node.exe
 0001:00011491       __imp_load_?CreateHandle@HandleScope@v8@@KAPEAPEAVObject@internal@2@PEAVIsolate@42@PEAV342@@Z 0000000180012491 f   node:node.exe
 0001:0001149d       __imp_load_?CreateHandle@HandleScope@v8@@CAPEAPEAVObject@internal@2@PEAVHeapObject@42@PEAV342@@Z 000000018001249d f   node:node.exe
 0001:000114a9       __imp_load_??1HandleScope@v8@@QEAA@XZ 00000001800124a9 f   node:node.exe
 0001:000114b5       __imp_load_??0HandleScope@v8@@QEAA@PEAVIsolate@1@@Z 00000001800124b5 f   node:node.exe
 0001:000114c1       __imp_load_?Set@Template@v8@@QEAAXV?$Local@VName@v8@@@2@V?$Local@VData@v8@@@2@W4PropertyAttribute@2@@Z 00000001800124c1 f   node:node.exe
 0001:000114cd       __imp_load_?New@Array@v8@@SA?AV?$Local@VArray@v8@@@2@PEAVIsolate@2@H@Z 00000001800124cd f   node:node.exe
 0001:000114d9       __imp_load_?SetClassName@FunctionTemplate@v8@@QEAAXV?$Local@VString@v8@@@2@@Z 00000001800124d9 f   node:node.exe
 0001:000114e5       __imp_load_?PrototypeTemplate@FunctionTemplate@v8@@QEAA?AV?$Local@VObjectTemplate@v8@@@2@XZ 00000001800124e5 f   node:node.exe
 0001:000114f1       __imp_load_?InstanceTemplate@FunctionTemplate@v8@@QEAA?AV?$Local@VObjectTemplate@v8@@@2@XZ 00000001800124f1 f   node:node.exe
 0001:000114fd       __imp_load_?GetFunction@FunctionTemplate@v8@@QEAA?AV?$Local@VFunction@v8@@@2@XZ 00000001800124fd f   node:node.exe
 0001:00011509       __imp_load_?New@FunctionTemplate@v8@@SA?AV?$Local@VFunctionTemplate@v8@@@2@PEAVIsolate@2@P6AXAEBV?$FunctionCallbackInfo@VValue@v8@@@2@@ZV?$Local@VValue@v8@@@2@V?$Local@VSignature@v8@@@2@HW4ConstructorBehavior@2@@Z 0000000180012509 f   node:node.exe
 0001:00011515       __imp_load_?ToLocalEmpty@V8@v8@@CAXXZ 0000000180012515 f   node:node.exe
 0001:00011521       __imp_load_?ClearWeak@V8@v8@@CAPEAXPEAPEAVObject@internal@2@@Z 0000000180012521 f   node:node.exe
 0001:0001152d       __imp_load_?MakeWeak@V8@v8@@CAXPEAPEAVObject@internal@2@PEAXP6AXAEBV?$WeakCallbackInfo@X@2@@ZW4WeakCallbackType@2@@Z 000000018001252d f   node:node.exe
 0001:00011539       __imp_load_?DisposeGlobal@V8@v8@@CAXPEAPEAVObject@internal@2@@Z 0000000180012539 f   node:node.exe
 0001:00011545       __imp_load_?GlobalizeReference@V8@v8@@CAPEAPEAVObject@internal@2@PEAVIsolate@42@PEAPEAV342@@Z 0000000180012545 f   node:node.exe
 0001:00011551       __imp_load_?NumberValue@Value@v8@@QEBANXZ 0000000180012551 f   node:node.exe
 0001:0001155d       __imp_load_?BooleanValue@Value@v8@@QEBA_NXZ 000000018001255d f   node:node.exe
 0001:00011569       __imp_load_?ToInt32@Value@v8@@QEBA?AV?$MaybeLocal@VInt32@v8@@@2@V?$Local@VContext@v8@@@2@@Z 0000000180012569 f   node:node.exe
 0001:00011575       __imp_load_?Escape@EscapableHandleScope@v8@@AEAAPEAPEAVObject@internal@2@PEAPEAV342@@Z 0000000180012575 f   node:node.exe
 0001:00011581       __imp_load_??0EscapableHandleScope@v8@@QEAA@PEAVIsolate@1@@Z 0000000180012581 f   node:node.exe
 0001:0001158d       __imp_load_?NewFromUtf8@String@v8@@SA?AV?$MaybeLocal@VString@v8@@@2@PEAVIsolate@2@PEBDW4NewStringType@2@H@Z 000000018001258d f   node:node.exe
 0001:00011599       __imp_load_?New@Number@v8@@SA?AV?$Local@VNumber@v8@@@2@PEAVIsolate@2@N@Z 0000000180012599 f   node:node.exe
 0001:000115a5       __imp_load_?Value@Number@v8@@QEBANXZ 00000001800125a5 f   node:node.exe
 0001:000115b1       __imp_load_?SlowGetAlignedPointerFromInternalField@Object@v8@@AEAAPEAXH@Z 00000001800125b1 f   node:node.exe
 0001:000115bd       __imp_load_?SlowGetInternalField@Object@v8@@AEAA?AV?$Local@VValue@v8@@@2@H@Z 00000001800125bd f   node:node.exe
 0001:000115c9       __imp_load_?SetAlignedPointerInInternalField@Object@v8@@QEAAXHPEAX@Z 00000001800125c9 f   node:node.exe
 0001:000115d5       __imp_load_?SetInternalField@Object@v8@@QEAAXHV?$Local@VValue@v8@@@2@@Z 00000001800125d5 f   node:node.exe
 0001:000115e1       __imp_load_?InternalFieldCount@Object@v8@@QEAAHXZ 00000001800125e1 f   node:node.exe
 0001:000115ed       __imp_load_?Set@Object@v8@@QEAA_NV?$Local@VValue@v8@@@2@0@Z 00000001800125ed f   node:node.exe
 0001:000115f9       __imp_load_?Set@Object@v8@@QEAA_NIV?$Local@VValue@v8@@@2@@Z 00000001800125f9 f   node:node.exe
 0001:00011605       __imp_load_?SetInternalFieldCount@ObjectTemplate@v8@@QEAAXH@Z 0000000180012605 f   node:node.exe
 0001:00011611       __imp_load_?NewInstance@ObjectTemplate@v8@@QEAA?AV?$MaybeLocal@VObject@v8@@@2@V?$Local@VContext@v8@@@2@@Z 0000000180012611 f   node:node.exe
 0001:0001161d       __imp_load_?New@ObjectTemplate@v8@@SA?AV?$Local@VObjectTemplate@v8@@@2@PEAVIsolate@2@V?$Local@VFunctionTemplate@v8@@@2@@Z 000000018001261d f   node:node.exe
 0001:00011629       __imp_load_?Data@Buffer@node@@YAPEADV?$Local@VObject@v8@@@v8@@@Z 0000000180012629 f   node:node.exe
 0001:00011635       __imp_load_?Copy@Buffer@node@@YA?AV?$MaybeLocal@VObject@v8@@@v8@@PEAVIsolate@4@PEBD_K@Z 0000000180012635 f   node:node.exe
 0001:00011641       __imp_load_?GetCurrentEventLoop@node@@YAPEAUuv_loop_s@@PEAVIsolate@v8@@@Z 0000000180012641 f   node:node.exe
 0001:0001164d       __imp_load_??1EscapableHandleScope@v8@@QEAA@XZ 000000018001264d f   node:node.exe
 0001:00011659       __imp_load_?Global@Context@v8@@QEAA?AV?$Local@VObject@v8@@@2@XZ 0000000180012659 f   node:node.exe
 0001:00011665       __imp_load_?Error@Exception@v8@@SA?AV?$Local@VValue@v8@@@2@V?$Local@VString@v8@@@2@@Z 0000000180012665 f   node:node.exe
 0001:00011671       __imp_load_?New@Object@v8@@SA?AV?$Local@VObject@v8@@@2@PEAVIsolate@2@@Z 0000000180012671 f   node:node.exe
 0001:0001167d       __imp_load_?MakeCallback@node@@YA?AV?$Local@VValue@v8@@@v8@@PEAVIsolate@3@V?$Local@VObject@v8@@@3@V?$Local@VFunction@v8@@@3@HPEAV23@@Z 000000018001267d f   node:node.exe
 0001:0001168c       ??0bad_alloc@std@@QEAA@AEBV01@@Z 000000018001268c f i libcpmt:xthrow.obj
 0001:000116cc       ??0bad_alloc@std@@QEAA@XZ  00000001800126cc f i libcpmt:xthrow.obj
 0001:000116ec       ??0exception@std@@QEAA@AEBV01@@Z 00000001800126ec f i libcpmt:xthrow.obj
 0001:00011724       ??0length_error@std@@QEAA@AEBV01@@Z 0000000180012724 f i libcpmt:xthrow.obj
 0001:00011764       ??0length_error@std@@QEAA@PEBD@Z 0000000180012764 f i libcpmt:xthrow.obj
 0001:000117b0       ??0logic_error@std@@QEAA@AEBV01@@Z 00000001800127b0 f i libcpmt:xthrow.obj
 0001:000117f0       ??0out_of_range@std@@QEAA@AEBV01@@Z 00000001800127f0 f i libcpmt:xthrow.obj
 0001:00011830       ??0out_of_range@std@@QEAA@PEBD@Z 0000000180012830 f i libcpmt:xthrow.obj
 0001:0001187c       ??_Ebad_exception@std@@UEAAPEAXI@Z 000000018001287c f i libvcruntime:frame.obj
 0001:0001187c       ??_Eout_of_range@std@@UEAAPEAXI@Z 000000018001287c f i libcpmt:xthrow.obj
 0001:0001187c       ??_Eexception@std@@UEAAPEAXI@Z 000000018001287c f i libcpmt:xthrow.obj
 0001:0001187c       ??_Elength_error@std@@UEAAPEAXI@Z 000000018001287c f i libcpmt:xthrow.obj
 0001:0001187c       ??_Gbad_array_new_length@std@@UEAAPEAXI@Z 000000018001287c f i LIBCMT:throw_bad_alloc.obj
 0001:0001187c       ??_Glogic_error@std@@UEAAPEAXI@Z 000000018001287c f i libcpmt:xthrow.obj
 0001:0001187c       ??_Ebad_array_new_length@std@@UEAAPEAXI@Z 000000018001287c f i LIBCMT:throw_bad_alloc.obj
 0001:0001187c       ??_Gout_of_range@std@@UEAAPEAXI@Z 000000018001287c f i libcpmt:xthrow.obj
 0001:0001187c       ??_Glength_error@std@@UEAAPEAXI@Z 000000018001287c f i libcpmt:xthrow.obj
 0001:0001187c       ??_Gbad_exception@std@@UEAAPEAXI@Z 000000018001287c f i libvcruntime:frame.obj
 0001:0001187c       ??_Gexception@std@@UEAAPEAXI@Z 000000018001287c f i libcpmt:xthrow.obj
 0001:0001187c       ??_Elogic_error@std@@UEAAPEAXI@Z 000000018001287c f i libcpmt:xthrow.obj
 0001:0001187c       ??_Gbad_alloc@std@@UEAAPEAXI@Z 000000018001287c f i libcpmt:xthrow.obj
 0001:0001187c       ??_Ebad_alloc@std@@UEAAPEAXI@Z 000000018001287c f i libcpmt:xthrow.obj
 0001:000118c0       ?__scrt_throw_std_bad_alloc@@YAXXZ 00000001800128c0 f   LIBCMT:throw_bad_alloc.obj
 0001:000118c0       ?_Xbad_alloc@std@@YAXXZ    00000001800128c0 f   libcpmt:xthrow.obj
 0001:000118e0       ?_Xlength_error@std@@YAXPEBD@Z 00000001800128e0 f   libcpmt:xthrow.obj
 0001:00011904       ?_Xout_of_range@std@@YAXPEBD@Z 0000000180012904 f   libcpmt:xthrow.obj
 0001:00011928       ?what@exception@std@@UEBAPEBDXZ 0000000180012928 f i libcpmt:xthrow.obj
 0001:00011950       __security_check_cookie    0000000180012950 f   LIBCMT:_amdsecgs_.obj
 0001:00011974       ??_V@YAXPEAX@Z             0000000180012974 f   LIBCMT:delete_array.obj
 0001:00011974       ??3@YAXPEAX_K@Z            0000000180012974 f   LIBCMT:delete_scalar_size.obj
 0001:00011ac4       _Init_thread_abort         0000000180012ac4 f   LIBCMT:thread_safe_statics.obj
 0001:00011af4       _Init_thread_footer        0000000180012af4 f   LIBCMT:thread_safe_statics.obj
 0001:00011b54       _Init_thread_header        0000000180012b54 f   LIBCMT:thread_safe_statics.obj
 0001:00011bbc       _Init_thread_notify        0000000180012bbc f   LIBCMT:thread_safe_statics.obj
 0001:00011c18       _Init_thread_wait          0000000180012c18 f   LIBCMT:thread_safe_statics.obj
 0001:00011cb0       ??2@YAPEAX_K@Z             0000000180012cb0 f   LIBCMT:new_scalar.obj
 0001:00011cec       __scrt_acquire_startup_lock 0000000180012cec f   LIBCMT:utility.obj
 0001:00011d28       __scrt_dllmain_after_initialize_c 0000000180012d28 f   LIBCMT:utility.obj
 0001:00011d5c       __scrt_dllmain_before_initialize_c 0000000180012d5c f   LIBCMT:utility.obj
 0001:00011d74       __scrt_dllmain_crt_thread_attach 0000000180012d74 f   LIBCMT:utility.obj
 0001:00011d9c       __scrt_dllmain_crt_thread_detach 0000000180012d9c f   LIBCMT:utility.obj
 0001:00011db4       __scrt_dllmain_exception_filter 0000000180012db4 f   LIBCMT:utility.obj
 0001:00011e18       __scrt_dllmain_uninitialize_c 0000000180012e18 f   LIBCMT:utility.obj
 0001:00011e48       __scrt_dllmain_uninitialize_critical 0000000180012e48 f   LIBCMT:utility.obj
 0001:00011e5c       __scrt_initialize_crt      0000000180012e5c f   LIBCMT:utility.obj
 0001:00011ea8       __scrt_initialize_onexit_tables 0000000180012ea8 f   LIBCMT:utility.obj
 0001:00011f74       __scrt_is_nonwritable_in_current_image 0000000180012f74 f   LIBCMT:utility.obj
 0001:00012010       __scrt_release_startup_lock 0000000180013010 f   LIBCMT:utility.obj
 0001:00012034       __scrt_uninitialize_crt    0000000180013034 f   LIBCMT:utility.obj
 0001:00012060       _onexit                    0000000180013060 f   LIBCMT:utility.obj
 0001:000120b0       atexit                     00000001800130b0 f   LIBCMT:utility.obj
 0001:000120c8       ??_U@YAPEAX_K@Z            00000001800130c8 f   LIBCMT:new_array.obj
 0001:000120d0       ??_Gtype_info@@UEAAPEAXI@Z 00000001800130d0 f i LIBCMT:std_type_info_static.obj
 0001:000120d0       ??_Etype_info@@UEAAPEAXI@Z 00000001800130d0 f i LIBCMT:std_type_info_static.obj
 0001:000120fc       ??3@YAXPEAX@Z              00000001800130fc f   LIBCMT:delete_scalar.obj
 0001:00012450       _DllMainCRTStartup         0000000180013450 f   LIBCMT:dll_dllmain.obj
 0001:00012490       __raise_securityfailure    0000000180013490 f   LIBCMT:gs_report.obj
 0001:000124c4       __report_gsfailure         00000001800134c4 f   LIBCMT:gs_report.obj
 0001:00012598       __report_rangecheckfailure 0000000180013598 f   LIBCMT:gs_report.obj
 0001:000125ac       __report_securityfailure   00000001800135ac f   LIBCMT:gs_report.obj
 0001:0001272c       _guard_check_icall         000000018001372c f i LIBCMT:checkcfg.obj
 0001:00012734       __crt_debugger_hook        0000000180013734 f   LIBCMT:utility_desktop.obj
 0001:0001273c       __scrt_fastfail            000000018001373c f   LIBCMT:utility_desktop.obj
 0001:00012884       ??0bad_array_new_length@std@@QEAA@AEBV01@@Z 0000000180013884 f i LIBCMT:throw_bad_alloc.obj
 0001:000128c4       ??0bad_array_new_length@std@@QEAA@XZ 00000001800138c4 f i LIBCMT:throw_bad_alloc.obj
 0001:000128e4       ??1length_error@std@@UEAA@XZ 00000001800138e4 f i libcpmt:xthrow.obj
 0001:000128e4       ??1out_of_range@std@@UEAA@XZ 00000001800138e4 f i libcpmt:xthrow.obj
 0001:000128e4       ??1bad_array_new_length@std@@UEAA@XZ 00000001800138e4 f i LIBCMT:throw_bad_alloc.obj
 0001:000128e4       ??1bad_exception@std@@UEAA@XZ 00000001800138e4 f i libvcruntime:frame.obj
 0001:000128e4       ??1bad_alloc@std@@UEAA@XZ  00000001800138e4 f i libcpmt:xthrow.obj
 0001:000128f8       ?__scrt_throw_std_bad_array_new_length@@YAXXZ 00000001800138f8 f   LIBCMT:throw_bad_alloc.obj
 0001:00012918       __isa_available_init       0000000180013918 f   LIBCMT:_cpu_disp_.obj
 0001:00012ae0       __scrt_is_ucrt_dll_in_use  0000000180013ae0 f   LIBCMT:ucrt_detection.obj
 0001:00012aec       __security_init_cookie     0000000180013aec f   LIBCMT:gs_support.obj
 0001:00012b98       _get_startup_argv_mode     0000000180013b98 f   LIBCMT:argv_mode.obj
 0001:00012b98       DllMain                    0000000180013b98 f   LIBCMT:dll_dllmain_stub.obj
 0001:00012ba0       ?__scrt_initialize_type_info@@YAXXZ 0000000180013ba0 f   LIBCMT:tncleanup.obj
 0001:00012bb0       ?__scrt_uninitialize_type_info@@YAXXZ 0000000180013bb0 f   LIBCMT:tncleanup.obj
 0001:00012bbc       __local_stdio_scanf_options 0000000180013bbc f i LIBCMT:default_local_stdio_options.obj
 0001:00012bc4       __scrt_initialize_default_local_stdio_options 0000000180013bc4 f   LIBCMT:default_local_stdio_options.obj
 0001:00012be0       __scrt_get_dyn_tls_init_callback 0000000180013be0 f   LIBCMT:dyn_tls_init.obj
 0001:00012be8       _RTC_Initialize            0000000180013be8 f   LIBCMT:_initsect_.obj
 0001:00012c34       _RTC_Terminate             0000000180013c34 f   LIBCMT:_initsect_.obj
 0001:00012c80       __DestructExceptionObject  0000000180013c80 f   libvcruntime:frame.obj
 0001:00012d08       ??0bad_exception@std@@QEAA@AEBV01@@Z 0000000180013d08 f i libvcruntime:frame.obj
 0001:00012d48       ??0bad_exception@std@@QEAA@XZ 0000000180013d48 f i libvcruntime:frame.obj
 0001:000136c4       ?_CallMemberFunction0@@YAXPEAXP6AX0@Z@Z 00000001800146c4 f i libvcruntime:frame.obj
 0001:000136c8       ?_CallMemberFunction1@@YAXPEAXP6AX0@Z0@Z 00000001800146c8 f i libvcruntime:frame.obj
 0001:000136d4       ?_CallMemberFunction2@@YAXPEAXP6AX0@Z0H@Z 00000001800146d4 f i libvcruntime:frame.obj
 0001:000136e4       __AdjustPointer            00000001800146e4 f   libvcruntime:frame.obj
 0001:00013708       __BuildCatchObject         0000000180014708 f   libvcruntime:frame.obj
 0001:000137cc       __BuildCatchObjectHelper   00000001800147cc f   libvcruntime:frame.obj
 0001:000139ac       __CxxCallCatchBlock        00000001800149ac f   libvcruntime:frame.obj
 0001:00013b98       __FrameUnwindFilter        0000000180014b98 f   libvcruntime:frame.obj
 0001:00013be4       __FrameUnwindToState       0000000180014be4 f   libvcruntime:frame.obj
 0001:00013d78       __InternalCxxFrameHandler  0000000180014d78 f   libvcruntime:frame.obj
 0001:00013fd0       __TypeMatch                0000000180014fd0 f   libvcruntime:frame.obj
 0001:00014110       __std_terminate            0000000180015110 f   libvcruntime:frame.obj
 0001:00014130       memcpy                     0000000180015130 f   libvcruntime:memcpy.obj
 0001:00014130       memmove                    0000000180015130 f   libvcruntime:memcpy.obj
 0001:00014568       _purecall                  0000000180015568 f   libvcruntime:purevirt.obj
 0001:000145a4       __std_exception_copy       00000001800155a4 f   libvcruntime:std_exception.obj
 0001:00014634       __std_exception_destroy    0000000180015634 f   libvcruntime:std_exception.obj
 0001:0001465c       _CxxThrowException         000000018001565c f   libvcruntime:throw.obj
 0001:00014734       __C_specific_handler       0000000180015734 f   libvcruntime:_chandler_.obj
 0001:00014af8       __vcrt_FlsAlloc            0000000180015af8 f   libvcruntime:winapi_downlevel.obj
 0001:00014b4c       __vcrt_FlsFree             0000000180015b4c f   libvcruntime:winapi_downlevel.obj
 0001:00014ba0       __vcrt_FlsGetValue         0000000180015ba0 f   libvcruntime:winapi_downlevel.obj
 0001:00014bf4       __vcrt_FlsSetValue         0000000180015bf4 f   libvcruntime:winapi_downlevel.obj
 0001:00014c5c       __vcrt_InitializeCriticalSectionEx 0000000180015c5c f   libvcruntime:winapi_downlevel.obj
 0001:00014cd4       __vcrt_initialize_winapi_thunks 0000000180015cd4 f   libvcruntime:winapi_downlevel.obj
 0001:00014d20       __vcrt_uninitialize_winapi_thunks 0000000180015d20 f   libvcruntime:winapi_downlevel.obj
 0001:00014d60       __vcrt_initialize          0000000180015d60 f   libvcruntime:initialization.obj
 0001:00014d94       __vcrt_thread_attach       0000000180015d94 f   libvcruntime:initialization.obj
 0001:00014da8       __vcrt_thread_detach       0000000180015da8 f   libvcruntime:initialization.obj
 0001:00014dbc       __vcrt_uninitialize        0000000180015dbc f   libvcruntime:initialization.obj
 0001:00014ddc       __vcrt_uninitialize_critical 0000000180015ddc f   libvcruntime:initialization.obj
 0001:00014e00       memset                     0000000180015e00 f   libvcruntime:memset.obj
 0001:00014fa0       __std_type_info_compare    0000000180015fa0 f   libvcruntime:std_type_info.obj
 0001:00014fc8       __std_type_info_destroy_list 0000000180015fc8 f   libvcruntime:std_type_info.obj
 0001:00014ff4       __vcrt_freefls             0000000180015ff4 f   libvcruntime:per_thread_data.obj
 0001:00015014       __vcrt_freeptd             0000000180016014 f   libvcruntime:per_thread_data.obj
 0001:00015064       __vcrt_getptd              0000000180016064 f   libvcruntime:per_thread_data.obj
 0001:00015080       __vcrt_getptd_noexit       0000000180016080 f   libvcruntime:per_thread_data.obj
 0001:00015138       __vcrt_initialize_ptd      0000000180016138 f   libvcruntime:per_thread_data.obj
 0001:00015178       __vcrt_uninitialize_ptd    0000000180016178 f   libvcruntime:per_thread_data.obj
 0001:0001519c       ?__GetCurrentState@@YAHPEA_KPEAU_xDISPATCHER_CONTEXT@@PEBU_s_FuncInfo@@@Z 000000018001619c f   libvcruntime:ehstate.obj
 0001:000151c4       ?__GetUnwindTryBlock@@YAHPEA_KPEAU_xDISPATCHER_CONTEXT@@PEBU_s_FuncInfo@@@Z 00000001800161c4 f   libvcruntime:ehstate.obj
 0001:000151f0       ?__SetState@@YAXPEA_KPEAU_xDISPATCHER_CONTEXT@@PEBU_s_FuncInfo@@H@Z 00000001800161f0 f   libvcruntime:ehstate.obj
 0001:000151fc       ?__SetUnwindTryBlock@@YAXPEA_KPEAU_xDISPATCHER_CONTEXT@@PEBU_s_FuncInfo@@H@Z 00000001800161fc f   libvcruntime:ehstate.obj
 0001:00015238       ?__StateFromControlPc@@YAHPEBU_s_FuncInfo@@PEAU_xDISPATCHER_CONTEXT@@@Z 0000000180016238 f   libvcruntime:ehstate.obj
 0001:00015240       ?__StateFromIp@@YAHPEBU_s_FuncInfo@@PEAU_xDISPATCHER_CONTEXT@@_J@Z 0000000180016240 f   libvcruntime:ehstate.obj
 0001:000152c0       _CallSettingFrame          00000001800162c0 f   libvcruntime:handlers.obj
 0001:00015300       ?_ExecutionInCatch@@YAHPEAU_xDISPATCHER_CONTEXT@@PEBU_s_FuncInfo@@@Z 0000000180016300 f   libvcruntime:trnsctrl.obj
 0001:00015374       ?_GetEstablisherFrame@@YAPEA_KPEA_KPEAU_xDISPATCHER_CONTEXT@@PEBU_s_FuncInfo@@0@Z 0000000180016374 f   libvcruntime:trnsctrl.obj
 0001:00015440       ?_GetRangeOfTrysToCheck@@YAPEBU_s_TryBlockMapEntry@@PEA_KPEBU_s_FuncInfo@@HHPEAI2PEAU_xDISPATCHER_CONTEXT@@@Z 0000000180016440 f   libvcruntime:trnsctrl.obj
 0001:0001556c       ?__FrameUnwindToEmptyState@@YAXPEA_KPEAU_xDISPATCHER_CONTEXT@@PEBU_s_FuncInfo@@@Z 000000018001656c f   libvcruntime:trnsctrl.obj
 0001:00015600       ?__SehTransFilter@@YAHPEAU_EXCEPTION_POINTERS@@PEAUEHExceptionRecord@@PEA_KPEAU_CONTEXT@@PEAU_xDISPATCHER_CONTEXT@@PEBU_s_FuncInfo@@PEAH@Z 0000000180016600 f   libvcruntime:trnsctrl.obj
 0001:00015698       _CallSETranslator          0000000180016698 f   libvcruntime:trnsctrl.obj
 0001:000156f0       _CreateFrameInfo           00000001800166f0 f   libvcruntime:trnsctrl.obj
 0001:0001572c       _FindAndUnlinkFrame        000000018001672c f   libvcruntime:trnsctrl.obj
 0001:00015784       _GetImageBase              0000000180016784 f   libvcruntime:trnsctrl.obj
 0001:00015798       _GetThrowImageBase         0000000180016798 f   libvcruntime:trnsctrl.obj
 0001:000157ac       _IsExceptionObjectToBeDestroyed 00000001800167ac f   libvcruntime:trnsctrl.obj
 0001:000157dc       _SetImageBase              00000001800167dc f   libvcruntime:trnsctrl.obj
 0001:000157f4       _SetThrowImageBase         00000001800167f4 f   libvcruntime:trnsctrl.obj
 0001:0001580c       _UnwindNestedFrames        000000018001680c f   libvcruntime:trnsctrl.obj
 0001:00015930       __CxxFrameHandler3         0000000180016930 f   libvcruntime:trnsctrl.obj
 0001:000159c0       _local_unwind              00000001800169c0 f   libvcruntime:_jmpuwind_.obj
 0001:000159f0       _NLG_Notify                00000001800169f0 f   libvcruntime:_jmpuwind_.obj
 0001:00015a10       __NLG_Dispatch2            0000000180016a10 f   libvcruntime:_jmpuwind_.obj
 0001:00015a20       __NLG_Return2              0000000180016a20 f   libvcruntime:_jmpuwind_.obj
 0001:00015a24       __vcrt_initialize_pure_virtual_call_handler 0000000180016a24 f   libvcruntime:purevirt_data.obj
 0001:00015a48       __vcrt_initialize_locks    0000000180016a48 f   libvcruntime:locks.obj
 0001:00015a90       __vcrt_uninitialize_locks  0000000180016a90 f   libvcruntime:locks.obj
 0001:00015ac8       rand                       0000000180016ac8 f   libucrt:rand.obj
 0001:00015af4       srand                      0000000180016af4 f   libucrt:rand.obj
 0001:00015bdc       fopen                      0000000180016bdc f   libucrt:fopen.obj
 0001:00015be8       __acrt_initialize_stdio    0000000180016be8 f   libucrt:_file.obj
 0001:00015d08       __acrt_iob_func            0000000180016d08 f   libucrt:_file.obj
 0001:00015d1c       __acrt_uninitialize_stdio  0000000180016d1c f   libucrt:_file.obj
 0001:00015d78       _lock_file                 0000000180016d78 f   libucrt:_file.obj
 0001:00015d84       _unlock_file               0000000180016d84 f   libucrt:_file.obj
 0001:00015d90       _getpid                    0000000180016d90 f   libucrt:getpid.obj
 0001:00015d98       _fclose_nolock             0000000180016d98 f   libucrt:fclose.obj
 0001:00015e1c       fclose                     0000000180016e1c f   libucrt:fclose.obj
 0001:00015e88       remove                     0000000180016e88 f   libucrt:unlink.obj
 0001:00015ed4       ??$?RV<lambda_7b91131dde12e1c3dfc74ff76b3f2eac>@@AEAV<lambda_dd75445284c072d0bd3768540cc698fa>@@V<lambda_16bc4ecb55b4718497c16bceaea2ceaf>@@@?$__crt_seh_guarded_call@H@@QEAAH$$QEAV<lambda_7b91131dde12e1c3dfc74ff76b3f2eac>@@AEAV<lambda_dd75445284c072d0bd3768540cc698fa>@@$$QEAV<lambda_16bc4ecb55b4718497c16bceaea2ceaf>@@@Z 0000000180016ed4 f i libucrt:output.obj
 0001:00015f14       ??$?RV<lambda_aa279a7bcb127014629d5b1d62c7325d>@@AEAV<lambda_0a64b6a4deda75c01876f29c44fc5eb3>@@V<lambda_3323e69fbefe9d1a11713e670d47cdfa>@@@?$__crt_seh_guarded_call@H@@QEAAH$$QEAV<lambda_aa279a7bcb127014629d5b1d62c7325d>@@AEAV<lambda_0a64b6a4deda75c01876f29c44fc5eb3>@@$$QEAV<lambda_3323e69fbefe9d1a11713e670d47cdfa>@@@Z 0000000180016f14 f i libucrt:output.obj
 0001:000160fc       ??$ensure_buffer_is_big_enough@D@formatting_buffer@__crt_stdio_output@@QEAA_N_K@Z 00000001800170fc f i libucrt:output.obj
 0001:000161a8       ??$is_wide_character_specifier@D@__crt_stdio_output@@YA_N_KDW4length_modifier@0@@Z 00000001800171a8 f i libucrt:output.obj
 0001:000161d8       ??$is_wide_character_specifier@_W@__crt_stdio_output@@YA_N_K_WW4length_modifier@0@@Z 00000001800171d8 f i libucrt:output.obj
 0001:0001621c       ??$type_case_integer_parse_into_buffer@I@?$output_processor@_WV?$stream_output_adapter@_W@__crt_stdio_output@@V?$standard_base@_WV?$stream_output_adapter@_W@__crt_stdio_output@@@2@@__crt_stdio_output@@AEAAXII_N@Z 000000018001721c f i libucrt:output.obj
 0001:0001621c       ??$type_case_integer_parse_into_buffer@I@?$output_processor@_WV?$string_output_adapter@_W@__crt_stdio_output@@V?$standard_base@_WV?$string_output_adapter@_W@__crt_stdio_output@@@2@@__crt_stdio_output@@AEAAXII_N@Z 000000018001721c f i libucrt:output.obj
 0001:0001621c       ??$type_case_integer_parse_into_buffer@I@?$output_processor@DV?$string_output_adapter@D@__crt_stdio_output@@V?$format_validation_base@DV?$string_output_adapter@D@__crt_stdio_output@@@2@@__crt_stdio_output@@AEAAXII_N@Z 000000018001721c f i libucrt:output.obj
 0001:0001621c       ??$type_case_integer_parse_into_buffer@I@?$output_processor@DV?$stream_output_adapter@D@__crt_stdio_output@@V?$standard_base@DV?$stream_output_adapter@D@__crt_stdio_output@@@2@@__crt_stdio_output@@AEAAXII_N@Z 000000018001721c f i libucrt:output.obj
 0001:0001621c       ??$type_case_integer_parse_into_buffer@I@?$output_processor@DV?$string_output_adapter@D@__crt_stdio_output@@V?$standard_base@DV?$string_output_adapter@D@__crt_stdio_output@@@2@@__crt_stdio_output@@AEAAXII_N@Z 000000018001721c f i libucrt:output.obj
 0001:000162b8       ??$type_case_integer_parse_into_buffer@_K@?$output_processor@_WV?$stream_output_adapter@_W@__crt_stdio_output@@V?$standard_base@_WV?$stream_output_adapter@_W@__crt_stdio_output@@@2@@__crt_stdio_output@@AEAAX_KI_N@Z 00000001800172b8 f i libucrt:output.obj
 0001:000162b8       ??$type_case_integer_parse_into_buffer@_K@?$output_processor@DV?$stream_output_adapter@D@__crt_stdio_output@@V?$standard_base@DV?$stream_output_adapter@D@__crt_stdio_output@@@2@@__crt_stdio_output@@AEAAX_KI_N@Z 00000001800172b8 f i libucrt:output.obj
 0001:000162b8       ??$type_case_integer_parse_into_buffer@_K@?$output_processor@DV?$string_output_adapter@D@__crt_stdio_output@@V?$standard_base@DV?$string_output_adapter@D@__crt_stdio_output@@@2@@__crt_stdio_output@@AEAAX_KI_N@Z 00000001800172b8 f i libucrt:output.obj
 0001:000162b8       ??$type_case_integer_parse_into_buffer@_K@?$output_processor@DV?$string_output_adapter@D@__crt_stdio_output@@V?$format_validation_base@DV?$string_output_adapter@D@__crt_stdio_output@@@2@@__crt_stdio_output@@AEAAX_KI_N@Z 00000001800172b8 f i libucrt:output.obj
 0001:000162b8       ??$type_case_integer_parse_into_buffer@_K@?$output_processor@_WV?$string_output_adapter@_W@__crt_stdio_output@@V?$standard_base@_WV?$string_output_adapter@_W@__crt_stdio_output@@@2@@__crt_stdio_output@@AEAAX_KI_N@Z 00000001800172b8 f i libucrt:output.obj
 0001:00016354       ??$write_multiple_characters@V?$stream_output_adapter@D@__crt_stdio_output@@D@__crt_stdio_output@@YAXAEBV?$stream_output_adapter@D@0@DHQEAH@Z 0000000180017354 f i libucrt:output.obj
 0001:000163d8       ??$write_multiple_characters@V?$stream_output_adapter@_W@__crt_stdio_output@@D@__crt_stdio_output@@YAXAEBV?$stream_output_adapter@_W@0@DHQEAH@Z 00000001800173d8 f i libucrt:output.obj
 0001:00016468       ??$write_multiple_characters@V?$string_output_adapter@D@__crt_stdio_output@@D@__crt_stdio_output@@YAXAEBV?$string_output_adapter@D@0@DHQEAH@Z 0000000180017468 f i libucrt:output.obj
 0001:000164c4       ??$write_multiple_characters@V?$string_output_adapter@_W@__crt_stdio_output@@D@__crt_stdio_output@@YAXAEBV?$string_output_adapter@_W@0@DHQEAH@Z 00000001800174c4 f i libucrt:output.obj
 0001:00016534       ??0?$output_processor@DV?$string_output_adapter@D@__crt_stdio_output@@V?$standard_base@DV?$string_output_adapter@D@__crt_stdio_output@@@2@@__crt_stdio_output@@QEAA@AEBV?$string_output_adapter@D@1@_KQEBDQEAU__crt_locale_pointers@@QEAD@Z 0000000180017534 f i libucrt:output.obj
 0001:00016534       ??0?$output_processor@DV?$string_output_adapter@D@__crt_stdio_output@@V?$format_validation_base@DV?$string_output_adapter@D@__crt_stdio_output@@@2@@__crt_stdio_output@@QEAA@AEBV?$string_output_adapter@D@1@_KQEBDQEAU__crt_locale_pointers@@QEAD@Z 0000000180017534 f i libucrt:output.obj
 0001:00016534       ??0?$output_processor@DV?$stream_output_adapter@D@__crt_stdio_output@@V?$standard_base@DV?$stream_output_adapter@D@__crt_stdio_output@@@2@@__crt_stdio_output@@QEAA@AEBV?$stream_output_adapter@D@1@_KQEBDQEAU__crt_locale_pointers@@QEAD@Z 0000000180017534 f i libucrt:output.obj
 0001:000165b0       ??0?$output_processor@_WV?$stream_output_adapter@_W@__crt_stdio_output@@V?$standard_base@_WV?$stream_output_adapter@_W@__crt_stdio_output@@@2@@__crt_stdio_output@@QEAA@AEBV?$stream_output_adapter@_W@1@_KQEB_WQEAU__crt_locale_pointers@@QEAD@Z 00000001800175b0 f i libucrt:output.obj
 0001:000165b0       ??0?$output_processor@_WV?$string_output_adapter@_W@__crt_stdio_output@@V?$standard_base@_WV?$string_output_adapter@_W@__crt_stdio_output@@@2@@__crt_stdio_output@@QEAA@AEBV?$string_output_adapter@_W@1@_KQEB_WQEAU__crt_locale_pointers@@QEAD@Z 00000001800175b0 f i libucrt:output.obj
 0001:00016630       ??0_LocaleUpdate@@QEAA@QEAU__crt_locale_pointers@@@Z 0000000180017630 f i libucrt:output.obj
 0001:000168a0       ?force_decimal_point@__crt_stdio_output@@YAXPEADQEAU__crt_locale_pointers@@@Z 00000001800178a0 f i libucrt:output.obj
 0001:00016910       ?parse_int_from_format_string@?$output_processor@DV?$string_output_adapter@D@__crt_stdio_output@@V?$standard_base@DV?$string_output_adapter@D@__crt_stdio_output@@@2@@__crt_stdio_output@@AEAA_NQEAH@Z 0000000180017910 f i libucrt:output.obj
 0001:00016910       ?parse_int_from_format_string@?$output_processor@DV?$string_output_adapter@D@__crt_stdio_output@@V?$format_validation_base@DV?$string_output_adapter@D@__crt_stdio_output@@@2@@__crt_stdio_output@@AEAA_NQEAH@Z 0000000180017910 f i libucrt:output.obj
 0001:00016910       ?parse_int_from_format_string@?$output_processor@DV?$stream_output_adapter@D@__crt_stdio_output@@V?$standard_base@DV?$stream_output_adapter@D@__crt_stdio_output@@@2@@__crt_stdio_output@@AEAA_NQEAH@Z 0000000180017910 f i libucrt:output.obj
 0001:00016994       ?parse_int_from_format_string@?$output_processor@_WV?$stream_output_adapter@_W@__crt_stdio_output@@V?$standard_base@_WV?$stream_output_adapter@_W@__crt_stdio_output@@@2@@__crt_stdio_output@@AEAA_NQEAH@Z 0000000180017994 f i libucrt:output.obj
 0001:00016994       ?parse_int_from_format_string@?$output_processor@_WV?$string_output_adapter@_W@__crt_stdio_output@@V?$standard_base@_WV?$string_output_adapter@_W@__crt_stdio_output@@@2@@__crt_stdio_output@@AEAA_NQEAH@Z 0000000180017994 f i libucrt:output.obj
 0001:00016a14       ?process@?$output_processor@DV?$stream_output_adapter@D@__crt_stdio_output@@V?$standard_base@DV?$stream_output_adapter@D@__crt_stdio_output@@@2@@__crt_stdio_output@@QEAAHXZ 0000000180017a14 f i libucrt:output.obj
 0001:00016c24       ?process@?$output_processor@DV?$string_output_adapter@D@__crt_stdio_output@@V?$format_validation_base@DV?$string_output_adapter@D@__crt_stdio_output@@@2@@__crt_stdio_output@@QEAAHXZ 0000000180017c24 f i libucrt:output.obj
 0001:00016e38       ?process@?$output_processor@DV?$string_output_adapter@D@__crt_stdio_output@@V?$standard_base@DV?$string_output_adapter@D@__crt_stdio_output@@@2@@__crt_stdio_output@@QEAAHXZ 0000000180017e38 f i libucrt:output.obj
 0001:0001703c       ?process@?$output_processor@_WV?$stream_output_adapter@_W@__crt_stdio_output@@V?$standard_base@_WV?$stream_output_adapter@_W@__crt_stdio_output@@@2@@__crt_stdio_output@@QEAAHXZ 000000018001803c f i libucrt:output.obj
 0001:000172b4       ?process@?$output_processor@_WV?$string_output_adapter@_W@__crt_stdio_output@@V?$standard_base@_WV?$string_output_adapter@_W@__crt_stdio_output@@@2@@__crt_stdio_output@@QEAAHXZ 00000001800182b4 f i libucrt:output.obj
 0001:00017530       ?state_case_normal@?$output_processor@DV?$stream_output_adapter@D@__crt_stdio_output@@V?$standard_base@DV?$stream_output_adapter@D@__crt_stdio_output@@@2@@__crt_stdio_output@@AEAA_NXZ 0000000180018530 f i libucrt:output.obj
 0001:000175a0       ?state_case_normal@?$output_processor@DV?$string_output_adapter@D@__crt_stdio_output@@V?$standard_base@DV?$string_output_adapter@D@__crt_stdio_output@@@2@@__crt_stdio_output@@AEAA_NXZ 00000001800185a0 f i libucrt:output.obj
 0001:000175a0       ?state_case_normal@?$output_processor@DV?$string_output_adapter@D@__crt_stdio_output@@V?$format_validation_base@DV?$string_output_adapter@D@__crt_stdio_output@@@2@@__crt_stdio_output@@AEAA_NXZ 00000001800185a0 f i libucrt:output.obj
 0001:00017614       ?state_case_normal_tchar@?$output_processor@DV?$stream_output_adapter@D@__crt_stdio_output@@V?$standard_base@DV?$stream_output_adapter@D@__crt_stdio_output@@@2@@__crt_stdio_output@@AEAA_ND@Z 0000000180018614 f i libucrt:output.obj
 0001:000176a8       ?state_case_normal_tchar@?$output_processor@DV?$string_output_adapter@D@__crt_stdio_output@@V?$format_validation_base@DV?$string_output_adapter@D@__crt_stdio_output@@@2@@__crt_stdio_output@@AEAA_ND@Z 00000001800186a8 f i libucrt:output.obj
 0001:000176a8       ?state_case_normal_tchar@?$output_processor@DV?$string_output_adapter@D@__crt_stdio_output@@V?$standard_base@DV?$string_output_adapter@D@__crt_stdio_output@@@2@@__crt_stdio_output@@AEAA_ND@Z 00000001800186a8 f i libucrt:output.obj
 0001:00017740       ?state_case_size@?$output_processor@DV?$stream_output_adapter@D@__crt_stdio_output@@V?$standard_base@DV?$stream_output_adapter@D@__crt_stdio_output@@@2@@__crt_stdio_output@@AEAA_NXZ 0000000180018740 f i libucrt:output.obj
 0001:000178bc       ?state_case_size@?$output_processor@DV?$string_output_adapter@D@__crt_stdio_output@@V?$format_validation_base@DV?$string_output_adapter@D@__crt_stdio_output@@@2@@__crt_stdio_output@@AEAA_NXZ 00000001800188bc f i libucrt:output.obj
 0001:000178bc       ?state_case_size@?$output_processor@DV?$string_output_adapter@D@__crt_stdio_output@@V?$standard_base@DV?$string_output_adapter@D@__crt_stdio_output@@@2@@__crt_stdio_output@@AEAA_NXZ 00000001800188bc f i libucrt:output.obj
 0001:00017a38       ?state_case_size@?$output_processor@_WV?$stream_output_adapter@_W@__crt_stdio_output@@V?$standard_base@_WV?$stream_output_adapter@_W@__crt_stdio_output@@@2@@__crt_stdio_output@@AEAA_NXZ 0000000180018a38 f i libucrt:output.obj
 0001:00017bdc       ?state_case_size@?$output_processor@_WV?$string_output_adapter@_W@__crt_stdio_output@@V?$standard_base@_WV?$string_output_adapter@_W@__crt_stdio_output@@@2@@__crt_stdio_output@@AEAA_NXZ 0000000180018bdc f i libucrt:output.obj
 0001:00017d80       ?state_case_type@?$output_processor@DV?$stream_output_adapter@D@__crt_stdio_output@@V?$standard_base@DV?$stream_output_adapter@D@__crt_stdio_output@@@2@@__crt_stdio_output@@AEAA_NXZ 0000000180018d80 f i libucrt:output.obj
 0001:00017ffc       ?state_case_type@?$output_processor@DV?$string_output_adapter@D@__crt_stdio_output@@V?$format_validation_base@DV?$string_output_adapter@D@__crt_stdio_output@@@2@@__crt_stdio_output@@AEAA_NXZ 0000000180018ffc f i libucrt:output.obj
 0001:00017ffc       ?state_case_type@?$output_processor@DV?$string_output_adapter@D@__crt_stdio_output@@V?$standard_base@DV?$string_output_adapter@D@__crt_stdio_output@@@2@@__crt_stdio_output@@AEAA_NXZ 0000000180018ffc f i libucrt:output.obj
 0001:00018278       ?state_case_type@?$output_processor@_WV?$stream_output_adapter@_W@__crt_stdio_output@@V?$standard_base@_WV?$stream_output_adapter@_W@__crt_stdio_output@@@2@@__crt_stdio_output@@AEAA_NXZ 0000000180019278 f i libucrt:output.obj
 0001:00018544       ?state_case_type@?$output_processor@_WV?$string_output_adapter@_W@__crt_stdio_output@@V?$standard_base@_WV?$string_output_adapter@_W@__crt_stdio_output@@@2@@__crt_stdio_output@@AEAA_NXZ 0000000180019544 f i libucrt:output.obj
 0001:00018810       ?type_case_Z@?$output_processor@DV?$string_output_adapter@D@__crt_stdio_output@@V?$format_validation_base@DV?$string_output_adapter@D@__crt_stdio_output@@@2@@__crt_stdio_output@@AEAA_NXZ 0000000180019810 f i libucrt:output.obj
 0001:00018810       ?type_case_Z@?$output_processor@DV?$stream_output_adapter@D@__crt_stdio_output@@V?$standard_base@DV?$stream_output_adapter@D@__crt_stdio_output@@@2@@__crt_stdio_output@@AEAA_NXZ 0000000180019810 f i libucrt:output.obj
 0001:00018810       ?type_case_Z@?$output_processor@DV?$string_output_adapter@D@__crt_stdio_output@@V?$standard_base@DV?$string_output_adapter@D@__crt_stdio_output@@@2@@__crt_stdio_output@@AEAA_NXZ 0000000180019810 f i libucrt:output.obj
 0001:00018890       ?type_case_Z@?$output_processor@_WV?$string_output_adapter@_W@__crt_stdio_output@@V?$standard_base@_WV?$string_output_adapter@_W@__crt_stdio_output@@@2@@__crt_stdio_output@@AEAA_NXZ 0000000180019890 f i libucrt:output.obj
 0001:00018890       ?type_case_Z@?$output_processor@_WV?$stream_output_adapter@_W@__crt_stdio_output@@V?$standard_base@_WV?$stream_output_adapter@_W@__crt_stdio_output@@@2@@__crt_stdio_output@@AEAA_NXZ 0000000180019890 f i libucrt:output.obj
 0001:00018910       ?type_case_a@?$output_processor@DV?$string_output_adapter@D@__crt_stdio_output@@V?$standard_base@DV?$string_output_adapter@D@__crt_stdio_output@@@2@@__crt_stdio_output@@AEAA_NXZ 0000000180019910 f i libucrt:output.obj
 0001:00018910       ?type_case_a@?$output_processor@DV?$string_output_adapter@D@__crt_stdio_output@@V?$format_validation_base@DV?$string_output_adapter@D@__crt_stdio_output@@@2@@__crt_stdio_output@@AEAA_NXZ 0000000180019910 f i libucrt:output.obj
 0001:00018910       ?type_case_a@?$output_processor@DV?$stream_output_adapter@D@__crt_stdio_output@@V?$standard_base@DV?$stream_output_adapter@D@__crt_stdio_output@@@2@@__crt_stdio_output@@AEAA_NXZ 0000000180019910 f i libucrt:output.obj
 0001:00018b2c       ?type_case_a@?$output_processor@_WV?$stream_output_adapter@_W@__crt_stdio_output@@V?$standard_base@_WV?$stream_output_adapter@_W@__crt_stdio_output@@@2@@__crt_stdio_output@@AEAA_NXZ 0000000180019b2c f i libucrt:output.obj
 0001:00018b2c       ?type_case_a@?$output_processor@_WV?$string_output_adapter@_W@__crt_stdio_output@@V?$standard_base@_WV?$string_output_adapter@_W@__crt_stdio_output@@@2@@__crt_stdio_output@@AEAA_NXZ 0000000180019b2c f i libucrt:output.obj
 0001:00018d70       ?type_case_c_tchar@?$output_processor@DV?$string_output_adapter@D@__crt_stdio_output@@V?$standard_base@DV?$string_output_adapter@D@__crt_stdio_output@@@2@@__crt_stdio_output@@AEAA_ND@Z 0000000180019d70 f i libucrt:output.obj
 0001:00018d70       ?type_case_c_tchar@?$output_processor@DV?$stream_output_adapter@D@__crt_stdio_output@@V?$standard_base@DV?$stream_output_adapter@D@__crt_stdio_output@@@2@@__crt_stdio_output@@AEAA_ND@Z 0000000180019d70 f i libucrt:output.obj
 0001:00018d70       ?type_case_c_tchar@?$output_processor@DV?$string_output_adapter@D@__crt_stdio_output@@V?$format_validation_base@DV?$string_output_adapter@D@__crt_stdio_output@@@2@@__crt_stdio_output@@AEAA_ND@Z 0000000180019d70 f i libucrt:output.obj
 0001:00018e24       ?type_case_c_tchar@?$output_processor@_WV?$string_output_adapter@_W@__crt_stdio_output@@V?$standard_base@_WV?$string_output_adapter@_W@__crt_stdio_output@@@2@@__crt_stdio_output@@AEAA_N_W@Z 0000000180019e24 f i libucrt:output.obj
 0001:00018e24       ?type_case_c_tchar@?$output_processor@_WV?$stream_output_adapter@_W@__crt_stdio_output@@V?$standard_base@_WV?$stream_output_adapter@_W@__crt_stdio_output@@@2@@__crt_stdio_output@@AEAA_N_W@Z 0000000180019e24 f i libucrt:output.obj
 0001:00018ecc       ?type_case_integer@?$output_processor@DV?$string_output_adapter@D@__crt_stdio_output@@V?$standard_base@DV?$string_output_adapter@D@__crt_stdio_output@@@2@@__crt_stdio_output@@AEAA_NI_N@Z 0000000180019ecc f i libucrt:output.obj
 0001:00018ecc       ?type_case_integer@?$output_processor@DV?$stream_output_adapter@D@__crt_stdio_output@@V?$standard_base@DV?$stream_output_adapter@D@__crt_stdio_output@@@2@@__crt_stdio_output@@AEAA_NI_N@Z 0000000180019ecc f i libucrt:output.obj
 0001:00018ecc       ?type_case_integer@?$output_processor@_WV?$stream_output_adapter@_W@__crt_stdio_output@@V?$standard_base@_WV?$stream_output_adapter@_W@__crt_stdio_output@@@2@@__crt_stdio_output@@AEAA_NI_N@Z 0000000180019ecc f i libucrt:output.obj
 0001:00018ecc       ?type_case_integer@?$output_processor@_WV?$string_output_adapter@_W@__crt_stdio_output@@V?$standard_base@_WV?$string_output_adapter@_W@__crt_stdio_output@@@2@@__crt_stdio_output@@AEAA_NI_N@Z 0000000180019ecc f i libucrt:output.obj
 0001:00018ecc       ?type_case_integer@?$output_processor@DV?$string_output_adapter@D@__crt_stdio_output@@V?$format_validation_base@DV?$string_output_adapter@D@__crt_stdio_output@@@2@@__crt_stdio_output@@AEAA_NI_N@Z 0000000180019ecc f i libucrt:output.obj
 0001:0001906c       ?type_case_n@?$output_processor@_WV?$string_output_adapter@_W@__crt_stdio_output@@V?$standard_base@_WV?$string_output_adapter@_W@__crt_stdio_output@@@2@@__crt_stdio_output@@AEAA_NXZ 000000018001a06c f i libucrt:output.obj
 0001:0001906c       ?type_case_n@?$output_processor@DV?$string_output_adapter@D@__crt_stdio_output@@V?$format_validation_base@DV?$string_output_adapter@D@__crt_stdio_output@@@2@@__crt_stdio_output@@AEAA_NXZ 000000018001a06c f i libucrt:output.obj
 0001:0001906c       ?type_case_n@?$output_processor@DV?$stream_output_adapter@D@__crt_stdio_output@@V?$standard_base@DV?$stream_output_adapter@D@__crt_stdio_output@@@2@@__crt_stdio_output@@AEAA_NXZ 000000018001a06c f i libucrt:output.obj
 0001:0001906c       ?type_case_n@?$output_processor@DV?$string_output_adapter@D@__crt_stdio_output@@V?$standard_base@DV?$string_output_adapter@D@__crt_stdio_output@@@2@@__crt_stdio_output@@AEAA_NXZ 000000018001a06c f i libucrt:output.obj
 0001:0001906c       ?type_case_n@?$output_processor@_WV?$stream_output_adapter@_W@__crt_stdio_output@@V?$standard_base@_WV?$stream_output_adapter@_W@__crt_stdio_output@@@2@@__crt_stdio_output@@AEAA_NXZ 000000018001a06c f i libucrt:output.obj
 0001:00019148       ?type_case_s@?$output_processor@DV?$stream_output_adapter@D@__crt_stdio_output@@V?$standard_base@DV?$stream_output_adapter@D@__crt_stdio_output@@@2@@__crt_stdio_output@@AEAA_NXZ 000000018001a148 f i libucrt:output.obj
 0001:00019148       ?type_case_s@?$output_processor@DV?$string_output_adapter@D@__crt_stdio_output@@V?$standard_base@DV?$string_output_adapter@D@__crt_stdio_output@@@2@@__crt_stdio_output@@AEAA_NXZ 000000018001a148 f i libucrt:output.obj
 0001:00019148       ?type_case_s@?$output_processor@DV?$string_output_adapter@D@__crt_stdio_output@@V?$format_validation_base@DV?$string_output_adapter@D@__crt_stdio_output@@@2@@__crt_stdio_output@@AEAA_NXZ 000000018001a148 f i libucrt:output.obj
 0001:000191d8       ?type_case_s@?$output_processor@_WV?$string_output_adapter@_W@__crt_stdio_output@@V?$standard_base@_WV?$string_output_adapter@_W@__crt_stdio_output@@@2@@__crt_stdio_output@@AEAA_NXZ 000000018001a1d8 f i libucrt:output.obj
 0001:000191d8       ?type_case_s@?$output_processor@_WV?$stream_output_adapter@_W@__crt_stdio_output@@V?$standard_base@_WV?$stream_output_adapter@_W@__crt_stdio_output@@@2@@__crt_stdio_output@@AEAA_NXZ 000000018001a1d8 f i libucrt:output.obj
 0001:000192a0       ?validate_stream_is_ansi_if_required@?$__acrt_stdio_char_traits@D@@SA_NQEAU_iobuf@@@Z 000000018001a2a0 f i libucrt:output.obj
 0001:0001932c       ?write_stored_string_tchar@?$output_processor@DV?$stream_output_adapter@D@__crt_stdio_output@@V?$standard_base@DV?$stream_output_adapter@D@__crt_stdio_output@@@2@@__crt_stdio_output@@AEAA_ND@Z 000000018001a32c f i libucrt:output.obj
 0001:00019404       ?write_stored_string_tchar@?$output_processor@DV?$string_output_adapter@D@__crt_stdio_output@@V?$format_validation_base@DV?$string_output_adapter@D@__crt_stdio_output@@@2@@__crt_stdio_output@@AEAA_ND@Z 000000018001a404 f i libucrt:output.obj
 0001:00019404       ?write_stored_string_tchar@?$output_processor@DV?$string_output_adapter@D@__crt_stdio_output@@V?$standard_base@DV?$string_output_adapter@D@__crt_stdio_output@@@2@@__crt_stdio_output@@AEAA_ND@Z 000000018001a404 f i libucrt:output.obj
 0001:000194dc       ?write_stored_string_tchar@?$output_processor@_WV?$stream_output_adapter@_W@__crt_stdio_output@@V?$standard_base@_WV?$stream_output_adapter@_W@__crt_stdio_output@@@2@@__crt_stdio_output@@AEAA_N_W@Z 000000018001a4dc f i libucrt:output.obj
 0001:000195c8       ?write_stored_string_tchar@?$output_processor@_WV?$string_output_adapter@_W@__crt_stdio_output@@V?$standard_base@_WV?$string_output_adapter@_W@__crt_stdio_output@@@2@@__crt_stdio_output@@AEAA_N_W@Z 000000018001a5c8 f i libucrt:output.obj
 0001:000196b8       ?write_string@?$stream_output_adapter@D@__crt_stdio_output@@QEBAXQEBDHQEAH1@Z 000000018001a6b8 f i libucrt:output.obj
 0001:000197b0       ?write_string@?$stream_output_adapter@_W@__crt_stdio_output@@QEBAXQEB_WHQEAH1@Z 000000018001a7b0 f i libucrt:output.obj
 0001:000198bc       ?write_string@?$string_output_adapter@D@__crt_stdio_output@@QEBAXQEBDHQEAH1@Z 000000018001a8bc f i libucrt:output.obj
 0001:00019978       ?write_string@?$string_output_adapter@_W@__crt_stdio_output@@QEBAXQEB_WHQEAH1@Z 000000018001a978 f i libucrt:output.obj
 0001:00019a38       __stdio_common_vfprintf    000000018001aa38 f   libucrt:output.obj
 0001:00019ac4       __stdio_common_vfwprintf   000000018001aac4 f   libucrt:output.obj
 0001:00019b50       __stdio_common_vsnprintf_s 000000018001ab50 f   libucrt:output.obj
 0001:00019cac       __stdio_common_vsprintf    000000018001acac f   libucrt:output.obj
 0001:00019ee0       __stdio_common_vswprintf   000000018001aee0 f   libucrt:output.obj
 0001:0001a130       strncpy                    000000018001b130 f   libucrt:strncpy.obj
 0001:0001ac7c       ??$ftprintf@PEAU_iobuf@@PEB_WAEBQEB_WAEBQEB_WAEBI@?$__crt_char_traits@_W@@SAH$$QEAPEAU_iobuf@@$$QEAPEB_WAEBQEB_W2AEBI@Z 000000018001bc7c f i libucrt:assert.obj
 0001:0001aca4       _wassert                   000000018001bca4 f   libucrt:assert.obj
 0001:0001ad28       fwprintf                   000000018001bd28 f i libucrt:assert.obj
 0001:0001ad6c       swprintf                   000000018001bd6c f i libucrt:assert.obj
 0001:0001aeb4       getenv                     000000018001beb4 f   libucrt:getenv.obj
 0001:0001aebc       __acrt_call_reportfault    000000018001bebc f   libucrt:invalid_parameter.obj
 0001:0001b018       __acrt_initialize_invalid_parameter_handler 000000018001c018 f   libucrt:invalid_parameter.obj
 0001:0001b020       _invalid_parameter         000000018001c020 f   libucrt:invalid_parameter.obj
 0001:0001b0c8       _invalid_parameter_noinfo  000000018001c0c8 f   libucrt:invalid_parameter.obj
 0001:0001b0e8       _invalid_parameter_noinfo_noreturn 000000018001c0e8 f   libucrt:invalid_parameter.obj
 0001:0001b118       _invoke_watson             000000018001c118 f   libucrt:invalid_parameter.obj
 0001:0001b160       __ascii_stricmp            000000018001c160 f   libucrt:stricmp.obj
 0001:0001b19c       _stricmp                   000000018001c19c f   libucrt:stricmp.obj
 0001:0001b1e4       _stricmp_l                 000000018001c1e4 f   libucrt:stricmp.obj
 0001:0001b298       terminate                  000000018001c298 f   libucrt:terminate.obj
 0001:0001b2c0       __acrt_initialize_new_handler 000000018001c2c0 f   libucrt:new_handler.obj
 0001:0001b2c8       _callnewh                  000000018001c2c8 f   libucrt:new_handler.obj
 0001:0001b308       _query_new_handler         000000018001c308 f   libucrt:new_handler.obj
 0001:0001b33c       malloc                     000000018001c33c f   libucrt:malloc.obj
 0001:0001b344       _seh_filter_dll            000000018001c344 f   libucrt:exception_filter.obj
 0001:0001b358       _seh_filter_exe            000000018001c358 f   libucrt:exception_filter.obj
 0001:0001b718       __acrt_initialize_thread_local_exit_callback 000000018001c718 f   libucrt:exit.obj
 0001:0001b720       _cexit                     000000018001c720 f   libucrt:exit.obj
 0001:0001b730       _exit                      000000018001c730 f   libucrt:exit.obj
 0001:0001b73c       _is_c_termination_complete 000000018001c73c f   libucrt:exit.obj
 0001:0001b900       __acrt_allocate_buffer_for_argv 000000018001c900 f   libucrt:argv_parsing.obj
 0001:0001b964       _configure_narrow_argv     000000018001c964 f   libucrt:argv_parsing.obj
 0001:0001bddc       __dcrt_get_or_create_narrow_environment_nolock 000000018001cddc f   libucrt:environment_initialization.obj
 0001:0001bde4       __dcrt_uninitialize_environments_nolock 000000018001cde4 f   libucrt:environment_initialization.obj
 0001:0001be1c       _initialize_narrow_environment 000000018001ce1c f   libucrt:environment_initialization.obj
 0001:0001be24       ??$?RV<lambda_b8c45f8f788dd370798f47cfe8ac3a86>@@AEAV<lambda_4e60a939b0d047cfe11ddc22648dfba9>@@V<lambda_332c3edc96d0294ec56c57d38c1cdfd5>@@@?$__crt_seh_guarded_call@H@@QEAAH$$QEAV<lambda_b8c45f8f788dd370798f47cfe8ac3a86>@@AEAV<lambda_4e60a939b0d047cfe11ddc22648dfba9>@@$$QEAV<lambda_332c3edc96d0294ec56c57d38c1cdfd5>@@@Z 000000018001ce24 f i libucrt:onexit.obj
 0001:0001be60       ??$?RV<lambda_e24bbb7b643b32fcea6fa61b31d4c984>@@AEAV<lambda_275893d493268fdec8709772e3fcec0e>@@V<lambda_9d71df4d7cf3f480f8d633942495c3b0>@@@?$__crt_seh_guarded_call@H@@QEAAH$$QEAV<lambda_e24bbb7b643b32fcea6fa61b31d4c984>@@AEAV<lambda_275893d493268fdec8709772e3fcec0e>@@$$QEAV<lambda_9d71df4d7cf3f480f8d633942495c3b0>@@@Z 000000018001ce60 f i libucrt:onexit.obj
 0001:0001c1dc       _crt_atexit                000000018001d1dc f   libucrt:onexit.obj
 0001:0001c1ec       _execute_onexit_table      000000018001d1ec f   libucrt:onexit.obj
 0001:0001c228       _initialize_onexit_table   000000018001d228 f   libucrt:onexit.obj
 0001:0001c268       _register_onexit_function  000000018001d268 f   libucrt:onexit.obj
 0001:0001c3e4       __acrt_uninitialize_command_line 000000018001d3e4 f   libucrt:argv_data.obj
 0001:0001c3e8       __acrt_initialize          000000018001d3e8 f   libucrt:initialization.obj
 0001:0001c3fc       __acrt_thread_attach       000000018001d3fc f   libucrt:initialization.obj
 0001:0001c410       __acrt_thread_detach       000000018001d410 f   libucrt:initialization.obj
 0001:0001c420       __acrt_uninitialize        000000018001d420 f   libucrt:initialization.obj
 0001:0001c434       __acrt_uninitialize_critical 000000018001d434 f   libucrt:initialization.obj
 0001:0001c444       free                       000000018001d444 f   libucrt:free.obj
 0001:0001c44c       _initterm                  000000018001d44c f   libucrt:initterm.obj
 0001:0001c4c4       _initterm_e                000000018001d4c4 f   libucrt:initterm.obj
 0001:0001c510       abort                      000000018001d510 f   libucrt:abort.obj
 0001:0001c568       strcpy_s                   000000018001d568 f   libucrt:strcpy_s.obj
 0001:0001c5c8       _free_base                 000000018001d5c8 f   libucrt:free_base.obj
 0001:0001c608       _malloc_base               000000018001d608 f   libucrt:malloc_base.obj
 0001:0001c668       _calloc_base               000000018001d668 f   libucrt:calloc_base.obj
 0001:0001c6e0       ??$is_overflow_condition@K@__crt_strtox@@YA_NIK@Z 000000018001d6e0 f i libucrt:atox.obj
 0001:0001c70c       ??$parse_integer@KV?$c_string_character_source@D@__crt_strtox@@@__crt_strtox@@YAKQEAU__crt_locale_pointers@@V?$c_string_character_source@D@0@H_N@Z 000000018001d70c f i libucrt:atox.obj
 0001:0001ca20       ??$parse_integer@KV?$c_string_character_source@_W@__crt_strtox@@@__crt_strtox@@YAKQEAU__crt_locale_pointers@@V?$c_string_character_source@_W@0@H_N@Z 000000018001da20 f i libucrt:atox.obj
 0001:0001d0f4       ??$?RV<lambda_46352004c1216016012b18bd6f87e700>@@AEAV<lambda_3bd07e1a1191394380780325891bf33f>@@V<lambda_334532d3f185bcaa59b5be82d7d22bff>@@@?$__crt_seh_guarded_call@X@@QEAAX$$QEAV<lambda_46352004c1216016012b18bd6f87e700>@@AEAV<lambda_3bd07e1a1191394380780325891bf33f>@@$$QEAV<lambda_334532d3f185bcaa59b5be82d7d22bff>@@@Z 000000018001e0f4 f i libucrt:per_thread_data.obj
 0001:0001d154       ??$?RV<lambda_5e887d1dcbef67a5eb4283622ba103bf>@@AEAV<lambda_4466841279450cc726390878d4a41900>@@V<lambda_341c25c0346d94847f1f3c463c57e077>@@@?$__crt_seh_guarded_call@X@@QEAAX$$QEAV<lambda_5e887d1dcbef67a5eb4283622ba103bf>@@AEAV<lambda_4466841279450cc726390878d4a41900>@@$$QEAV<lambda_341c25c0346d94847f1f3c463c57e077>@@@Z 000000018001e154 f i libucrt:per_thread_data.obj
 0001:0001d19c       ??$?RV<lambda_72d1df2b273a38828b1ce30cbf4cdab5>@@AEAV<lambda_876a65b173b8412d3a47c70a915b0cf4>@@V<lambda_41932305e351933ebe8f8be3ed8bb5dc>@@@?$__crt_seh_guarded_call@X@@QEAAX$$QEAV<lambda_72d1df2b273a38828b1ce30cbf4cdab5>@@AEAV<lambda_876a65b173b8412d3a47c70a915b0cf4>@@$$QEAV<lambda_41932305e351933ebe8f8be3ed8bb5dc>@@@Z 000000018001e19c f i libucrt:per_thread_data.obj
 0001:0001d1dc       ??$?RV<lambda_fb3a7dec4e47f37f22dae91bb15c9095>@@AEAV<lambda_698284760c8add0bfb0756c19673e34b>@@V<lambda_dfb8eca1e75fef3034a8fb18dd509707>@@@?$__crt_seh_guarded_call@X@@QEAAX$$QEAV<lambda_fb3a7dec4e47f37f22dae91bb15c9095>@@AEAV<lambda_698284760c8add0bfb0756c19673e34b>@@$$QEAV<lambda_dfb8eca1e75fef3034a8fb18dd509707>@@@Z 000000018001e1dc f i libucrt:per_thread_data.obj
 0001:0001d46c       __acrt_freeptd             000000018001e46c f   libucrt:per_thread_data.obj
 0001:0001d4b0       __acrt_getptd              000000018001e4b0 f   libucrt:per_thread_data.obj
 0001:0001d544       __acrt_getptd_noexit       000000018001e544 f   libucrt:per_thread_data.obj
 0001:0001d5e4       __acrt_initialize_ptd      000000018001e5e4 f   libucrt:per_thread_data.obj
 0001:0001d620       __acrt_uninitialize_ptd    000000018001e620 f   libucrt:per_thread_data.obj
 0001:0001d644       __acrt_errno_from_os_error 000000018001e644 f   libucrt:errno.obj
 0001:0001d68c       __acrt_errno_map_os_error  000000018001e68c f   libucrt:errno.obj
 0001:0001d6dc       __doserrno                 000000018001e6dc f   libucrt:errno.obj
 0001:0001d6fc       _errno                     000000018001e6fc f   libucrt:errno.obj
 0001:0001d71c       ?__acrt_stdio_allocate_stream@@YA?AV__crt_stdio_stream@@XZ 000000018001e71c f   libucrt:stream.obj
 0001:0001d778       ?__acrt_stdio_free_stream@@YAXV__crt_stdio_stream@@@Z 000000018001e778 f   libucrt:stream.obj
 0001:0001d8a8       ??$__acrt_stdio_parse_mode@D@@YA?AU__acrt_stdio_stream_mode@@QEBD@Z 000000018001e8a8 f i libucrt:openfile.obj
 0001:0001db44       _openfile                  000000018001eb44 f   libucrt:openfile.obj
 0001:0001dd80       __acrt_AreFileApisANSI     000000018001ed80 f   libucrt:winapi_thunks.obj
 0001:0001ddcc       __acrt_CompareStringEx     000000018001edcc f   libucrt:winapi_thunks.obj
 0001:0001debc       __acrt_FlsAlloc            000000018001eebc f   libucrt:winapi_thunks.obj
 0001:0001df14       __acrt_FlsFree             000000018001ef14 f   libucrt:winapi_thunks.obj
 0001:0001df6c       __acrt_FlsGetValue         000000018001ef6c f   libucrt:winapi_thunks.obj
 0001:0001dfc4       __acrt_FlsSetValue         000000018001efc4 f   libucrt:winapi_thunks.obj
 0001:0001e02c       __acrt_InitializeCriticalSectionEx 000000018001f02c f   libucrt:winapi_thunks.obj
 0001:0001e0a4       __acrt_LCMapStringEx       000000018001f0a4 f   libucrt:winapi_thunks.obj
 0001:0001e194       __acrt_LocaleNameToLCID    000000018001f194 f   libucrt:winapi_thunks.obj
 0001:0001e1fc       __acrt_MessageBoxW         000000018001f1fc f   libucrt:winapi_thunks.obj
 0001:0001e284       __acrt_can_show_message_box 000000018001f284 f   libucrt:winapi_thunks.obj
 0001:0001e2e0       __acrt_get_parent_window   000000018001f2e0 f   libucrt:winapi_thunks.obj
 0001:0001e370       __acrt_initialize_winapi_thunks 000000018001f370 f   libucrt:winapi_thunks.obj
 0001:0001e3a8       __acrt_is_interactive      000000018001f3a8 f   libucrt:winapi_thunks.obj
 0001:0001e47c       __acrt_is_packaged_app     000000018001f47c f   libucrt:winapi_thunks.obj
 0001:0001e504       __acrt_uninitialize_winapi_thunks 000000018001f504 f   libucrt:winapi_thunks.obj
 0001:0001e548       _fcloseall                 000000018001f548 f   libucrt:closeall.obj
 0001:0001e5fc       __acrt_stdio_flush_nolock  000000018001f5fc f   libucrt:fflush.obj
 0001:0001e674       _fflush_nolock             000000018001f674 f   libucrt:fflush.obj
 0001:0001e6c0       _flushall                  000000018001f6c0 f   libucrt:fflush.obj
 0001:0001e7b0       fflush                     000000018001f7b0 f   libucrt:fflush.obj
 0001:0001e7f4       __acrt_stdio_free_buffer_nolock 000000018001f7f4 f   libucrt:_freebuf.obj
 0001:0001ea1c       __acrt_initialize_lowio    000000018001fa1c f   libucrt:ioinit.obj
 0001:0001ea58       __acrt_uninitialize_lowio  000000018001fa58 f   libucrt:ioinit.obj
 0001:0001ea98       ??$?RV<lambda_bfedae4ebbf01fab1bb6dcc6a9e276e0>@@AEAV<lambda_2fe9b910cf3cbf4a0ab98a02ba45b3ec>@@V<lambda_237c231691f317818eb88cc1d5d642d6>@@@?$__crt_seh_guarded_call@H@@QEAAH$$QEAV<lambda_bfedae4ebbf01fab1bb6dcc6a9e276e0>@@AEAV<lambda_2fe9b910cf3cbf4a0ab98a02ba45b3ec>@@$$QEAV<lambda_237c231691f317818eb88cc1d5d642d6>@@@Z 000000018001fa98 f i libucrt:close.obj
 0001:0001eb0c       _close                     000000018001fb0c f   libucrt:close.obj
 0001:0001ebb0       _close_nolock              000000018001fbb0 f   libucrt:close.obj
 0001:0001ec6c       _fileno                    000000018001fc6c f   libucrt:fileno.obj
 0001:0001ec94       __acrt_copy_path_to_wide_string 000000018001fc94 f   libucrt:string_utilities.obj
 0001:0001ed8c       _wremove                   000000018001fd8c f   libucrt:wunlink.obj
 0001:0001edb4       isdigit                    000000018001fdb4 f i libucrt:_ctype.obj
 0001:0001ee78       _tolower_l                 000000018001fe78 f   libucrt:tolower_toupper.obj
 0001:0001efb8       tolower                    000000018001ffb8 f   libucrt:tolower_toupper.obj
 0001:0001efe4       ??$make_c_string_character_source@DPEAPEAD@__crt_strtox@@YA?AV?$c_string_character_source@D@0@QEBDQEAPEAD@Z 000000018001ffe4 f i libucrt:strtox.obj
 0001:0001efe4       ??$make_c_string_character_source@_WPEAPEA_W@__crt_strtox@@YA?AV?$c_string_character_source@_W@0@QEB_WQEAPEA_W@Z 000000018001ffe4 f i libucrt:strtox.obj
 0001:0001eff8       strtol                     000000018001fff8 f   libucrt:strtox.obj
 0001:0001f028       wcstol                     0000000180020028 f   libucrt:strtox.obj
 0001:0001f058       _mbtowc_l                  0000000180020058 f   libucrt:mbtowc.obj
 0001:0001f1a0       mbtowc                     00000001800201a0 f   libucrt:mbtowc.obj
 0001:0001f1a8       _wctomb_s_l                00000001800201a8 f   libucrt:wctomb.obj
 0001:0001f32c       wctomb_s                   000000018002032c f   libucrt:wctomb.obj
 0001:0001f340       strnlen                    0000000180020340 f   libucrt:strnlen.obj
 0001:0001f49c       wcsnlen                    000000018002049c f   libucrt:strnlen.obj
 0001:0001f68c       __acrt_update_locale_info  000000018002068c f   libucrt:locale_update.obj
 0001:0001f6c0       __acrt_update_multibyte_info 00000001800206c0 f   libucrt:locale_update.obj
 0001:0001f6f4       ?__acrt_fp_classify@@YA?AW4__acrt_fp_class@@AEBN@Z 00000001800206f4 f i libucrt:cvt.obj
 0001:0002012c       __acrt_fp_format           000000018002112c f   libucrt:cvt.obj
 0001:00020370       _fputwc_nolock             0000000180021370 f   libucrt:fputwc.obj
 0001:000204ec       _fputc_nolock              00000001800214ec f   libucrt:fputc.obj
 0001:00020504       _get_printf_count_output   0000000180021504 f   libucrt:printf_count_output.obj
 0001:0002051c       __acrt_stdio_begin_temporary_buffering_nolock 000000018002151c f   libucrt:_sftbuf.obj
 0001:000205ec       __acrt_stdio_end_temporary_buffering_nolock 00000001800215ec f   libucrt:_sftbuf.obj
 0001:00020628       __acrt_set_locale_changed  0000000180021628 f   libucrt:wsetlocale.obj
 0001:00020634       __acrt_uninitialize_locale 0000000180021634 f   libucrt:wsetlocale.obj
 0001:0002067c       _query_app_type            000000018002167c f   libucrt:report_runtime_error.obj
 0001:000207ac       _itow_s                    00000001800217ac f   libucrt:xtoa.obj
 0001:000207cc       _set_error_mode            00000001800217cc f   libucrt:set_error_mode.obj
 0001:0002080c       wcscat_s                   000000018002180c f   libucrt:wcscat_s.obj
 0001:0002088c       wcscpy_s                   000000018002188c f   libucrt:wcscpy_s.obj
 0001:000208f4       wcsncat_s                  00000001800218f4 f   libucrt:wcsncat_s.obj
 0001:00020a1c       __acrt_show_wide_message_box 0000000180021a1c f   libucrt:crtmbox.obj
 0001:00020b38       ??$?RV<lambda_7a5ef57ff966f610505f1d28a3d40618>@@AEAV<lambda_b721fa326cdb32351d23dfa67958c160>@@V<lambda_5e0fb27672408a07956fe59e48ccb2aa>@@@?$__crt_seh_guarded_call@H@@QEAAH$$QEAV<lambda_7a5ef57ff966f610505f1d28a3d40618>@@AEAV<lambda_b721fa326cdb32351d23dfa67958c160>@@$$QEAV<lambda_5e0fb27672408a07956fe59e48ccb2aa>@@@Z 0000000180021b38 f i libucrt:setvbuf.obj
 0001:00020c68       setvbuf                    0000000180021c68 f   libucrt:setvbuf.obj
 0001:00020d08       ??$?RV<lambda_c36588078e9f5dfd39652860aa6b3aaf>@@AEAV<lambda_ec61778202f4f5fc7e7711acc23c3bca>@@V<lambda_dc9d2797ccde5d239b4a0efae8ebd7db>@@@?$__crt_seh_guarded_call@P6AXH@Z@@QEAAP6AXH@Z$$QEAV<lambda_c36588078e9f5dfd39652860aa6b3aaf>@@AEAV<lambda_ec61778202f4f5fc7e7711acc23c3bca>@@$$QEAV<lambda_dc9d2797ccde5d239b4a0efae8ebd7db>@@@Z 0000000180021d08 f i libucrt:signal.obj
 0001:00020d50       __acrt_get_sigabrt_handler 0000000180021d50 f   libucrt:signal.obj
 0001:00020d80       __acrt_initialize_signal_handlers 0000000180021d80 f   libucrt:signal.obj
 0001:00020da0       raise                      0000000180021da0 f   libucrt:signal.obj
 0001:0002103c       _strnicoll                 000000018002203c f   libucrt:strnicol.obj
 0001:00021054       _strnicoll_l               0000000180022054 f   libucrt:strnicol.obj
 0001:00021154       __acrt_initialize_locks    0000000180022154 f   libucrt:locks.obj
 0001:0002119c       __acrt_lock                000000018002219c f   libucrt:locks.obj
 0001:000211b8       __acrt_uninitialize_locks  00000001800221b8 f   libucrt:locks.obj
 0001:000211f0       __acrt_unlock              00000001800221f0 f   libucrt:locks.obj
 0001:000216e8       ?expand_if_necessary@?$argument_list@D@?A0xca0879c4@@AEAAHXZ 00000001800226e8 f i libucrt:argv_wildcards.obj
 0001:000217b0       __acrt_expand_narrow_argv_wildcards 00000001800227b0 f   libucrt:argv_wildcards.obj
 0001:000217b8       ??$?RV<lambda_99476a1ad63dd22509b5d3e65b0ffc95>@@AEAV<lambda_ad1ced32f4ac17aa236e5ef05d6b3b7c>@@V<lambda_f7424dd8d45958661754dc4f2697e9c3>@@@?$__crt_seh_guarded_call@X@@QEAAX$$QEAV<lambda_99476a1ad63dd22509b5d3e65b0ffc95>@@AEAV<lambda_ad1ced32f4ac17aa236e5ef05d6b3b7c>@@$$QEAV<lambda_f7424dd8d45958661754dc4f2697e9c3>@@@Z 00000001800227b8 f i libucrt:mbctype.obj
 0001:00021eb4       __acrt_initialize_multibyte 0000000180022eb4 f   libucrt:mbctype.obj
 0001:00021edc       __acrt_update_thread_multibyte_data 0000000180022edc f   libucrt:mbctype.obj
 0001:00021f9c       _setmbcp_nolock            0000000180022f9c f   libucrt:mbctype.obj
 0001:000222bc       _ismbblead                 00000001800232bc f   libucrt:ismbbyte.obj
 0001:000222d0       __acrt_initialize_command_line 00000001800232d0 f   libucrt:argv_data.obj
 0001:000222f8       __dcrt_get_narrow_environment_from_os 00000001800232f8 f   libucrt:get_environment_from_os.obj
 0001:000227d8       __dcrt_set_variable_in_narrow_environment_nolock 00000001800237d8 f   libucrt:setenv.obj
 0001:000227e0       _recalloc                  00000001800237e0 f   libucrt:recalloc.obj
 0001:000227e8       _recalloc_base             00000001800237e8 f   libucrt:recalloc.obj
 0001:00022880       __acrt_initialize_heap     0000000180023880 f   libucrt:heap_handle.obj
 0001:0002289c       __acrt_uninitialize_heap   000000018002389c f   libucrt:heap_handle.obj
 0001:000228a8       __acrt_execute_initializers 00000001800238a8 f   libucrt:shared_initialization.obj
 0001:0002293c       __acrt_execute_uninitializers 000000018002393c f   libucrt:shared_initialization.obj
 0001:0002298c       __acrt_has_user_matherr    000000018002398c f   libucrt:matherr.obj
 0001:000229ac       __acrt_initialize_user_matherr 00000001800239ac f   libucrt:matherr.obj
 0001:000229b4       __acrt_invoke_user_matherr 00000001800239b4 f   libucrt:matherr.obj
 0001:000229fc       _query_new_mode            00000001800239fc f   libucrt:new_mode.obj
 0001:00022a04       __pctype_func              0000000180023a04 f   libucrt:ctype.obj
 0001:00022a34       iswctype                   0000000180023a34 f   libucrt:iswctype.obj
 0001:00022aa4       _isctype_l                 0000000180023aa4 f   libucrt:isctype.obj
 0001:00022bb4       __acrt_add_locale_ref      0000000180023bb4 f   libucrt:locale_refcounting.obj
 0001:00022c40       __acrt_free_locale         0000000180023c40 f   libucrt:locale_refcounting.obj
 0001:00022db8       __acrt_locale_add_lc_time_reference 0000000180023db8 f   libucrt:locale_refcounting.obj
 0001:00022de0       __acrt_locale_free_lc_time_if_unreferenced 0000000180023de0 f   libucrt:locale_refcounting.obj
 0001:00022e18       __acrt_locale_release_lc_time_reference 0000000180023e18 f   libucrt:locale_refcounting.obj
 0001:00022e40       __acrt_release_locale_ref  0000000180023e40 f   libucrt:locale_refcounting.obj
 0001:00022ee8       __acrt_update_thread_locale_data 0000000180023ee8 f   libucrt:locale_refcounting.obj
 0001:00022f58       _updatetlocinfoEx_nolock   0000000180023f58 f   libucrt:locale_refcounting.obj
 0001:00022fd0       strncmp                    0000000180023fd0 f   libucrt:strncmp.obj
 0001:00023050       __ascii_strnicmp           0000000180024050 f   libucrt:strnicmp.obj
 0001:00023098       _strnicmp                  0000000180024098 f   libucrt:strnicmp.obj
 0001:000230e8       _strnicmp_l                00000001800240e8 f   libucrt:strnicmp.obj
 0001:00023808       _sopen_nolock              0000000180024808 f   libucrt:open.obj
 0001:00023898       _sopen_s                   0000000180024898 f   libucrt:open.obj
 0001:000238cc       _wsopen_nolock             00000001800248cc f   libucrt:open.obj
 0001:00023d84       __acrt_DownlevelLocaleNameToLCID 0000000180024d84 f   libucrt:lcidtoname_downlevel.obj
 0001:00023db8       ??$?RV<lambda_b521505b218e5242e90febf6bfebc422>@@AEAV<lambda_6978c1fb23f02e42e1d9e99668cc68aa>@@V<lambda_314360699dd331753a4119843814e9a7>@@@?$__crt_seh_guarded_call@H@@QEAAH$$QEAV<lambda_b521505b218e5242e90febf6bfebc422>@@AEAV<lambda_6978c1fb23f02e42e1d9e99668cc68aa>@@$$QEAV<lambda_314360699dd331753a4119843814e9a7>@@@Z 0000000180024db8 f i libucrt:commit.obj
 0001:00023e44       _commit                    0000000180024e44 f   libucrt:commit.obj
 0001:00024478       _write                     0000000180025478 f   libucrt:write.obj
 0001:00024564       _write_nolock              0000000180025564 f   libucrt:write.obj
 0001:00024848       __acrt_lowio_create_handle_array 0000000180025848 f   libucrt:osfinfo.obj
 0001:000248e0       __acrt_lowio_destroy_handle_array 00000001800258e0 f   libucrt:osfinfo.obj
 0001:00024930       __acrt_lowio_ensure_fh_exists 0000000180025930 f   libucrt:osfinfo.obj
 0001:000249e8       __acrt_lowio_lock_fh       00000001800259e8 f   libucrt:osfinfo.obj
 0001:00024a0c       __acrt_lowio_set_os_handle 0000000180025a0c f   libucrt:osfinfo.obj
 0001:00024acc       __acrt_lowio_unlock_fh     0000000180025acc f   libucrt:osfinfo.obj
 0001:00024af0       _alloc_osfhnd              0000000180025af0 f   libucrt:osfinfo.obj
 0001:00024c20       _free_osfhnd               0000000180025c20 f   libucrt:osfinfo.obj
 0001:00024cdc       _get_osfhandle             0000000180025cdc f   libucrt:osfinfo.obj
 0001:00024d54       _isleadbyte_l              0000000180025d54 f i libucrt:_wctype.obj
 0001:000250f0       __acrt_LCMapStringA        00000001800260f0 f   libucrt:lcmapstringa.obj
 0001:00025188       __acrt_fp_strflt_to_string 0000000180026188 f   libucrt:_fptostr.obj
 0001:00025250       ?divide@__crt_strtox@@YA_KAEAUbig_integer@1@AEBU21@@Z 0000000180026250 f i libucrt:cfout.obj
 0001:00025720       __acrt_fltout              0000000180026720 f   libucrt:cfout.obj
 0001:00026d24       __acrt_stdio_flush_and_write_narrow_nolock 0000000180027d24 f   libucrt:_flsbuf.obj
 0001:00026e0c       __acrt_stdio_flush_and_write_wide_nolock 0000000180027e0c f   libucrt:_flsbuf.obj
 0001:00026ef8       _isatty                    0000000180027ef8 f   libucrt:isatty.obj
 0001:00026f58       __acrt_locale_free_monetary 0000000180027f58 f   libucrt:initmon.obj
 0001:00027064       __acrt_locale_free_numeric 0000000180028064 f   libucrt:initnum.obj
 0001:00027128       __acrt_locale_free_time    0000000180028128 f   libucrt:inittime.obj
 0001:00027230       __acrt_GetStringTypeA      0000000180028230 f   libucrt:getstringtypea.obj
 0001:00027778       __acrt_CompareStringA      0000000180028778 f   libucrt:comparestringa.obj
 0001:000278e0       qsort                      00000001800288e0 f   libucrt:qsort.obj
 0001:00027c14       strncpy_s                  0000000180028c14 f   libucrt:strncpy_s.obj
 0001:00027ce8       strpbrk                    0000000180028ce8 f   libucrt:strpbrk.obj
 0001:00027d88       _mbsdec                    0000000180028d88 f   libucrt:mbsdec.obj
 0001:00027d90       _mbsdec_l                  0000000180028d90 f   libucrt:mbsdec.obj
 0001:00027e40       _msize                     0000000180028e40 f   libucrt:msize.obj
 0001:00027e7c       _realloc_base              0000000180028e7c f   libucrt:realloc_base.obj
 0001:00027f00       _get_fmode                 0000000180028f00 f   libucrt:setmode.obj
 0001:00027f30       _setmode_nolock            0000000180028f30 f   libucrt:setmode.obj
 0001:00028010       _chsize_nolock             0000000180029010 f   libucrt:chsize.obj
 0001:000286bc       _read_nolock               00000001800296bc f   libucrt:read.obj
 0001:00028cb0       _lseeki64                  0000000180029cb0 f   libucrt:lseek.obj
 0001:00028cb8       _lseeki64_nolock           0000000180029cb8 f   libucrt:lseek.obj
 0001:00028cc0       _putwch_nolock             0000000180029cc0 f   libucrt:putwch.obj
 0001:00028d1c       __strncnt                  0000000180029d1c f   libucrt:strncnt.obj
 0001:00028d34       fegetenv                   0000000180029d34 f   libucrt:fegetenv.obj
 0001:00028d54       fesetenv                   0000000180029d54 f   libucrt:fesetenv.obj
 0001:00028da0       feholdexcept               0000000180029da0 f   libucrt:feholdexcept.obj
 0001:00028df0       ceil                       0000000180029df0 f   libucrt:ceil.obj
 0001:00028ec0       log10                      0000000180029ec0 f   libucrt:log10.obj
 0001:0002946c       __acrt_stdio_allocate_buffer_nolock 000000018002a46c f   libucrt:_getbuf.obj
 0001:000294d0       __dcrt_lowio_initialize_console_output 000000018002a4d0 f   libucrt:initcon.obj
 0001:0002950c       __dcrt_terminate_console_output 000000018002a50c f   libucrt:initcon.obj
 0001:0002952c       _getfpcontrolword          000000018002a52c f   libucrt:_fenvutils.obj
 0001:00029544       _getfpstatusword           000000018002a544 f   libucrt:_fenvutils.obj
 0001:00029558       _setfpcontrolword          000000018002a558 f   libucrt:_fenvutils.obj
 0001:00029564       _setfpstatusword           000000018002a564 f   libucrt:_fenvutils.obj
 0001:000295b4       _clearfp                   000000018002a5b4 f   libucrt:ieee.obj
 0001:00029608       _controlfp                 000000018002a608 f   libucrt:ieee.obj
 0001:00029614       _statusfp                  000000018002a614 f   libucrt:ieee.obj
 0001:00029a18       _handle_error              000000018002aa18 f   libucrt:libm_error.obj
 0001:00029b40       _handle_errorf             000000018002ab40 f   libucrt:libm_error.obj
 0001:00029c74       _handle_nan                000000018002ac74 f   libucrt:libm_error.obj
 0001:00029c90       _handle_nanf               000000018002ac90 f   libucrt:libm_error.obj
 0001:00029ca0       __acrt_initialize_fma3     000000018002aca0 f   libucrt:fma3_available.obj
 0001:00029d10       _log10_special             000000018002ad10 f   libucrt:log_special.obj
 0001:00029de0       _get_fpsr                  000000018002ade0 f   libucrt:fpsr.obj
 0001:00029df0       _set_fpsr                  000000018002adf0 f   libucrt:fpsr.obj
 0001:00029dfa       _fclrf                     000000018002adfa f   libucrt:fpsr.obj
 0001:00029e0e       _frnd                      000000018002ae0e f   libucrt:fpsr.obj
 0001:00029e30       _raise_exc                 000000018002ae30 f   libucrt:fpexcept.obj
 0001:00029e58       _raise_exc_ex              000000018002ae58 f   libucrt:fpexcept.obj
 0001:0002a160       _raise_excf                000000018002b160 f   libucrt:fpexcept.obj
 0001:0002a18c       _set_errno_from_matherr    000000018002b18c f   libucrt:fpexcept.obj
 0001:0002a1bc       _clrfp                     000000018002b1bc f   libucrt:fpctrl.obj
 0001:0002a1dc       _ctrlfp                    000000018002b1dc f   libucrt:fpctrl.obj
 0001:0002a258       _set_statfp                000000018002b258 f   libucrt:fpctrl.obj
 0001:0002a278       _statfp                    000000018002b278 f   libucrt:fpctrl.obj
 0001:0002a28a       IsProcessorFeaturePresent  000000018002b28a f   kernel32:KERNEL32.dll
 0001:0002a290       RtlUnwindEx                000000018002b290 f   kernel32:KERNEL32.dll
 0001:0002a298       ?DloadAcquireSectionWriteAccess@@YAXXZ 000000018002b298 f i DelayImp:delayhlp.obj
 0001:0002a354       ?DloadGetSRWLockFunctionPointers@@YAEXZ 000000018002b354 f i DelayImp:delayhlp.obj
 0001:0002a3f0       ?DloadMakePermanentImageCommit@@YAXPEAX_K@Z 000000018002b3f0 f i DelayImp:delayhlp.obj
 0001:0002a488       ?DloadObtainSection@@YAPEAXPEAK0@Z 000000018002b488 f i DelayImp:delayhlp.obj
 0001:0002a520       ?DloadProtectSection@@YAXKPEAK@Z 000000018002b520 f i DelayImp:delayhlp.obj
 0001:0002a5b0       ?DloadReleaseSectionWriteAccess@@YAXXZ 000000018002b5b0 f i DelayImp:delayhlp.obj
 0001:0002a654       __delayLoadHelper2         000000018002b654 f   DelayImp:delayhlp.obj
 0001:0002a950       _FindPESection             000000018002b950 f   LIBCMT:pesect.obj
 0001:0002a9a0       _IsNonwritableInCurrentImage 000000018002b9a0 f   LIBCMT:pesect.obj
 0001:0002a9f0       _ValidateImageBase         000000018002b9f0 f   LIBCMT:pesect.obj
 0001:0002aa20       __GSHandlerCheck           000000018002ba20 f   LIBCMT:_gshandler_.obj
 0001:0002aa40       __GSHandlerCheckCommon     000000018002ba40 f   LIBCMT:_gshandler_.obj
 0001:0002aab0       _alloca_probe              000000018002bab0 f   LIBCMT:_chkstk_.obj
 0001:0002aab0       __chkstk                   000000018002bab0 f   LIBCMT:_chkstk_.obj
 0001:0002ab04       strrchr                    000000018002bb04 f   libvcruntime:strrchr.obj
 0001:0002ac60       memcmp                     000000018002bc60 f   libvcruntime:memcmp.obj
 0001:0002ad28       strchr                     000000018002bd28 f   libvcruntime:strchr.obj
 0001:0002adb4       __GSHandlerCheck_EH        000000018002bdb4 f   LIBCMT:gshandlereh.obj
 0001:0002ae40       cos                        000000018002be40 f   libucrt:cos.obj
 0001:0002b3c0       cosf                       000000018002c3c0 f   libucrt:cosf.obj
 0001:0002b8c0       expf                       000000018002c8c0 f   libucrt:expf.obj
 0001:0002bb68       floor                      000000018002cb68 f   libucrt:floor.obj
 0001:0002bc20       powf                       000000018002cc20 f   libucrt:powf.obj
 0001:0002caf0       sin                        000000018002daf0 f   libucrt:sin.obj
 0001:0002d060       sinf                       000000018002e060 f   libucrt:sinf.obj
 0001:0002d760       __remainder_piby2_forAsm   000000018002e760 f   libucrt:remainder_piby2_forasm.obj
 0001:0002d970       __remainder_piby2_cw_forAsm 000000018002e970 f   libucrt:remainder_piby2_forasm.obj
 0001:0002dab0       __remainder_piby2_fma3     000000018002eab0 f   libucrt:remainder_piby2_forfma3.obj
 0001:0002dca0       __remainder_piby2_fma3_bdl 000000018002eca0 f   libucrt:remainder_piby2_forfma3.obj
 0001:0002dd18       _cos_special               000000018002ed18 f   libucrt:sincos_special.obj
 0001:0002dd2c       _cosf_special              000000018002ed2c f   libucrt:sincos_special.obj
 0001:0002dd40       _sin_special               000000018002ed40 f   libucrt:sincos_special.obj
 0001:0002de84       _sinf_special              000000018002ee84 f   libucrt:sincos_special.obj
 0001:0002dea0       __remainder_piby2d2f_forAsm 000000018002eea0 f   libucrt:remainder_piby2f_forasm.obj
 0001:0002dff0       _expf_special              000000018002eff0 f   libucrt:exp_special.obj
 0001:0002e098       _powf_special              000000018002f098 f   libucrt:pow_special.obj
 0001:0002e230       __remainder_piby2d2f_forC  000000018002f230 f   libucrt:remainder_piby2f_forc.obj
 0001:0002e3d0       _guard_dispatch_icall_nop  000000018002f3d0 f   LIBCMT:_guard_dispatch_.obj
 0001:00030340       ??__Fs_path@?1??temporary_path@cimg@cimg_library@@YAPEBDQEBD_N@Z@YAXXZ 0000000180031340 f i image.obj
 0001:00030360       ??__Fs_path@?1??programfiles_path@cimg@cimg_library@@YAPEBDQEBD_N@Z@YAXXZ 0000000180031360 f i image.obj
 0001:00030380       ??__Fs_path@?1??imagemagick_path@cimg@cimg_library@@YAPEBDQEBD_N@Z@YAXXZ 0000000180031380 f i image.obj
 0001:000303a0       ??__Fs_path@?1??graphicsmagick_path@cimg@cimg_library@@YAPEBDQEBD_N@Z@YAXXZ 00000001800313a0 f i image.obj
 0001:000303c0       ??__Fs_path@?1??medcon_path@cimg@cimg_library@@YAPEBDQEBD_N@Z@YAXXZ 00000001800313c0 f i image.obj
 0001:000303e0       ??__Fres@?1??strbuffersize@cimg@cimg_library@@YAPEBDK@Z@YAXXZ 00000001800313e0 f i image.obj
 0002:00000000       __imp_GetShortPathNameA    0000000180032000     kernel32:KERNEL32.dll
 0002:00000008       __imp_CreateMutexA         0000000180032008     kernel32:KERNEL32.dll
 0002:00000010       __imp_WaitForSingleObject  0000000180032010     kernel32:KERNEL32.dll
 0002:00000018       __imp_ReleaseMutex         0000000180032018     kernel32:KERNEL32.dll
 0002:00000020       __imp_GetLocalTime         0000000180032020     kernel32:KERNEL32.dll
 0002:00000028       __imp_GetModuleHandleA     0000000180032028     kernel32:KERNEL32.dll
 0002:00000030       __imp_VirtualQuery         0000000180032030     kernel32:KERNEL32.dll
 0002:00000038       __imp_VirtualProtect       0000000180032038     kernel32:KERNEL32.dll
 0002:00000040       __imp_CloseHandle          0000000180032040     kernel32:KERNEL32.dll
 0002:00000048       __imp_EnterCriticalSection 0000000180032048     kernel32:KERNEL32.dll
 0002:00000050       __imp_LeaveCriticalSection 0000000180032050     kernel32:KERNEL32.dll
 0002:00000058       __imp_DeleteCriticalSection 0000000180032058     kernel32:KERNEL32.dll
 0002:00000060       __imp_SetEvent             0000000180032060     kernel32:KERNEL32.dll
 0002:00000068       __imp_ResetEvent           0000000180032068     kernel32:KERNEL32.dll
 0002:00000070       __imp_WaitForSingleObjectEx 0000000180032070     kernel32:KERNEL32.dll
 0002:00000078       __imp_CreateEventW         0000000180032078     kernel32:KERNEL32.dll
 0002:00000080       __imp_GetModuleHandleW     0000000180032080     kernel32:KERNEL32.dll
 0002:00000088       __imp_GetProcAddress       0000000180032088     kernel32:KERNEL32.dll
 0002:00000090       __imp_RtlCaptureContext    0000000180032090     kernel32:KERNEL32.dll
 0002:00000098       __imp_RtlLookupFunctionEntry 0000000180032098     kernel32:KERNEL32.dll
 0002:000000a0       __imp_RtlVirtualUnwind     00000001800320a0     kernel32:KERNEL32.dll
 0002:000000a8       __imp_UnhandledExceptionFilter 00000001800320a8     kernel32:KERNEL32.dll
 0002:000000b0       __imp_SetUnhandledExceptionFilter 00000001800320b0     kernel32:KERNEL32.dll
 0002:000000b8       __imp_GetCurrentProcess    00000001800320b8     kernel32:KERNEL32.dll
 0002:000000c0       __imp_TerminateProcess     00000001800320c0     kernel32:KERNEL32.dll
 0002:000000c8       __imp_IsProcessorFeaturePresent 00000001800320c8     kernel32:KERNEL32.dll
 0002:000000d0       __imp_IsDebuggerPresent    00000001800320d0     kernel32:KERNEL32.dll
 0002:000000d8       __imp_GetStartupInfoW      00000001800320d8     kernel32:KERNEL32.dll
 0002:000000e0       __imp_QueryPerformanceCounter 00000001800320e0     kernel32:KERNEL32.dll
 0002:000000e8       __imp_GetCurrentProcessId  00000001800320e8     kernel32:KERNEL32.dll
 0002:000000f0       __imp_GetCurrentThreadId   00000001800320f0     kernel32:KERNEL32.dll
 0002:000000f8       __imp_GetSystemTimeAsFileTime 00000001800320f8     kernel32:KERNEL32.dll
 0002:00000100       __imp_InitializeSListHead  0000000180032100     kernel32:KERNEL32.dll
 0002:00000108       __imp_RtlPcToFileHeader    0000000180032108     kernel32:KERNEL32.dll
 0002:00000110       __imp_EncodePointer        0000000180032110     kernel32:KERNEL32.dll
 0002:00000118       __imp_RaiseException       0000000180032118     kernel32:KERNEL32.dll
 0002:00000120       __imp_RtlUnwindEx          0000000180032120     kernel32:KERNEL32.dll
 0002:00000128       __imp_GetLastError         0000000180032128     kernel32:KERNEL32.dll
 0002:00000130       __imp_InitializeCriticalSectionAndSpinCount 0000000180032130     kernel32:KERNEL32.dll
 0002:00000138       __imp_TlsAlloc             0000000180032138     kernel32:KERNEL32.dll
 0002:00000140       __imp_TlsGetValue          0000000180032140     kernel32:KERNEL32.dll
 0002:00000148       __imp_TlsSetValue          0000000180032148     kernel32:KERNEL32.dll
 0002:00000150       __imp_TlsFree              0000000180032150     kernel32:KERNEL32.dll
 0002:00000158       __imp_FreeLibrary          0000000180032158     kernel32:KERNEL32.dll
 0002:00000160       __imp_LoadLibraryExW       0000000180032160     kernel32:KERNEL32.dll
 0002:00000168       __imp_InterlockedFlushSList 0000000180032168     kernel32:KERNEL32.dll
 0002:00000170       __imp_SetLastError         0000000180032170     kernel32:KERNEL32.dll
 0002:00000178       __imp_GetStdHandle         0000000180032178     kernel32:KERNEL32.dll
 0002:00000180       __imp_GetFileType          0000000180032180     kernel32:KERNEL32.dll
 0002:00000188       __imp_GetModuleFileNameA   0000000180032188     kernel32:KERNEL32.dll
 0002:00000190       __imp_GetModuleFileNameW   0000000180032190     kernel32:KERNEL32.dll
 0002:00000198       __imp_GetModuleHandleExW   0000000180032198     kernel32:KERNEL32.dll
 0002:000001a0       __imp_WriteConsoleW        00000001800321a0     kernel32:KERNEL32.dll
 0002:000001a8       __imp_ExitProcess          00000001800321a8     kernel32:KERNEL32.dll
 0002:000001b0       __imp_MultiByteToWideChar  00000001800321b0     kernel32:KERNEL32.dll
 0002:000001b8       __imp_WideCharToMultiByte  00000001800321b8     kernel32:KERNEL32.dll
 0002:000001c0       __imp_HeapFree             00000001800321c0     kernel32:KERNEL32.dll
 0002:000001c8       __imp_HeapAlloc            00000001800321c8     kernel32:KERNEL32.dll
 0002:000001d0       __imp_CompareStringW       00000001800321d0     kernel32:KERNEL32.dll
 0002:000001d8       __imp_LCMapStringW         00000001800321d8     kernel32:KERNEL32.dll
 0002:000001e0       __imp_DeleteFileW          00000001800321e0     kernel32:KERNEL32.dll
 0002:000001e8       __imp_GetACP               00000001800321e8     kernel32:KERNEL32.dll
 0002:000001f0       __imp_WriteFile            00000001800321f0     kernel32:KERNEL32.dll
 0002:000001f8       __imp_OutputDebugStringW   00000001800321f8     kernel32:KERNEL32.dll
 0002:00000200       __imp_CreateThread         0000000180032200     kernel32:KERNEL32.dll
 0002:00000208       __imp_FindClose            0000000180032208     kernel32:KERNEL32.dll
 0002:00000210       __imp_FindFirstFileExA     0000000180032210     kernel32:KERNEL32.dll
 0002:00000218       __imp_FindNextFileA        0000000180032218     kernel32:KERNEL32.dll
 0002:00000220       __imp_IsValidCodePage      0000000180032220     kernel32:KERNEL32.dll
 0002:00000228       __imp_GetOEMCP             0000000180032228     kernel32:KERNEL32.dll
 0002:00000230       __imp_GetCPInfo            0000000180032230     kernel32:KERNEL32.dll
 0002:00000238       __imp_GetCommandLineA      0000000180032238     kernel32:KERNEL32.dll
 0002:00000240       __imp_GetCommandLineW      0000000180032240     kernel32:KERNEL32.dll
 0002:00000248       __imp_GetEnvironmentStringsW 0000000180032248     kernel32:KERNEL32.dll
 0002:00000250       __imp_FreeEnvironmentStringsW 0000000180032250     kernel32:KERNEL32.dll
 0002:00000258       __imp_SetEnvironmentVariableA 0000000180032258     kernel32:KERNEL32.dll
 0002:00000260       __imp_GetProcessHeap       0000000180032260     kernel32:KERNEL32.dll
 0002:00000268       __imp_GetStringTypeW       0000000180032268     kernel32:KERNEL32.dll
 0002:00000270       __imp_CreateFileW          0000000180032270     kernel32:KERNEL32.dll
 0002:00000278       __imp_FlushFileBuffers     0000000180032278     kernel32:KERNEL32.dll
 0002:00000280       __imp_GetConsoleCP         0000000180032280     kernel32:KERNEL32.dll
 0002:00000288       __imp_GetConsoleMode       0000000180032288     kernel32:KERNEL32.dll
 0002:00000290       __imp_SetStdHandle         0000000180032290     kernel32:KERNEL32.dll
 0002:00000298       __imp_HeapSize             0000000180032298     kernel32:KERNEL32.dll
 0002:000002a0       __imp_HeapReAlloc          00000001800322a0     kernel32:KERNEL32.dll
 0002:000002a8       __imp_SetEndOfFile         00000001800322a8     kernel32:KERNEL32.dll
 0002:000002b0       __imp_ReadFile             00000001800322b0     kernel32:KERNEL32.dll
 0002:000002b8       __imp_ReadConsoleW         00000001800322b8     kernel32:KERNEL32.dll
 0002:000002c0       __imp_SetFilePointerEx     00000001800322c0     kernel32:KERNEL32.dll
 0002:000002c8       __imp_GetSystemInfo        00000001800322c8     kernel32:KERNEL32.dll
 0002:000002d0       __imp_LoadLibraryExA       00000001800322d0     kernel32:KERNEL32.dll
 0002:000002d8       \177KERNEL32_NULL_THUNK_DATA 00000001800322d8     kernel32:KERNEL32.dll
 0002:000002e0       __imp_SHGetSpecialFolderPathA 00000001800322e0     shell32:SHELL32.dll
 0002:000002e8       \177SHELL32_NULL_THUNK_DATA 00000001800322e8     shell32:SHELL32.dll
 0002:000002f0       __guard_check_icall_fptr   00000001800322f0     LIBCMT:guard_support.obj
 0002:000002f8       __guard_dispatch_icall_fptr 00000001800322f8     LIBCMT:guard_support.obj
 0002:00000300       __xc_a                     0000000180032300     LIBCMT:initializers.obj
 0002:00000310       _register_lwip_image_      0000000180032310     init.obj
 0002:00000318       __xc_z                     0000000180032318     LIBCMT:initializers.obj
 0002:00000320       __xi_a                     0000000180032320     LIBCMT:initializers.obj
 0002:00000330       __acrt_stdio_initializer   0000000180032330     libucrt:stdio_initializer.obj
 0002:00000338       __acrt_multibyte_initializer 0000000180032338     libucrt:multibyte_initializer.obj
 0002:00000340       __acrt_tran_fma3_initializer 0000000180032340     libucrt:fma3_initializer.obj
 0002:00000348       __xi_z                     0000000180032348     LIBCMT:initializers.obj
 0002:00000350       __xl_a                     0000000180032350     LIBCMT:tlssup.obj
 0002:00000358       __xl_z                     0000000180032358     LIBCMT:tlssup.obj
 0002:00000360       __xp_a                     0000000180032360     LIBCMT:initializers.obj
 0002:00000368       __acrt_locale_terminator   0000000180032368     libucrt:locale_initializer.obj
 0002:00000370       __dcrt_console_output_terminator 0000000180032370     libucrt:console_output_initializer.obj
 0002:00000378       __acrt_stdio_terminator    0000000180032378     libucrt:stdio_initializer.obj
 0002:00000380       __xp_z                     0000000180032380     LIBCMT:initializers.obj
 0002:00000388       __xt_a                     0000000180032388     LIBCMT:initializers.obj
 0002:00000390       __xt_z                     0000000180032390     LIBCMT:initializers.obj
 0002:000003a0       __sz_node_exe              00000001800323a0     node:node.exe
 0002:000003b8       ??_7exception@std@@6B@     00000001800323b8     libcpmt:xthrow.obj
 0002:000003c8       ??_C@_0BC@EOODALEL@Unknown?5exception?$AA@ 00000001800323c8     libcpmt:xthrow.obj
 0002:000003e8       ??_7bad_alloc@std@@6B@     00000001800323e8     libcpmt:xthrow.obj
 0002:000003f8       ??_C@_0P@GHFPNOJB@bad?5allocation?$AA@ 00000001800323f8     libcpmt:xthrow.obj
 0002:00000410       ??_7logic_error@std@@6B@   0000000180032410     libcpmt:xthrow.obj
 0002:00000428       ??_7length_error@std@@6B@  0000000180032428     libcpmt:xthrow.obj
 0002:00000440       ??_7out_of_range@std@@6B@  0000000180032440     libcpmt:xthrow.obj
 0002:00000450       ??_C@_1BK@MGMFAEKH@?$AAk?$AAe?$AAr?$AAn?$AAe?$AAl?$AA3?$AA2?$AA?4?$AAd?$AAl?$AAl?$AA?$AA@ 0000000180032450     LIBCMT:thread_safe_statics.obj
 0002:00000470       ??_C@_0BM@HLJJNPAH@InitializeConditionVariable?$AA@ 0000000180032470     LIBCMT:thread_safe_statics.obj
 0002:00000490       ??_C@_0BJ@JEBJOJFJ@SleepConditionVariableCS?$AA@ 0000000180032490     LIBCMT:thread_safe_statics.obj
 0002:000004b0       ??_C@_0BJ@PGPPEPCC@WakeAllConditionVariable?$AA@ 00000001800324b0     LIBCMT:thread_safe_statics.obj
 0002:000004d8       ??_7type_info@@6B@         00000001800324d8     LIBCMT:std_type_info_static.obj
 0002:000004e0       _pDefaultRawDllMain        00000001800324e0     LIBCMT:dll_dllmain.obj
 0002:000004e0       _pRawDllMain               00000001800324e0     LIBCMT:dll_dllmain.obj
 0002:00000500       ??_7bad_array_new_length@std@@6B@ 0000000180032500     LIBCMT:throw_bad_alloc.obj
 0002:00000510       ??_C@_0BF@KINCDENJ@bad?5array?5new?5length?$AA@ 0000000180032510     LIBCMT:throw_bad_alloc.obj
 0002:00000528       _pDestructExceptionObject  0000000180032528     libvcruntime:frame.obj
 0002:00000538       ??_7bad_exception@std@@6B@ 0000000180032538     libvcruntime:frame.obj
 0002:00000548       ??_C@_0O@DPKOEFFH@bad?5exception?$AA@ 0000000180032548     libvcruntime:frame.obj
 0002:000005c0       ??_C@_1BC@DNHGCMLG@?$AAa?$AAd?$AAv?$AAa?$AAp?$AAi?$AA3?$AA2?$AA?$AA@ 00000001800325c0     libvcruntime:winapi_downlevel.obj
 0002:000005d8       ??_C@_1DM@KHCHBNEB@?$AAa?$AAp?$AAi?$AA?9?$AAm?$AAs?$AA?9?$AAw?$AAi?$AAn?$AA?9?$AAc?$AAo?$AAr?$AAe?$AA?9?$AAf?$AAi?$AAb?$AAe?$AAr?$AAs?$AA?9?$AAl?$AA1?$AA?9?$AA1?$AA?9?$AA1?$AA?$AA@ 00000001800325d8     libvcruntime:winapi_downlevel.obj
 0002:00000618       ??_C@_1DK@LPPGFMPP@?$AAa?$AAp?$AAi?$AA?9?$AAm?$AAs?$AA?9?$AAw?$AAi?$AAn?$AA?9?$AAc?$AAo?$AAr?$AAe?$AA?9?$AAs?$AAy?$AAn?$AAc?$AAh?$AA?9?$AAl?$AA1?$AA?9?$AA2?$AA?9?$AA0?$AA?$AA@ 0000000180032618     libvcruntime:winapi_downlevel.obj
 0002:00000658       ??_C@_1BC@GDMECMAK@?$AAk?$AAe?$AAr?$AAn?$AAe?$AAl?$AA3?$AA2?$AA?$AA@ 0000000180032658     libvcruntime:winapi_downlevel.obj
 0002:00000678       ??_C@_08KNHFBNJ@FlsAlloc?$AA@ 0000000180032678     libvcruntime:winapi_downlevel.obj
 0002:00000690       ??_C@_07PEJMOBNF@FlsFree?$AA@ 0000000180032690     libvcruntime:winapi_downlevel.obj
 0002:000006a0       ??_C@_0M@GDNOONDI@FlsGetValue?$AA@ 00000001800326a0     libvcruntime:winapi_downlevel.obj
 0002:000006b8       ??_C@_0M@JCPCPOEF@FlsSetValue?$AA@ 00000001800326b8     libvcruntime:winapi_downlevel.obj
 0002:000006d0       ??_C@_0BM@HCFOFFN@InitializeCriticalSectionEx?$AA@ 00000001800326d0     libvcruntime:winapi_downlevel.obj
 0002:00000ab0       ??_C@_08EHJDFFNH@__based?$CI?$AA@ 0000000180032ab0     libvcruntime:undname.obj
 0002:00000ac0       ??_C@_07KOLFKCDI@__cdecl?$AA@ 0000000180032ac0     libvcruntime:undname.obj
 0002:00000ac8       ??_C@_08GHMPAG@__pascal?$AA@ 0000000180032ac8     libvcruntime:undname.obj
 0002:00000ad8       ??_C@_09IFJBGAPI@__stdcall?$AA@ 0000000180032ad8     libvcruntime:undname.obj
 0002:00000ae8       ??_C@_0L@NPHFGOKO@__thiscall?$AA@ 0000000180032ae8     libvcruntime:undname.obj
 0002:00000af8       ??_C@_0L@JMKHOMEK@__fastcall?$AA@ 0000000180032af8     libvcruntime:undname.obj
 0002:00000b08       ??_C@_0N@BCKKPABJ@__vectorcall?$AA@ 0000000180032b08     libvcruntime:undname.obj
 0002:00000b18       ??_C@_09HIJEGCPM@__clrcall?$AA@ 0000000180032b18     libvcruntime:undname.obj
 0002:00000b24       ??_C@_06GHPCKEAG@__eabi?$AA@ 0000000180032b24     libvcruntime:undname.obj
 0002:00000b30       ??_C@_07JOMMBBKO@__ptr64?$AA@ 0000000180032b30     libvcruntime:undname.obj
 0002:00000b38       ??_C@_0L@PILCLIHE@__restrict?$AA@ 0000000180032b38     libvcruntime:undname.obj
 0002:00000b48       ??_C@_0M@GFIIJFMG@__unaligned?$AA@ 0000000180032b48     libvcruntime:undname.obj
 0002:00000b58       ??_C@_09DHDLOLLB@restrict?$CI?$AA@ 0000000180032b58     libvcruntime:undname.obj
 0002:00000b64       ??_C@_04NIHEBCM@?5new?$AA@ 0000000180032b64     libvcruntime:undname.obj
 0002:00000b70       ??_C@_07FPCDHGMM@?5delete?$AA@ 0000000180032b70     libvcruntime:undname.obj
 0002:00000b78       ??_C@_01NEMOKFLO@?$DN?$AA@ 0000000180032b78     libvcruntime:undname.obj
 0002:00000b7c       ??_C@_02GPIOPFAK@?$DO?$DO?$AA@ 0000000180032b7c     libvcruntime:undname.obj
 0002:00000b80       ??_C@_02FODMEDOG@?$DM?$DM?$AA@ 0000000180032b80     libvcruntime:undname.obj
 0002:00000b84       ??_C@_01DCLJPIOD@?$CB?$AA@ 0000000180032b84     libvcruntime:undname.obj
 0002:00000b88       ??_C@_02EGOFBIJA@?$DN?$DN?$AA@ 0000000180032b88     libvcruntime:undname.obj
 0002:00000b8c       ??_C@_02FDNJECIE@?$CB?$DN?$AA@ 0000000180032b8c     libvcruntime:undname.obj
 0002:00000b90       ??_C@_02GPECMEKF@?$FL?$FN?$AA@ 0000000180032b90     libvcruntime:undname.obj
 0002:00000b98       ??_C@_08LHJFAFGD@operator?$AA@ 0000000180032b98     libvcruntime:undname.obj
 0002:00000ba4       ??_C@_02HBOOOICD@?9?$DO?$AA@ 0000000180032ba4     libvcruntime:undname.obj
 0002:00000ba8       ??_C@_01NBENCBCI@?$CK?$AA@ 0000000180032ba8     libvcruntime:undname.obj
 0002:00000bac       ??_C@_02ECNGHCIF@?$CL?$CL?$AA@ 0000000180032bac     libvcruntime:undname.obj
 0002:00000bb0       ??_C@_02BAABKJLB@?9?9?$AA@ 0000000180032bb0     libvcruntime:undname.obj
 0002:00000bb4       ??_C@_01JOAMLHOP@?9?$AA@   0000000180032bb4     libvcruntime:undname.obj
 0002:00000bb8       ??_C@_01MIFGBAGJ@?$CL?$AA@ 0000000180032bb8     libvcruntime:undname.obj
 0002:00000bbc       ??_C@_01HNPIGOCE@?$CG?$AA@ 0000000180032bbc     libvcruntime:undname.obj
 0002:00000bc0       ??_C@_03MNHNFDLC@?9?$DO?$CK?$AA@ 0000000180032bc0     libvcruntime:undname.obj
 0002:00000bc4       ??_C@_01KMDKNFGN@?1?$AA@   0000000180032bc4     libvcruntime:undname.obj
 0002:00000bc8       ??_C@_01FGNFDNOH@?$CF?$AA@ 0000000180032bc8     libvcruntime:undname.obj
 0002:00000bcc       ??_C@_01MNNFJEPP@?$DM?$AA@ 0000000180032bcc     libvcruntime:undname.obj
 0002:00000bd0       ??_C@_02EHCHHCKH@?$DM?$DN?$AA@ 0000000180032bd0     libvcruntime:undname.obj
 0002:00000bd4       ??_C@_01PPODPGHN@?$DO?$AA@ 0000000180032bd4     libvcruntime:undname.obj
 0002:00000bd8       ??_C@_02EEKDKGMJ@?$DO?$DN?$AA@ 0000000180032bd8     libvcruntime:undname.obj
 0002:00000bdc       ??_C@_01IHBHIGKO@?0?$AA@   0000000180032bdc     libvcruntime:undname.obj
 0002:00000be0       ??_C@_02HCKGKOFO@?$CI?$CJ?$AA@ 0000000180032be0     libvcruntime:undname.obj
 0002:00000be4       ??_C@_01PJKLJHI@?$HO?$AA@  0000000180032be4     libvcruntime:undname.obj
 0002:00000be8       ??_C@_01JKBOJNNK@?$FO?$AA@ 0000000180032be8     libvcruntime:undname.obj
 0002:00000bec       ??_C@_01DNKMNLPK@?$HM?$AA@ 0000000180032bec     libvcruntime:undname.obj
 0002:00000bf0       ??_C@_02PPKAJPJL@?$CG?$CG?$AA@ 0000000180032bf0     libvcruntime:undname.obj
 0002:00000bf4       ??_C@_02NONPIBCD@?$HM?$HM?$AA@ 0000000180032bf4     libvcruntime:undname.obj
 0002:00000bf8       ??_C@_02FPIMKNGF@?$CK?$DN?$AA@ 0000000180032bf8     libvcruntime:undname.obj
 0002:00000bfc       ??_C@_02FOEOMHFC@?$CL?$DN?$AA@ 0000000180032bfc     libvcruntime:undname.obj
 0002:00000c00       ??_C@_02FKMDLLOA@?9?$DN?$AA@ 0000000180032c00     libvcruntime:undname.obj
 0002:00000c04       ??_C@_02FJEHGPIO@?1?$DN?$AA@ 0000000180032c04     libvcruntime:undname.obj
 0002:00000c08       ??_C@_02FENAOKFI@?$CF?$DN?$AA@ 0000000180032c08     libvcruntime:undname.obj
 0002:00000c0c       ??_C@_03IKFCCPFF@?$DO?$DO?$DN?$AA@ 0000000180032c0c     libvcruntime:undname.obj
 0002:00000c10       ??_C@_03CDNPDDLA@?$DM?$DM?$DN?$AA@ 0000000180032c10     libvcruntime:undname.obj
 0002:00000c14       ??_C@_02FGJGFEAB@?$CG?$DN?$AA@ 0000000180032c14     libvcruntime:undname.obj
 0002:00000c18       ??_C@_02DHLNPPGH@?$HM?$DN?$AA@ 0000000180032c18     libvcruntime:undname.obj
 0002:00000c1c       ??_C@_02MHEGNOJ@?$FO?$DN?$AA@ 0000000180032c1c     libvcruntime:undname.obj
 0002:00000c20       ??_C@_09IFPLHPGF@?$GAvftable?8?$AA@ 0000000180032c20     libvcruntime:undname.obj
 0002:00000c30       ??_C@_09BLBHBJP@?$GAvbtable?8?$AA@ 0000000180032c30     libvcruntime:undname.obj
 0002:00000c40       ??_C@_07FEEIOKP@?$GAvcall?8?$AA@ 0000000180032c40     libvcruntime:undname.obj
 0002:00000c48       ??_C@_08LLFFHHDJ@?$GAtypeof?8?$AA@ 0000000180032c48     libvcruntime:undname.obj
 0002:00000c58       ??_C@_0BF@KDPPACIK@?$GAlocal?5static?5guard?8?$AA@ 0000000180032c58     libvcruntime:undname.obj
 0002:00000c70       ??_C@_08OBABFOLI@?$GAstring?8?$AA@ 0000000180032c70     libvcruntime:undname.obj
 0002:00000c80       ??_C@_0BD@JDLKDPAB@?$GAvbase?5destructor?8?$AA@ 0000000180032c80     libvcruntime:undname.obj
 0002:00000c98       ??_C@_0BN@DEGPLNFK@?$GAvector?5deleting?5destructor?8?$AA@ 0000000180032c98     libvcruntime:undname.obj
 0002:00000cb8       ??_C@_0BO@OBMKPJIG@?$GAdefault?5constructor?5closure?8?$AA@ 0000000180032cb8     libvcruntime:undname.obj
 0002:00000cd8       ??_C@_0BN@IMDCHIKM@?$GAscalar?5deleting?5destructor?8?$AA@ 0000000180032cd8     libvcruntime:undname.obj
 0002:00000cf8       ??_C@_0BO@PFGOCPJJ@?$GAvector?5constructor?5iterator?8?$AA@ 0000000180032cf8     libvcruntime:undname.obj
 0002:00000d18       ??_C@_0BN@LFPFMEDL@?$GAvector?5destructor?5iterator?8?$AA@ 0000000180032d18     libvcruntime:undname.obj
 0002:00000d38       ??_C@_0CE@IKBNEHA@?$GAvector?5vbase?5constructor?5iterat@ 0000000180032d38     libvcruntime:undname.obj
 0002:00000d60       ??_C@_0BL@NILFHHPC@?$GAvirtual?5displacement?5map?8?$AA@ 0000000180032d60     libvcruntime:undname.obj
 0002:00000d80       ??_C@_0CB@JONCMFFK@?$GAeh?5vector?5constructor?5iterator?8@ 0000000180032d80     libvcruntime:undname.obj
 0002:00000da8       ??_C@_0CA@GCEOPDGL@?$GAeh?5vector?5destructor?5iterator?8?$AA@ 0000000180032da8     libvcruntime:undname.obj
 0002:00000dc8       ??_C@_0CH@OOJPLCPH@?$GAeh?5vector?5vbase?5constructor?5ite@ 0000000180032dc8     libvcruntime:undname.obj
 0002:00000df0       ??_C@_0BL@LLKPOHJI@?$GAcopy?5constructor?5closure?8?$AA@ 0000000180032df0     libvcruntime:undname.obj
 0002:00000e10       ??_C@_0BA@KBCDOMBN@?$GAudt?5returning?8?$AA@ 0000000180032e10     libvcruntime:undname.obj
 0002:00000e20       ??_C@_03KLGMFNMG@?$GAEH?$AA@ 0000000180032e20     libvcruntime:undname.obj
 0002:00000e24       ??_C@_05KHLCHHI@?$GARTTI?$AA@ 0000000180032e24     libvcruntime:undname.obj
 0002:00000e30       ??_C@_0BA@KKLDJDLB@?$GAlocal?5vftable?8?$AA@ 0000000180032e30     libvcruntime:undname.obj
 0002:00000e40       ??_C@_0CE@IIHCMGGL@?$GAlocal?5vftable?5constructor?5closu@ 0000000180032e40     libvcruntime:undname.obj
 0002:00000e64       ??_C@_06FHBGPFGH@?5new?$FL?$FN?$AA@ 0000000180032e64     libvcruntime:undname.obj
 0002:00000e70       ??_C@_09LBNFPBCA@?5delete?$FL?$FN?$AA@ 0000000180032e70     libvcruntime:undname.obj
 0002:00000e80       ??_C@_0P@HJKNJFNN@?$GAomni?5callsig?8?$AA@ 0000000180032e80     libvcruntime:undname.obj
 0002:00000e90       ??_C@_0BL@CNOONJFP@?$GAplacement?5delete?5closure?8?$AA@ 0000000180032e90     libvcruntime:undname.obj
 0002:00000eb0       ??_C@_0BN@CKNJLHMB@?$GAplacement?5delete?$FL?$FN?5closure?8?$AA@ 0000000180032eb0     libvcruntime:undname.obj
 0002:00000ed0       ??_C@_0CG@CFDHKGGD@?$GAmanaged?5vector?5constructor?5iter@ 0000000180032ed0     libvcruntime:undname.obj
 0002:00000ef8       ??_C@_0CF@IMGKMJNO@?$GAmanaged?5vector?5destructor?5itera@ 0000000180032ef8     libvcruntime:undname.obj
 0002:00000f20       ??_C@_0CG@HLDDJMAG@?$GAeh?5vector?5copy?5constructor?5iter@ 0000000180032f20     libvcruntime:undname.obj
 0002:00000f48       ??_C@_0CM@FCBBDIGB@?$GAeh?5vector?5vbase?5copy?5constructo@ 0000000180032f48     libvcruntime:undname.obj
 0002:00000f78       ??_C@_0BL@CLIPGLGB@?$GAdynamic?5initializer?5for?5?8?$AA@ 0000000180032f78     libvcruntime:undname.obj
 0002:00000f98       ??_C@_0CB@PDBIFEP@?$GAdynamic?5atexit?5destructor?5for?5?8@ 0000000180032f98     libvcruntime:undname.obj
 0002:00000fc0       ??_C@_0CD@CGAJBKEJ@?$GAvector?5copy?5constructor?5iterato@ 0000000180032fc0     libvcruntime:undname.obj
 0002:00000fe8       ??_C@_0CJ@GJELGAMM@?$GAvector?5vbase?5copy?5constructor?5i@ 0000000180032fe8     libvcruntime:undname.obj
 0002:00001018       ??_C@_0CL@FGIJHLCE@?$GAmanaged?5vector?5copy?5constructor@ 0000000180033018     libvcruntime:undname.obj
 0002:00001048       ??_C@_0BM@PMGGMLDN@?$GAlocal?5static?5thread?5guard?8?$AA@ 0000000180033048     libvcruntime:undname.obj
 0002:00001068       ??_C@_0N@BDNMDMOL@operator?5?$CC?$CC?5?$AA@ 0000000180033068     libvcruntime:undname.obj
 0002:00001078       ??_C@_0BC@DAFEJGAK@?5Type?5Descriptor?8?$AA@ 0000000180033078     libvcruntime:undname.obj
 0002:00001090       ??_C@_0BM@LDKODKLH@?5Base?5Class?5Descriptor?5at?5?$CI?$AA@ 0000000180033090     libvcruntime:undname.obj
 0002:000010b0       ??_C@_0BD@LGICGFMM@?5Base?5Class?5Array?8?$AA@ 00000001800330b0     libvcruntime:undname.obj
 0002:000010c8       ??_C@_0BN@MECKDCOJ@?5Class?5Hierarchy?5Descriptor?8?$AA@ 00000001800330c8     libvcruntime:undname.obj
 0002:000010e8       ??_C@_0BK@CFCOFLF@?5Complete?5Object?5Locator?8?$AA@ 00000001800330e8     libvcruntime:undname.obj
 0002:00001110       standard_lookup_table      0000000180033110     libucrt:output.obj
 0002:00001170       format_validation_lookup_table 0000000180033170     libucrt:output.obj
 0002:000011cc       ??_C@_06OJHGLDPL@?$CInull?$CJ?$AA@ 00000001800331cc     libucrt:output.obj
 0002:000011d8       ??_C@_1O@CEDCILHN@?$AA?$CI?$AAn?$AAu?$AAl?$AAl?$AA?$CJ?$AA?$AA@ 00000001800331d8     libucrt:output.obj
 0002:000011f0       ??_C@_1EK@MBDPDCGA@?$AAM?$AAi?$AAc?$AAr?$AAo?$AAs?$AAo?$AAf?$AAt?$AA?5?$AAV?$AAi?$AAs?$AAu?$AAa?$AAl?$AA?5?$AAC?$AA?$CL?$AA?$CL?$AA?5?$AAR?$AAu?$AAn?$AAt?$AAi?$AAm?$AAe?$AA?5?$AAL?$AAi?$AAb@ 00000001800331f0     libucrt:assert.obj
 0002:00001240       ??_C@_1FE@LHBLIKM@?$AAA?$AAs?$AAs?$AAe?$AAr?$AAt?$AAi?$AAo?$AAn?$AA?5?$AAf?$AAa?$AAi?$AAl?$AAe?$AAd?$AA?3?$AA?5?$AA?$CF?$AAT?$AAs?$AA?0?$AA?5?$AAf?$AAi?$AAl?$AAe?$AA?5?$AA?$CF?$AAT?$AAs?$AA?0@ 0000000180033240     libucrt:assert.obj
 0002:00001298       ??_C@_1CE@OJBNHDMO@?$AAA?$AAs?$AAs?$AAe?$AAr?$AAt?$AAi?$AAo?$AAn?$AA?5?$AAf?$AAa?$AAi?$AAl?$AAe?$AAd?$AA?$CB?$AA?$AA@ 0000000180033298     libucrt:assert.obj
 0002:000012c0       ??_C@_1BE@PHKBBGE@?$AAP?$AAr?$AAo?$AAg?$AAr?$AAa?$AAm?$AA?3?$AA?5?$AA?$AA@ 00000001800332c0     libucrt:assert.obj
 0002:000012d8       ??_C@_1O@HEMHKNDC@?$AAF?$AAi?$AAl?$AAe?$AA?3?$AA?5?$AA?$AA@ 00000001800332d8     libucrt:assert.obj
 0002:000012e8       ??_C@_1O@KCAFKHJE@?$AAL?$AAi?$AAn?$AAe?$AA?3?$AA?5?$AA?$AA@ 00000001800332e8     libucrt:assert.obj
 0002:000012f8       ??_C@_1BK@PEDCIPMA@?$AAE?$AAx?$AAp?$AAr?$AAe?$AAs?$AAs?$AAi?$AAo?$AAn?$AA?3?$AA?5?$AA?$AA@ 00000001800332f8     libucrt:assert.obj
 0002:00001320       ??_C@_1OA@EGMLFBHJ@?$AAF?$AAo?$AAr?$AA?5?$AAi?$AAn?$AAf?$AAo?$AAr?$AAm?$AAa?$AAt?$AAi?$AAo?$AAn?$AA?5?$AAo?$AAn?$AA?5?$AAh?$AAo?$AAw?$AA?5?$AAy?$AAo?$AAu?$AAr?$AA?5?$AAp?$AAr?$AAo?$AAg@ 0000000180033320     libucrt:assert.obj
 0002:00001400       ??_C@_1HK@POCJMFGK@?$AA?$CI?$AAP?$AAr?$AAe?$AAs?$AAs?$AA?5?$AAR?$AAe?$AAt?$AAr?$AAy?$AA?5?$AAt?$AAo?$AA?5?$AAd?$AAe?$AAb?$AAu?$AAg?$AA?5?$AAt?$AAh?$AAe?$AA?5?$AAa?$AAp?$AAp?$AAl?$AAi?$AAc@ 0000000180033400     libucrt:assert.obj
 0002:00001480       ??_C@_17LGKOMLJ@?$AA?4?$AA?4?$AA?4?$AA?$AA@ 0000000180033480     libucrt:assert.obj
 0002:00001488       ??_C@_13LBAGMAIH@?$AA?6?$AA?$AA@ 0000000180033488     libucrt:assert.obj
 0002:0000148c       ??_C@_15IABLJNFO@?$AA?6?$AA?6?$AA?$AA@ 000000018003348c     libucrt:assert.obj
 0002:00001498       ??_C@_1CO@EAEJAADC@?$AA?$DM?$AAp?$AAr?$AAo?$AAg?$AAr?$AAa?$AAm?$AA?5?$AAn?$AAa?$AAm?$AAe?$AA?5?$AAu?$AAn?$AAk?$AAn?$AAo?$AAw?$AAn?$AA?$DO?$AA?$AA@ 0000000180033498     libucrt:assert.obj
 0002:000014d0       __acrt_exception_action_table 00000001800334d0     libucrt:exception_filter.obj
 0002:00001590       __acrt_signal_action_table_count 0000000180033590     libucrt:exception_filter.obj
 0002:00001598       __acrt_signal_action_first_fpe_index 0000000180033598     libucrt:exception_filter.obj
 0002:000015a0       __acrt_signal_action_fpe_count 00000001800335a0     libucrt:exception_filter.obj
 0002:000015a8       ??_C@_1BI@BGOHAHKC@?$AAm?$AAs?$AAc?$AAo?$AAr?$AAe?$AAe?$AA?4?$AAd?$AAl?$AAl?$AA?$AA@ 00000001800335a8     libucrt:exit.obj
 0002:000015c0       ??_C@_0P@MIGLKIOC@CorExitProcess?$AA@ 00000001800335c0     libucrt:exit.obj
 0002:00001828       ?ccs@?BL@???$__acrt_stdio_parse_mode@D@@YA?AU__acrt_stdio_stream_mode@@QEBD@Z@4QBDB 0000000180033828     libucrt:openfile.obj
 0002:0000182c       ?utf8_encoding@?BL@???$__acrt_stdio_parse_mode@D@@YA?AU__acrt_stdio_stream_mode@@QEBD@Z@4QBDB 000000018003382c     libucrt:openfile.obj
 0002:00001838       ?utf16_encoding@?BL@???$__acrt_stdio_parse_mode@D@@YA?AU__acrt_stdio_stream_mode@@QEBD@Z@4QBDB 0000000180033838     libucrt:openfile.obj
 0002:00001840       ?unicode_encoding@?BL@???$__acrt_stdio_parse_mode@D@@YA?AU__acrt_stdio_stream_mode@@QEBD@Z@4QBDB 0000000180033840     libucrt:openfile.obj
 0002:000018f0       ??_C@_1EG@CNNIPFIM@?$AAa?$AAp?$AAi?$AA?9?$AAm?$AAs?$AA?9?$AAw?$AAi?$AAn?$AA?9?$AAa?$AAp?$AAp?$AAm?$AAo?$AAd?$AAe?$AAl?$AA?9?$AAr?$AAu?$AAn?$AAt?$AAi?$AAm?$AAe?$AA?9?$AAl?$AA1?$AA?9?$AA1@ 00000001800338f0     libucrt:winapi_thunks.obj
 0002:00001940       ??_C@_1EA@JGEFHKEI@?$AAa?$AAp?$AAi?$AA?9?$AAm?$AAs?$AA?9?$AAw?$AAi?$AAn?$AA?9?$AAc?$AAo?$AAr?$AAe?$AA?9?$AAd?$AAa?$AAt?$AAe?$AAt?$AAi?$AAm?$AAe?$AA?9?$AAl?$AA1?$AA?9?$AA1?$AA?9?$AA1?$AA?$AA@ 0000000180033940     libucrt:winapi_thunks.obj
 0002:00001980       ??_C@_1DI@GCIAAENM@?$AAa?$AAp?$AAi?$AA?9?$AAm?$AAs?$AA?9?$AAw?$AAi?$AAn?$AA?9?$AAc?$AAo?$AAr?$AAe?$AA?9?$AAf?$AAi?$AAl?$AAe?$AA?9?$AAl?$AA2?$AA?9?$AA1?$AA?9?$AA1?$AA?$AA@ 0000000180033980     libucrt:winapi_thunks.obj
 0002:000019c0       ??_C@_1EI@MPIAOHOC@?$AAa?$AAp?$AAi?$AA?9?$AAm?$AAs?$AA?9?$AAw?$AAi?$AAn?$AA?9?$AAc?$AAo?$AAr?$AAe?$AA?9?$AAl?$AAo?$AAc?$AAa?$AAl?$AAi?$AAz?$AAa?$AAt?$AAi?$AAo?$AAn?$AA?9?$AAl?$AA1?$AA?9@ 00000001800339c0     libucrt:winapi_thunks.obj
 0002:00001a10       ??_C@_1FK@FPHCKFIE@?$AAa?$AAp?$AAi?$AA?9?$AAm?$AAs?$AA?9?$AAw?$AAi?$AAn?$AA?9?$AAc?$AAo?$AAr?$AAe?$AA?9?$AAl?$AAo?$AAc?$AAa?$AAl?$AAi?$AAz?$AAa?$AAt?$AAi?$AAo?$AAn?$AA?9?$AAo?$AAb?$AAs@ 0000000180033a10     libucrt:winapi_thunks.obj
 0002:00001a70       ??_C@_1EM@DILCGIIO@?$AAa?$AAp?$AAi?$AA?9?$AAm?$AAs?$AA?9?$AAw?$AAi?$AAn?$AA?9?$AAc?$AAo?$AAr?$AAe?$AA?9?$AAp?$AAr?$AAo?$AAc?$AAe?$AAs?$AAs?$AAt?$AAh?$AAr?$AAe?$AAa?$AAd?$AAs?$AA?9?$AAl@ 0000000180033a70     libucrt:winapi_thunks.obj
 0002:00001ac0       ??_C@_1DM@LNCGDDPN@?$AAa?$AAp?$AAi?$AA?9?$AAm?$AAs?$AA?9?$AAw?$AAi?$AAn?$AA?9?$AAc?$AAo?$AAr?$AAe?$AA?9?$AAs?$AAt?$AAr?$AAi?$AAn?$AAg?$AA?9?$AAl?$AA1?$AA?9?$AA1?$AA?9?$AA0?$AA?$AA@ 0000000180033ac0     libucrt:winapi_thunks.obj
 0002:00001b00       ??_C@_1DO@FPAPJEMD@?$AAa?$AAp?$AAi?$AA?9?$AAm?$AAs?$AA?9?$AAw?$AAi?$AAn?$AA?9?$AAc?$AAo?$AAr?$AAe?$AA?9?$AAs?$AAy?$AAs?$AAi?$AAn?$AAf?$AAo?$AA?9?$AAl?$AA1?$AA?9?$AA2?$AA?9?$AA1?$AA?$AA@ 0000000180033b00     libucrt:winapi_thunks.obj
 0002:00001b40       ??_C@_1DK@NDHNAHIO@?$AAa?$AAp?$AAi?$AA?9?$AAm?$AAs?$AA?9?$AAw?$AAi?$AAn?$AA?9?$AAc?$AAo?$AAr?$AAe?$AA?9?$AAw?$AAi?$AAn?$AAr?$AAt?$AA?9?$AAl?$AA1?$AA?9?$AA1?$AA?9?$AA0?$AA?$AA@ 0000000180033b40     libucrt:winapi_thunks.obj
 0002:00001b80       ??_C@_1DM@KGHDGBCM@?$AAa?$AAp?$AAi?$AA?9?$AAm?$AAs?$AA?9?$AAw?$AAi?$AAn?$AA?9?$AAc?$AAo?$AAr?$AAe?$AA?9?$AAx?$AAs?$AAt?$AAa?$AAt?$AAe?$AA?9?$AAl?$AA2?$AA?9?$AA1?$AA?9?$AA0?$AA?$AA@ 0000000180033b80     libucrt:winapi_thunks.obj
 0002:00001bc0       ??_C@_1EO@IJIOEFOH@?$AAa?$AAp?$AAi?$AA?9?$AAm?$AAs?$AA?9?$AAw?$AAi?$AAn?$AA?9?$AAr?$AAt?$AAc?$AAo?$AAr?$AAe?$AA?9?$AAn?$AAt?$AAu?$AAs?$AAe?$AAr?$AA?9?$AAw?$AAi?$AAn?$AAd?$AAo?$AAw?$AA?9@ 0000000180033bc0     libucrt:winapi_thunks.obj
 0002:00001c10       ??_C@_1FG@HHGEKANL@?$AAa?$AAp?$AAi?$AA?9?$AAm?$AAs?$AA?9?$AAw?$AAi?$AAn?$AA?9?$AAs?$AAe?$AAc?$AAu?$AAr?$AAi?$AAt?$AAy?$AA?9?$AAs?$AAy?$AAs?$AAt?$AAe?$AAm?$AAf?$AAu?$AAn?$AAc?$AAt?$AAi@ 0000000180033c10     libucrt:winapi_thunks.obj
 0002:00001c70       ??_C@_1FG@NCKKOLKO@?$AAe?$AAx?$AAt?$AA?9?$AAm?$AAs?$AA?9?$AAw?$AAi?$AAn?$AA?9?$AAk?$AAe?$AAr?$AAn?$AAe?$AAl?$AA3?$AA2?$AA?9?$AAp?$AAa?$AAc?$AAk?$AAa?$AAg?$AAe?$AA?9?$AAc?$AAu?$AAr?$AAr@ 0000000180033c70     libucrt:winapi_thunks.obj
 0002:00001cd0       ??_C@_1EG@DBIOJECG@?$AAe?$AAx?$AAt?$AA?9?$AAm?$AAs?$AA?9?$AAw?$AAi?$AAn?$AA?9?$AAn?$AAt?$AAu?$AAs?$AAe?$AAr?$AA?9?$AAd?$AAi?$AAa?$AAl?$AAo?$AAg?$AAb?$AAo?$AAx?$AA?9?$AAl?$AA1?$AA?9?$AA1@ 0000000180033cd0     libucrt:winapi_thunks.obj
 0002:00001d20       ??_C@_1EO@FIHMJCLF@?$AAe?$AAx?$AAt?$AA?9?$AAm?$AAs?$AA?9?$AAw?$AAi?$AAn?$AA?9?$AAn?$AAt?$AAu?$AAs?$AAe?$AAr?$AA?9?$AAw?$AAi?$AAn?$AAd?$AAo?$AAw?$AAs?$AAt?$AAa?$AAt?$AAi?$AAo?$AAn?$AA?9@ 0000000180033d20     libucrt:winapi_thunks.obj
 0002:00001d70       ??_C@_1O@BCCLBEOE@?$AAu?$AAs?$AAe?$AAr?$AA3?$AA2?$AA?$AA@ 0000000180033d70     libucrt:winapi_thunks.obj
 0002:00001d88       ??_C@_0BA@FHFNEAED@AreFileApisANSI?$AA@ 0000000180033d88     libucrt:winapi_thunks.obj
 0002:00001da0       ??_C@_0BA@IHGNDAEB@CompareStringEx?$AA@ 0000000180033da0     libucrt:winapi_thunks.obj
 0002:00001dd8       ??_C@_0BA@HNOPNCHB@GetActiveWindow?$AA@ 0000000180033dd8     libucrt:winapi_thunks.obj
 0002:00001df0       ??_C@_0BE@JOGNEJCI@GetCurrentPackageId?$AA@ 0000000180033df0     libucrt:winapi_thunks.obj
 0002:00001e10       ??_C@_0BD@HHGDFDBJ@GetLastActivePopup?$AA@ 0000000180033e10     libucrt:winapi_thunks.obj
 0002:00001e30       ??_C@_0BI@DFKBFLJE@GetProcessWindowStation?$AA@ 0000000180033e30     libucrt:winapi_thunks.obj
 0002:00001e50       ??_C@_0BK@DEKFELLI@GetUserObjectInformationW?$AA@ 0000000180033e50     libucrt:winapi_thunks.obj
 0002:00001e80       ??_C@_0O@KKBNKAPF@LCMapStringEx?$AA@ 0000000180033e80     libucrt:winapi_thunks.obj
 0002:00001e98       ??_C@_0BB@HBDEELFH@LocaleNameToLCID?$AA@ 0000000180033e98     libucrt:winapi_thunks.obj
 0002:00001eb8       ??_C@_0M@CHKKJDAI@MessageBoxA?$AA@ 0000000180033eb8     libucrt:winapi_thunks.obj
 0002:00001ed0       ??_C@_0M@DLDCCGNP@MessageBoxW?$AA@ 0000000180033ed0     libucrt:winapi_thunks.obj
 0002:00001edc       ??_C@_03OEIAHPBN@INF?$AA@  0000000180033edc     libucrt:cvt.obj
 0002:00001ee0       ??_C@_03OJHLLCGB@inf?$AA@  0000000180033ee0     libucrt:cvt.obj
 0002:00001ee4       ??_C@_03LKNCIKJB@NAN?$AA@  0000000180033ee4     libucrt:cvt.obj
 0002:00001ee8       ??_C@_03LHCJEHON@nan?$AA@  0000000180033ee8     libucrt:cvt.obj
 0002:00001ef0       ??_C@_09OFJJIMPC@NAN?$CISNAN?$CJ?$AA@ 0000000180033ef0     libucrt:cvt.obj
 0002:00001f00       ??_C@_09IPFBKMDL@nan?$CIsnan?$CJ?$AA@ 0000000180033f00     libucrt:cvt.obj
 0002:00001f10       ??_C@_08IKHNHAJ@NAN?$CIIND?$CJ?$AA@ 0000000180033f10     libucrt:cvt.obj
 0002:00001f20       ??_C@_08OFCDMILK@nan?$CIind?$CJ?$AA@ 0000000180033f20     libucrt:cvt.obj
 0002:00001f2c       ??_C@_05KLBDPFGC@e?$CL000?$AA@ 0000000180033f2c     libucrt:cvt.obj
 0002:00001f40       __lc_time_c                0000000180033f40     libucrt:nlsdata.obj
 0002:00002200       ??_C@_03KOEHGMDN@Sun?$AA@  0000000180034200     libucrt:nlsdata.obj
 0002:00002204       ??_C@_03PDAGKDH@Mon?$AA@   0000000180034204     libucrt:nlsdata.obj
 0002:00002208       ??_C@_03NAGEINEP@Tue?$AA@  0000000180034208     libucrt:nlsdata.obj
 0002:0000220c       ??_C@_03MHOMLAJA@Wed?$AA@  000000018003420c     libucrt:nlsdata.obj
 0002:00002210       ??_C@_03IOFIKPDN@Thu?$AA@  0000000180034210     libucrt:nlsdata.obj
 0002:00002214       ??_C@_03IDIOELNC@Fri?$AA@  0000000180034214     libucrt:nlsdata.obj
 0002:00002218       ??_C@_03FEFJNEK@Sat?$AA@   0000000180034218     libucrt:nlsdata.obj
 0002:0000221c       ??_C@_06OOPIFAJ@Sunday?$AA@ 000000018003421c     libucrt:nlsdata.obj
 0002:00002224       ??_C@_06JLEDEDGH@Monday?$AA@ 0000000180034224     libucrt:nlsdata.obj
 0002:00002230       ??_C@_07BAAGCFCM@Tuesday?$AA@ 0000000180034230     libucrt:nlsdata.obj
 0002:00002238       ??_C@_09DLIGFAKA@Wednesday?$AA@ 0000000180034238     libucrt:nlsdata.obj
 0002:00002248       ??_C@_08HACCIKIA@Thursday?$AA@ 0000000180034248     libucrt:nlsdata.obj
 0002:00002254       ??_C@_06JECMNKMI@Friday?$AA@ 0000000180034254     libucrt:nlsdata.obj
 0002:00002260       ??_C@_08INBOOONO@Saturday?$AA@ 0000000180034260     libucrt:nlsdata.obj
 0002:0000226c       ??_C@_03JIHJHPIE@Jan?$AA@  000000018003426c     libucrt:nlsdata.obj
 0002:00002270       ??_C@_03HJBDCHOM@Feb?$AA@  0000000180034270     libucrt:nlsdata.obj
 0002:00002274       ??_C@_03ODNJBKGA@Mar?$AA@  0000000180034274     libucrt:nlsdata.obj
 0002:00002278       ??_C@_03LEOLGMJP@Apr?$AA@  0000000180034278     libucrt:nlsdata.obj
 0002:0000227c       ??_C@_03CNMDKL@May?$AA@    000000018003427c     libucrt:nlsdata.obj
 0002:00002280       ??_C@_03IDFGHECI@Jun?$AA@  0000000180034280     libucrt:nlsdata.obj
 0002:00002284       ??_C@_03LBGABGKK@Jul?$AA@  0000000180034284     libucrt:nlsdata.obj
 0002:00002288       ??_C@_03IFJFEIGA@Aug?$AA@  0000000180034288     libucrt:nlsdata.obj
 0002:0000228c       ??_C@_03GGCAPAJC@Sep?$AA@  000000018003428c     libucrt:nlsdata.obj
 0002:00002290       ??_C@_03BMAOKBAD@Oct?$AA@  0000000180034290     libucrt:nlsdata.obj
 0002:00002294       ??_C@_03JPJOFNIA@Nov?$AA@  0000000180034294     libucrt:nlsdata.obj
 0002:00002298       ??_C@_03MKABNOCG@Dec?$AA@  0000000180034298     libucrt:nlsdata.obj
 0002:000022a0       ??_C@_07CGJPFGJA@January?$AA@ 00000001800342a0     libucrt:nlsdata.obj
 0002:000022a8       ??_C@_08GNJGEPFN@February?$AA@ 00000001800342a8     libucrt:nlsdata.obj
 0002:000022b4       ??_C@_05HPCKOFNC@March?$AA@ 00000001800342b4     libucrt:nlsdata.obj
 0002:000022bc       ??_C@_05DMJDNLEJ@April?$AA@ 00000001800342bc     libucrt:nlsdata.obj
 0002:000022c4       ??_C@_04CNLMGBGM@June?$AA@ 00000001800342c4     libucrt:nlsdata.obj
 0002:000022cc       ??_C@_04MIEPOIFP@July?$AA@ 00000001800342cc     libucrt:nlsdata.obj
 0002:000022d4       ??_C@_06LBBHFDDG@August?$AA@ 00000001800342d4     libucrt:nlsdata.obj
 0002:000022e0       ??_C@_09BHHEALKD@September?$AA@ 00000001800342e0     libucrt:nlsdata.obj
 0002:000022f0       ??_C@_07JJNFCEND@October?$AA@ 00000001800342f0     libucrt:nlsdata.obj
 0002:000022f8       ??_C@_08HCHEGEOA@November?$AA@ 00000001800342f8     libucrt:nlsdata.obj
 0002:00002308       ??_C@_08EDHMEBNP@December?$AA@ 0000000180034308     libucrt:nlsdata.obj
 0002:00002314       ??_C@_02DEDBPAFC@AM?$AA@   0000000180034314     libucrt:nlsdata.obj
 0002:00002318       ??_C@_02CJNFDJBF@PM?$AA@   0000000180034318     libucrt:nlsdata.obj
 0002:00002320       ??_C@_08BPBNCDIB@MM?1dd?1yy?$AA@ 0000000180034320     libucrt:nlsdata.obj
 0002:00002330       ??_C@_0BE@CKGJFCPC@dddd?0?5MMMM?5dd?0?5yyyy?$AA@ 0000000180034330     libucrt:nlsdata.obj
 0002:00002348       ??_C@_08JCCMCCIL@HH?3mm?3ss?$AA@ 0000000180034348     libucrt:nlsdata.obj
 0002:00002358       ??_C@_17MBGCMIPB@?$AAS?$AAu?$AAn?$AA?$AA@ 0000000180034358     libucrt:nlsdata.obj
 0002:00002360       ??_C@_17KBOMKBF@?$AAM?$AAo?$AAn?$AA?$AA@ 0000000180034360     libucrt:nlsdata.obj
 0002:00002368       ??_C@_17BMKGEGOJ@?$AAT?$AAu?$AAe?$AA?$AA@ 0000000180034368     libucrt:nlsdata.obj
 0002:00002370       ??_C@_17CJEDCEPE@?$AAW?$AAe?$AAd?$AA?$AA@ 0000000180034370     libucrt:nlsdata.obj
 0002:00002378       ??_C@_17PDPHAADD@?$AAT?$AAh?$AAu?$AA?$AA@ 0000000180034378     libucrt:nlsdata.obj
 0002:00002380       ??_C@_17HFOLPPLP@?$AAF?$AAr?$AAi?$AA?$AA@ 0000000180034380     libucrt:nlsdata.obj
 0002:00002388       ??_C@_17GGIBDPIH@?$AAS?$AAa?$AAt?$AA?$AA@ 0000000180034388     libucrt:nlsdata.obj
 0002:00002390       ??_C@_1O@IHNHDHPB@?$AAS?$AAu?$AAn?$AAd?$AAa?$AAy?$AA?$AA@ 0000000180034390     libucrt:nlsdata.obj
 0002:000023a0       ??_C@_1O@MMNBFLIA@?$AAM?$AAo?$AAn?$AAd?$AAa?$AAy?$AA?$AA@ 00000001800343a0     libucrt:nlsdata.obj
 0002:000023b0       ??_C@_1BA@ENFBFFEK@?$AAT?$AAu?$AAe?$AAs?$AAd?$AAa?$AAy?$AA?$AA@ 00000001800343b0     libucrt:nlsdata.obj
 0002:000023c0       ??_C@_1BE@EBOGMDOH@?$AAW?$AAe?$AAd?$AAn?$AAe?$AAs?$AAd?$AAa?$AAy?$AA?$AA@ 00000001800343c0     libucrt:nlsdata.obj
 0002:000023d8       ??_C@_1BC@HHMNLIHE@?$AAT?$AAh?$AAu?$AAr?$AAs?$AAd?$AAa?$AAy?$AA?$AA@ 00000001800343d8     libucrt:nlsdata.obj
 0002:000023f0       ??_C@_1O@PDICJHAG@?$AAF?$AAr?$AAi?$AAd?$AAa?$AAy?$AA?$AA@ 00000001800343f0     libucrt:nlsdata.obj
 0002:00002400       ??_C@_1BC@ENMNNPAJ@?$AAS?$AAa?$AAt?$AAu?$AAr?$AAd?$AAa?$AAy?$AA?$AA@ 0000000180034400     libucrt:nlsdata.obj
 0002:00002418       ??_C@_17DKNBKCHM@?$AAJ?$AAa?$AAn?$AA?$AA@ 0000000180034418     libucrt:nlsdata.obj
 0002:00002420       ??_C@_17LMDJEKJN@?$AAF?$AAe?$AAb?$AA?$AA@ 0000000180034420     libucrt:nlsdata.obj
 0002:00002428       ??_C@_17CKNLEDEC@?$AAM?$AAa?$AAr?$AA?$AA@ 0000000180034428     libucrt:nlsdata.obj
 0002:00002430       ??_C@_17LFPOIHDD@?$AAA?$AAp?$AAr?$AA?$AA@ 0000000180034430     libucrt:nlsdata.obj
 0002:00002438       ??_C@_17PNNKMEED@?$AAM?$AAa?$AAy?$AA?$AA@ 0000000180034438     libucrt:nlsdata.obj
 0002:00002440       ??_C@_17KCJGOCPB@?$AAJ?$AAu?$AAn?$AA?$AA@ 0000000180034440     libucrt:nlsdata.obj
 0002:00002448       ??_C@_17IJPCKHK@?$AAJ?$AAu?$AAl?$AA?$AA@ 0000000180034448     libucrt:nlsdata.obj
 0002:00002450       ??_C@_17ICPELBCN@?$AAA?$AAu?$AAg?$AA?$AA@ 0000000180034450     libucrt:nlsdata.obj
 0002:00002458       ??_C@_17HCHCOKMG@?$AAS?$AAe?$AAp?$AA?$AA@ 0000000180034458     libucrt:nlsdata.obj
 0002:00002460       ??_C@_17FNLKOI@?$AAO?$AAc?$AAt?$AA?$AA@ 0000000180034460     libucrt:nlsdata.obj
 0002:00002468       ??_C@_17BBDMLCIG@?$AAN?$AAo?$AAv?$AA?$AA@ 0000000180034468     libucrt:nlsdata.obj
 0002:00002470       ??_C@_17EGKACKIF@?$AAD?$AAe?$AAc?$AA?$AA@ 0000000180034470     libucrt:nlsdata.obj
 0002:00002478       ??_C@_1BA@EFMEIEBA@?$AAJ?$AAa?$AAn?$AAu?$AAa?$AAr?$AAy?$AA?$AA@ 0000000180034478     libucrt:nlsdata.obj
 0002:00002488       ??_C@_1BC@JGDDFFAM@?$AAF?$AAe?$AAb?$AAr?$AAu?$AAa?$AAr?$AAy?$AA?$AA@ 0000000180034488     libucrt:nlsdata.obj
 0002:000024a0       ??_C@_1M@IKEENEDF@?$AAM?$AAa?$AAr?$AAc?$AAh?$AA?$AA@ 00000001800344a0     libucrt:nlsdata.obj
 0002:000024b0       ??_C@_1M@GJNLMHFD@?$AAA?$AAp?$AAr?$AAi?$AAl?$AA?$AA@ 00000001800344b0     libucrt:nlsdata.obj
 0002:000024c0       ??_C@_19EPFLPGAP@?$AAJ?$AAu?$AAn?$AAe?$AA?$AA@ 00000001800344c0     libucrt:nlsdata.obj
 0002:000024d0       ??_C@_19BIFMLPCD@?$AAJ?$AAu?$AAl?$AAy?$AA?$AA@ 00000001800344d0     libucrt:nlsdata.obj
 0002:000024e0       ??_C@_1O@PAHLKOAC@?$AAA?$AAu?$AAg?$AAu?$AAs?$AAt?$AA?$AA@ 00000001800344e0     libucrt:nlsdata.obj
 0002:000024f0       ??_C@_1BE@DKAAMBJL@?$AAS?$AAe?$AAp?$AAt?$AAe?$AAm?$AAb?$AAe?$AAr?$AA?$AA@ 00000001800344f0     libucrt:nlsdata.obj
 0002:00002508       ??_C@_1BA@EPANDLNG@?$AAO?$AAc?$AAt?$AAo?$AAb?$AAe?$AAr?$AA?$AA@ 0000000180034508     libucrt:nlsdata.obj
 0002:00002518       ??_C@_1BC@BGLIFPF@?$AAN?$AAo?$AAv?$AAe?$AAm?$AAb?$AAe?$AAr?$AA?$AA@ 0000000180034518     libucrt:nlsdata.obj
 0002:00002530       ??_C@_1BC@FEMKIFH@?$AAD?$AAe?$AAc?$AAe?$AAm?$AAb?$AAe?$AAr?$AA?$AA@ 0000000180034530     libucrt:nlsdata.obj
 0002:00002544       ??_C@_15ODEHAHHF@?$AAA?$AAM?$AA?$AA@ 0000000180034544     libucrt:nlsdata.obj
 0002:0000254c       ??_C@_15CLMNNGEL@?$AAP?$AAM?$AA?$AA@ 000000018003454c     libucrt:nlsdata.obj
 0002:00002558       ??_C@_1BC@IEBCMHCM@?$AAM?$AAM?$AA?1?$AAd?$AAd?$AA?1?$AAy?$AAy?$AA?$AA@ 0000000180034558     libucrt:nlsdata.obj
 0002:00002570       ??_C@_1CI@KNAKOEBC@?$AAd?$AAd?$AAd?$AAd?$AA?0?$AA?5?$AAM?$AAM?$AAM?$AAM?$AA?5?$AAd?$AAd?$AA?0?$AA?5?$AAy?$AAy?$AAy?$AAy?$AA?$AA@ 0000000180034570     libucrt:nlsdata.obj
 0002:00002598       ??_C@_1BC@GDGBMEMK@?$AAH?$AAH?$AA?3?$AAm?$AAm?$AA?3?$AAs?$AAs?$AA?$AA@ 0000000180034598     libucrt:nlsdata.obj
 0002:000025b0       ??_C@_1M@BMHNFIME@?$AAe?$AAn?$AA?9?$AAU?$AAS?$AA?$AA@ 00000001800345b0     libucrt:nlsdata.obj
 0002:000025e0       ??_C@_1M@HPNHIDJI@?$AAj?$AAa?$AA?9?$AAJ?$AAP?$AA?$AA@ 00000001800345e0     libucrt:mbctype.obj
 0002:000025f0       ??_C@_1M@BIBDDEMK@?$AAz?$AAh?$AA?9?$AAC?$AAN?$AA?$AA@ 00000001800345f0     libucrt:mbctype.obj
 0002:00002600       ??_C@_1M@JLOOOEGK@?$AAk?$AAo?$AA?9?$AAK?$AAR?$AA?$AA@ 0000000180034600     libucrt:mbctype.obj
 0002:00002610       ??_C@_1M@CLNBBOPM@?$AAz?$AAh?$AA?9?$AAT?$AAW?$AA?$AA@ 0000000180034610     libucrt:mbctype.obj
 0002:00002620       __newctype                 0000000180034620     libucrt:ctype.obj
 0002:00002920       __newclmap                 0000000180034920     libucrt:ctype.obj
 0002:00002aa0       __newcumap                 0000000180034aa0     libucrt:ctype.obj
 0002:00002c20       _wctype                    0000000180034c20     libucrt:ctype.obj
 0002:00003c70       ??_C@_15EMKDOKLE@?$AAa?$AAr?$AA?$AA@ 0000000180035c70     libucrt:lcidtoname_downlevel.obj
 0002:00003c78       ??_C@_15KNPADPLH@?$AAb?$AAg?$AA?$AA@ 0000000180035c78     libucrt:lcidtoname_downlevel.obj
 0002:00003c80       ??_C@_15EDMHLDMO@?$AAc?$AAa?$AA?$AA@ 0000000180035c80     libucrt:lcidtoname_downlevel.obj
 0002:00003c88       ??_C@_1O@BPEAJADD@?$AAz?$AAh?$AA?9?$AAC?$AAH?$AAS?$AA?$AA@ 0000000180035c88     libucrt:lcidtoname_downlevel.obj
 0002:00003c98       ??_C@_15LJNHCMNK@?$AAc?$AAs?$AA?$AA@ 0000000180035c98     libucrt:lcidtoname_downlevel.obj
 0002:00003ca0       ??_C@_15FOMCIDHG@?$AAd?$AAa?$AA?$AA@ 0000000180035ca0     libucrt:lcidtoname_downlevel.obj
 0002:00003ca8       ??_C@_15NBKABECB@?$AAd?$AAe?$AA?$AA@ 0000000180035ca8     libucrt:lcidtoname_downlevel.obj
 0002:00003cb0       ??_C@_15GHPEIIAO@?$AAe?$AAl?$AA?$AA@ 0000000180035cb0     libucrt:lcidtoname_downlevel.obj
 0002:00003cb8       ??_C@_15MNPNEAIF@?$AAe?$AAn?$AA?$AA@ 0000000180035cb8     libucrt:lcidtoname_downlevel.obj
 0002:00003cc0       ??_C@_15GPIOMPMH@?$AAe?$AAs?$AA?$AA@ 0000000180035cc0     libucrt:lcidtoname_downlevel.obj
 0002:00003cc8       ??_C@_15NGLOAKJC@?$AAf?$AAi?$AA?$AA@ 0000000180035cc8     libucrt:lcidtoname_downlevel.obj
 0002:00003cd0       ??_C@_15FBKGNKAM@?$AAf?$AAr?$AA?$AA@ 0000000180035cd0     libucrt:lcidtoname_downlevel.obj
 0002:00003cd8       ??_C@_15KGGCNEFK@?$AAh?$AAe?$AA?$AA@ 0000000180035cd8     libucrt:lcidtoname_downlevel.obj
 0002:00003ce0       ??_C@_15PGHLIDMF@?$AAh?$AAu?$AA?$AA@ 0000000180035ce0     libucrt:lcidtoname_downlevel.obj
 0002:00003ce8       ??_C@_15BIEMAPLM@?$AAi?$AAs?$AA?$AA@ 0000000180035ce8     libucrt:lcidtoname_downlevel.obj
 0002:00003cf0       ??_C@_15IFJLDHAF@?$AAi?$AAt?$AA?$AA@ 0000000180035cf0     libucrt:lcidtoname_downlevel.obj
 0002:00003cf8       ??_C@_15GEMIOCAG@?$AAj?$AAa?$AA?$AA@ 0000000180035cf8     libucrt:lcidtoname_downlevel.obj
 0002:00003d00       ??_C@_15EPELEGJA@?$AAk?$AAo?$AA?$AA@ 0000000180035d00     libucrt:lcidtoname_downlevel.obj
 0002:00003d08       ??_C@_15NDDHIMN@?$AAn?$AAl?$AA?$AA@ 0000000180035d08     libucrt:lcidtoname_downlevel.obj
 0002:00003d10       ??_C@_15BPIGNHCD@?$AAn?$AAo?$AA?$AA@ 0000000180035d10     libucrt:lcidtoname_downlevel.obj
 0002:00003d18       ??_C@_15DEOPBLCG@?$AAp?$AAl?$AA?$AA@ 0000000180035d18     libucrt:lcidtoname_downlevel.obj
 0002:00003d20       ??_C@_15KBECGEFG@?$AAp?$AAt?$AA?$AA@ 0000000180035d20     libucrt:lcidtoname_downlevel.obj
 0002:00003d28       ??_C@_15GLJCBFMD@?$AAr?$AAo?$AA?$AA@ 0000000180035d28     libucrt:lcidtoname_downlevel.obj
 0002:00003d30       ??_C@_15FEDGKCDI@?$AAr?$AAu?$AA?$AA@ 0000000180035d30     libucrt:lcidtoname_downlevel.obj
 0002:00003d38       ??_C@_15GLKMLLHM@?$AAh?$AAr?$AA?$AA@ 0000000180035d38     libucrt:lcidtoname_downlevel.obj
 0002:00003d40       ??_C@_15CPKMFBDB@?$AAs?$AAk?$AA?$AA@ 0000000180035d40     libucrt:lcidtoname_downlevel.obj
 0002:00003d48       ??_C@_15BAAIOGMK@?$AAs?$AAq?$AA?$AA@ 0000000180035d48     libucrt:lcidtoname_downlevel.obj
 0002:00003d50       ??_C@_15INNPNOHD@?$AAs?$AAv?$AA?$AA@ 0000000180035d50     libucrt:lcidtoname_downlevel.obj
 0002:00003d58       ??_C@_15CABMMOGH@?$AAt?$AAh?$AA?$AA@ 0000000180035d58     libucrt:lcidtoname_downlevel.obj
 0002:00003d60       ??_C@_15BPLIHJJM@?$AAt?$AAr?$AA?$AA@ 0000000180035d60     libucrt:lcidtoname_downlevel.obj
 0002:00003d68       ??_C@_15NEOEKKDJ@?$AAu?$AAr?$AA?$AA@ 0000000180035d68     libucrt:lcidtoname_downlevel.obj
 0002:00003d70       ??_C@_15NFICGAJK@?$AAi?$AAd?$AA?$AA@ 0000000180035d70     libucrt:lcidtoname_downlevel.obj
 0002:00003d78       ??_C@_15PJPFLCCM@?$AAu?$AAk?$AA?$AA@ 0000000180035d78     libucrt:lcidtoname_downlevel.obj
 0002:00003d80       ??_C@_15HPJPHDM@?$AAb?$AAe?$AA?$AA@ 0000000180035d80     libucrt:lcidtoname_downlevel.obj
 0002:00003d88       ??_C@_15LCHLGJII@?$AAs?$AAl?$AA?$AA@ 0000000180035d88     libucrt:lcidtoname_downlevel.obj
 0002:00003d90       ??_C@_15PCFJPHHO@?$AAe?$AAt?$AA?$AA@ 0000000180035d90     libucrt:lcidtoname_downlevel.obj
 0002:00003d98       ??_C@_15HPFPGODN@?$AAl?$AAv?$AA?$AA@ 0000000180035d98     libucrt:lcidtoname_downlevel.obj
 0002:00003da0       ??_C@_15NFFGKGLG@?$AAl?$AAt?$AA?$AA@ 0000000180035da0     libucrt:lcidtoname_downlevel.obj
 0002:00003da8       ??_C@_15BDAKCCHN@?$AAf?$AAa?$AA?$AA@ 0000000180035da8     libucrt:lcidtoname_downlevel.obj
 0002:00003db0       ??_C@_15NFGIAIAJ@?$AAv?$AAi?$AA?$AA@ 0000000180035db0     libucrt:lcidtoname_downlevel.obj
 0002:00003db8       ??_C@_15LMKNDMHN@?$AAh?$AAy?$AA?$AA@ 0000000180035db8     libucrt:lcidtoname_downlevel.obj
 0002:00003dc0       ??_C@_15IJBHMCFL@?$AAa?$AAz?$AA?$AA@ 0000000180035dc0     libucrt:lcidtoname_downlevel.obj
 0002:00003dc8       ??_C@_15EKOFJABL@?$AAe?$AAu?$AA?$AA@ 0000000180035dc8     libucrt:lcidtoname_downlevel.obj
 0002:00003dd0       ??_C@_15BGHADCNK@?$AAm?$AAk?$AA?$AA@ 0000000180035dd0     libucrt:lcidtoname_downlevel.obj
 0002:00003dd8       ??_C@_15JDNICKHM@?$AAa?$AAf?$AA?$AA@ 0000000180035dd8     libucrt:lcidtoname_downlevel.obj
 0002:00003de0       ??_C@_15KPJEDBKD@?$AAk?$AAa?$AA?$AA@ 0000000180035de0     libucrt:lcidtoname_downlevel.obj
 0002:00003de8       ??_C@_15PDNFFFEO@?$AAf?$AAo?$AA?$AA@ 0000000180035de8     libucrt:lcidtoname_downlevel.obj
 0002:00003df0       ??_C@_15OMLEGLOC@?$AAh?$AAi?$AA?$AA@ 0000000180035df0     libucrt:lcidtoname_downlevel.obj
 0002:00003df8       ??_C@_15IDNNENKK@?$AAm?$AAs?$AA?$AA@ 0000000180035df8     libucrt:lcidtoname_downlevel.obj
 0002:00003e00       ??_C@_15MACJNBMH@?$AAk?$AAk?$AA?$AA@ 0000000180035e00     libucrt:lcidtoname_downlevel.obj
 0002:00003e08       ??_C@_15DKDJEOND@?$AAk?$AAy?$AA?$AA@ 0000000180035e08     libucrt:lcidtoname_downlevel.obj
 0002:00003e10       ??_C@_15DFGDLJBG@?$AAs?$AAw?$AA?$AA@ 0000000180035e10     libucrt:lcidtoname_downlevel.obj
 0002:00003e18       ??_C@_15BBFAICNG@?$AAu?$AAz?$AA?$AA@ 0000000180035e18     libucrt:lcidtoname_downlevel.obj
 0002:00003e20       ??_C@_15DKNDCGEA@?$AAt?$AAt?$AA?$AA@ 0000000180035e20     libucrt:lcidtoname_downlevel.obj
 0002:00003e28       ??_C@_15MGIFMDPL@?$AAp?$AAa?$AA?$AA@ 0000000180035e28     libucrt:lcidtoname_downlevel.obj
 0002:00003e30       ??_C@_15HCNDBBA@?$AAg?$AAu?$AA?$AA@ 0000000180035e30     libucrt:lcidtoname_downlevel.obj
 0002:00003e38       ??_C@_15FNBEIBON@?$AAt?$AAa?$AA?$AA@ 0000000180035e38     libucrt:lcidtoname_downlevel.obj
 0002:00003e40       ??_C@_15NCHGBGLK@?$AAt?$AAe?$AA?$AA@ 0000000180035e40     libucrt:lcidtoname_downlevel.obj
 0002:00003e48       ??_C@_15PHPHCBPF@?$AAk?$AAn?$AA?$AA@ 0000000180035e48     libucrt:lcidtoname_downlevel.obj
 0002:00003e50       ??_C@_15DLGBCKMP@?$AAm?$AAr?$AA?$AA@ 0000000180035e50     libucrt:lcidtoname_downlevel.obj
 0002:00003e58       ??_C@_15EABBLBFF@?$AAs?$AAa?$AA?$AA@ 0000000180035e58     libucrt:lcidtoname_downlevel.obj
 0002:00003e60       ??_C@_15CBKOMCOI@?$AAm?$AAn?$AA?$AA@ 0000000180035e60     libucrt:lcidtoname_downlevel.obj
 0002:00003e68       ??_C@_15CKDMCJAF@?$AAg?$AAl?$AA?$AA@ 0000000180035e68     libucrt:lcidtoname_downlevel.obj
 0002:00003e70       ??_C@_17CNJFBPG@?$AAk?$AAo?$AAk?$AA?$AA@ 0000000180035e70     libucrt:lcidtoname_downlevel.obj
 0002:00003e78       ??_C@_17FFBJICPL@?$AAs?$AAy?$AAr?$AA?$AA@ 0000000180035e78     libucrt:lcidtoname_downlevel.obj
 0002:00003e80       ??_C@_17KPNDCPAF@?$AAd?$AAi?$AAv?$AA?$AA@ 0000000180035e80     libucrt:lcidtoname_downlevel.obj
 0002:00003e88       ??_C@_11LOCGONAA@?$AA?$AA@ 0000000180035e88     libucrt:lcidtoname_downlevel.obj
 0002:00003e90       ??_C@_1M@OKAHONE@?$AAa?$AAr?$AA?9?$AAS?$AAA?$AA?$AA@ 0000000180035e90     libucrt:lcidtoname_downlevel.obj
 0002:00003ea0       ??_C@_1M@FFFIGIGK@?$AAb?$AAg?$AA?9?$AAB?$AAG?$AA?$AA@ 0000000180035ea0     libucrt:lcidtoname_downlevel.obj
 0002:00003eb0       ??_C@_1M@BJNKEDC@?$AAc?$AAa?$AA?9?$AAE?$AAS?$AA?$AA@ 0000000180035eb0     libucrt:lcidtoname_downlevel.obj
 0002:00003ec0       ??_C@_1M@IJJHFJHA@?$AAc?$AAs?$AA?9?$AAC?$AAZ?$AA?$AA@ 0000000180035ec0     libucrt:lcidtoname_downlevel.obj
 0002:00003ed0       ??_C@_1M@CLPEOBGI@?$AAd?$AAa?$AA?9?$AAD?$AAK?$AA?$AA@ 0000000180035ed0     libucrt:lcidtoname_downlevel.obj
 0002:00003ee0       ??_C@_1M@MCMADGCB@?$AAd?$AAe?$AA?9?$AAD?$AAE?$AA?$AA@ 0000000180035ee0     libucrt:lcidtoname_downlevel.obj
 0002:00003ef0       ??_C@_1M@OOCKEMAM@?$AAe?$AAl?$AA?9?$AAG?$AAR?$AA?$AA@ 0000000180035ef0     libucrt:lcidtoname_downlevel.obj
 0002:00003f00       ??_C@_1M@DDNJFGID@?$AAf?$AAi?$AA?9?$AAF?$AAI?$AA?$AA@ 0000000180035f00     libucrt:lcidtoname_downlevel.obj
 0002:00003f10       ??_C@_1M@GLIPPMAC@?$AAf?$AAr?$AA?9?$AAF?$AAR?$AA?$AA@ 0000000180035f10     libucrt:lcidtoname_downlevel.obj
 0002:00003f20       ??_C@_1M@GFMCHPE@?$AAh?$AAe?$AA?9?$AAI?$AAL?$AA?$AA@ 0000000180035f20     libucrt:lcidtoname_downlevel.obj
 0002:00003f30       ??_C@_1M@MHLPGNKM@?$AAh?$AAu?$AA?9?$AAH?$AAU?$AA?$AA@ 0000000180035f30     libucrt:lcidtoname_downlevel.obj
 0002:00003f40       ??_C@_1M@LPDDNNPN@?$AAi?$AAs?$AA?9?$AAI?$AAS?$AA?$AA@ 0000000180035f40     libucrt:lcidtoname_downlevel.obj
 0002:00003f50       ??_C@_1M@MADIPODN@?$AAi?$AAt?$AA?9?$AAI?$AAT?$AA?$AA@ 0000000180035f50     libucrt:lcidtoname_downlevel.obj
 0002:00003f60       ??_C@_1M@IHBJJGG@?$AAn?$AAl?$AA?9?$AAN?$AAL?$AA?$AA@ 0000000180035f60     libucrt:lcidtoname_downlevel.obj
 0002:00003f70       ??_C@_1M@EANAGDL@?$AAn?$AAb?$AA?9?$AAN?$AAO?$AA?$AA@ 0000000180035f70     libucrt:lcidtoname_downlevel.obj
 0002:00003f80       ??_C@_1M@NEIEMEGP@?$AAp?$AAl?$AA?9?$AAP?$AAL?$AA?$AA@ 0000000180035f80     libucrt:lcidtoname_downlevel.obj
 0002:00003f90       ??_C@_1M@BOCFIGEP@?$AAp?$AAt?$AA?9?$AAB?$AAR?$AA?$AA@ 0000000180035f90     libucrt:lcidtoname_downlevel.obj
 0002:00003fa0       ??_C@_1M@IMPFOPBG@?$AAr?$AAo?$AA?9?$AAR?$AAO?$AA?$AA@ 0000000180035fa0     libucrt:lcidtoname_downlevel.obj
 0002:00003fb0       ??_C@_1M@IDNNEJMM@?$AAr?$AAu?$AA?9?$AAR?$AAU?$AA?$AA@ 0000000180035fb0     libucrt:lcidtoname_downlevel.obj
 0002:00003fc0       ??_C@_1M@LILEEOGM@?$AAh?$AAr?$AA?9?$AAH?$AAR?$AA?$AA@ 0000000180035fc0     libucrt:lcidtoname_downlevel.obj
 0002:00003fd0       ??_C@_1M@FKIFEHPB@?$AAs?$AAk?$AA?9?$AAS?$AAK?$AA?$AA@ 0000000180035fd0     libucrt:lcidtoname_downlevel.obj
 0002:00003fe0       ??_C@_1M@LJMAMNPJ@?$AAs?$AAq?$AA?9?$AAA?$AAL?$AA?$AA@ 0000000180035fe0     libucrt:lcidtoname_downlevel.obj
 0002:00003ff0       ??_C@_1M@GIAKDKJK@?$AAs?$AAv?$AA?9?$AAS?$AAE?$AA?$AA@ 0000000180035ff0     libucrt:lcidtoname_downlevel.obj
 0002:00004000       ??_C@_1M@MKJKIKCL@?$AAt?$AAh?$AA?9?$AAT?$AAH?$AA?$AA@ 0000000180036000     libucrt:lcidtoname_downlevel.obj
 0002:00004010       ??_C@_1M@MFLCCMPB@?$AAt?$AAr?$AA?9?$AAT?$AAR?$AA?$AA@ 0000000180036010     libucrt:lcidtoname_downlevel.obj
 0002:00004020       ??_C@_1M@OIJHDKJN@?$AAu?$AAr?$AA?9?$AAP?$AAK?$AA?$AA@ 0000000180036020     libucrt:lcidtoname_downlevel.obj
 0002:00004030       ??_C@_1M@LHIPCIEK@?$AAi?$AAd?$AA?9?$AAI?$AAD?$AA?$AA@ 0000000180036030     libucrt:lcidtoname_downlevel.obj
 0002:00004040       ??_C@_1M@MFMOBGI@?$AAu?$AAk?$AA?9?$AAU?$AAA?$AA?$AA@ 0000000180036040     libucrt:lcidtoname_downlevel.obj
 0002:00004050       ??_C@_1M@OBGLJIPL@?$AAb?$AAe?$AA?9?$AAB?$AAY?$AA?$AA@ 0000000180036050     libucrt:lcidtoname_downlevel.obj
 0002:00004060       ??_C@_1M@BCFAJEAD@?$AAs?$AAl?$AA?9?$AAS?$AAI?$AA?$AA@ 0000000180036060     libucrt:lcidtoname_downlevel.obj
 0002:00004070       ??_C@_1M@FKFFEDDN@?$AAe?$AAt?$AA?9?$AAE?$AAE?$AA?$AA@ 0000000180036070     libucrt:lcidtoname_downlevel.obj
 0002:00004080       ??_C@_1M@KGKKAACI@?$AAl?$AAv?$AA?9?$AAL?$AAV?$AA?$AA@ 0000000180036080     libucrt:lcidtoname_downlevel.obj
 0002:00004090       ??_C@_1M@IFGBIJO@?$AAl?$AAt?$AA?9?$AAL?$AAT?$AA?$AA@ 0000000180036090     libucrt:lcidtoname_downlevel.obj
 0002:000040a0       ??_C@_1M@FGEAHEDM@?$AAf?$AAa?$AA?9?$AAI?$AAR?$AA?$AA@ 00000001800360a0     libucrt:lcidtoname_downlevel.obj
 0002:000040b0       ??_C@_1M@KBMAIBFN@?$AAv?$AAi?$AA?9?$AAV?$AAN?$AA?$AA@ 00000001800360b0     libucrt:lcidtoname_downlevel.obj
 0002:000040c0       ??_C@_1M@GPCBKDJK@?$AAh?$AAy?$AA?9?$AAA?$AAM?$AA?$AA@ 00000001800360c0     libucrt:lcidtoname_downlevel.obj
 0002:000040d0       ??_C@_1BG@BECMDDJB@?$AAa?$AAz?$AA?9?$AAA?$AAZ?$AA?9?$AAL?$AAa?$AAt?$AAn?$AA?$AA@ 00000001800360d0     libucrt:lcidtoname_downlevel.obj
 0002:000040e8       ??_C@_1M@MAOFCAEA@?$AAe?$AAu?$AA?9?$AAE?$AAS?$AA?$AA@ 00000001800360e8     libucrt:lcidtoname_downlevel.obj
 0002:000040f8       ??_C@_1M@IGHABKPI@?$AAm?$AAk?$AA?9?$AAM?$AAK?$AA?$AA@ 00000001800360f8     libucrt:lcidtoname_downlevel.obj
 0002:00004108       ??_C@_1M@IAIGNEJG@?$AAt?$AAn?$AA?9?$AAZ?$AAA?$AA?$AA@ 0000000180036108     libucrt:lcidtoname_downlevel.obj
 0002:00004118       ??_C@_1M@IIJCOJFA@?$AAx?$AAh?$AA?9?$AAZ?$AAA?$AA?$AA@ 0000000180036118     libucrt:lcidtoname_downlevel.obj
 0002:00004128       ??_C@_1M@LGPJHNJH@?$AAz?$AAu?$AA?9?$AAZ?$AAA?$AA?$AA@ 0000000180036128     libucrt:lcidtoname_downlevel.obj
 0002:00004138       ??_C@_1M@HOKAOIO@?$AAa?$AAf?$AA?9?$AAZ?$AAA?$AA?$AA@ 0000000180036138     libucrt:lcidtoname_downlevel.obj
 0002:00004148       ??_C@_1M@DPCLHLIE@?$AAk?$AAa?$AA?9?$AAG?$AAE?$AA?$AA@ 0000000180036148     libucrt:lcidtoname_downlevel.obj
 0002:00004158       ??_C@_1M@BLKMHJBI@?$AAf?$AAo?$AA?9?$AAF?$AAO?$AA?$AA@ 0000000180036158     libucrt:lcidtoname_downlevel.obj
 0002:00004168       ??_C@_1M@LGGJAPPB@?$AAh?$AAi?$AA?9?$AAI?$AAN?$AA?$AA@ 0000000180036168     libucrt:lcidtoname_downlevel.obj
 0002:00004178       ??_C@_1M@FIKPIHFE@?$AAm?$AAt?$AA?9?$AAM?$AAT?$AA?$AA@ 0000000180036178     libucrt:lcidtoname_downlevel.obj
 0002:00004188       ??_C@_1M@HEGGPBFA@?$AAs?$AAe?$AA?9?$AAN?$AAO?$AA?$AA@ 0000000180036188     libucrt:lcidtoname_downlevel.obj
 0002:00004198       ??_C@_1M@EIBJEEPA@?$AAm?$AAs?$AA?9?$AAM?$AAY?$AA?$AA@ 0000000180036198     libucrt:lcidtoname_downlevel.obj
 0002:000041a8       ??_C@_1M@FHLBGMPP@?$AAk?$AAk?$AA?9?$AAK?$AAZ?$AA?$AA@ 00000001800361a8     libucrt:lcidtoname_downlevel.obj
 0002:000041b8       ??_C@_1M@NGJJLCGI@?$AAk?$AAy?$AA?9?$AAK?$AAG?$AA?$AA@ 00000001800361b8     libucrt:lcidtoname_downlevel.obj
 0002:000041c8       ??_C@_1M@GIENNBFC@?$AAs?$AAw?$AA?9?$AAK?$AAE?$AA?$AA@ 00000001800361c8     libucrt:lcidtoname_downlevel.obj
 0002:000041d8       ??_C@_1BG@NDGMJIMJ@?$AAu?$AAz?$AA?9?$AAU?$AAZ?$AA?9?$AAL?$AAa?$AAt?$AAn?$AA?$AA@ 00000001800361d8     libucrt:lcidtoname_downlevel.obj
 0002:000041f0       ??_C@_1M@IDCCIHBC@?$AAt?$AAt?$AA?9?$AAR?$AAU?$AA?$AA@ 00000001800361f0     libucrt:lcidtoname_downlevel.obj
 0002:00004200       ??_C@_1M@LOICPMOJ@?$AAb?$AAn?$AA?9?$AAI?$AAN?$AA?$AA@ 0000000180036200     libucrt:lcidtoname_downlevel.obj
 0002:00004210       ??_C@_1M@KPKKNEAH@?$AAp?$AAa?$AA?9?$AAI?$AAN?$AA?$AA@ 0000000180036210     libucrt:lcidtoname_downlevel.obj
 0002:00004220       ??_C@_1M@PJGPPBOG@?$AAg?$AAu?$AA?9?$AAI?$AAN?$AA?$AA@ 0000000180036220     libucrt:lcidtoname_downlevel.obj
 0002:00004230       ??_C@_1M@KMKMOPHI@?$AAt?$AAa?$AA?9?$AAI?$AAN?$AA?$AA@ 0000000180036230     libucrt:lcidtoname_downlevel.obj
 0002:00004240       ??_C@_1M@KFEHEPAC@?$AAt?$AAe?$AA?9?$AAI?$AAN?$AA?$AA@ 0000000180036240     libucrt:lcidtoname_downlevel.obj
 0002:00004250       ??_C@_1M@CDCLMGHI@?$AAk?$AAn?$AA?9?$AAI?$AAN?$AA?$AA@ 0000000180036250     libucrt:lcidtoname_downlevel.obj
 0002:00004260       ??_C@_1M@MIODLDKF@?$AAm?$AAl?$AA?9?$AAI?$AAN?$AA?$AA@ 0000000180036260     libucrt:lcidtoname_downlevel.obj
 0002:00004270       ??_C@_1M@PBIEACPO@?$AAm?$AAr?$AA?9?$AAI?$AAN?$AA?$AA@ 0000000180036270     libucrt:lcidtoname_downlevel.obj
 0002:00004280       ??_C@_1M@NIDEAGPH@?$AAs?$AAa?$AA?9?$AAI?$AAN?$AA?$AA@ 0000000180036280     libucrt:lcidtoname_downlevel.obj
 0002:00004290       ??_C@_1M@FHIHCBIO@?$AAm?$AAn?$AA?9?$AAM?$AAN?$AA?$AA@ 0000000180036290     libucrt:lcidtoname_downlevel.obj
 0002:000042a0       ??_C@_1M@JAIJPENP@?$AAc?$AAy?$AA?9?$AAG?$AAB?$AA?$AA@ 00000001800362a0     libucrt:lcidtoname_downlevel.obj
 0002:000042b0       ??_C@_1M@PHGFBEPN@?$AAg?$AAl?$AA?9?$AAE?$AAS?$AA?$AA@ 00000001800362b0     libucrt:lcidtoname_downlevel.obj
 0002:000042c0       ??_C@_1O@KPIPDNCP@?$AAk?$AAo?$AAk?$AA?9?$AAI?$AAN?$AA?$AA@ 00000001800362c0     libucrt:lcidtoname_downlevel.obj
 0002:000042d0       ??_C@_1O@KNHJLDJA@?$AAs?$AAy?$AAr?$AA?9?$AAS?$AAY?$AA?$AA@ 00000001800362d0     libucrt:lcidtoname_downlevel.obj
 0002:000042e0       ??_C@_1O@MKEKBLAH@?$AAd?$AAi?$AAv?$AA?9?$AAM?$AAV?$AA?$AA@ 00000001800362e0     libucrt:lcidtoname_downlevel.obj
 0002:000042f0       ??_C@_1O@OHDCKDDF@?$AAq?$AAu?$AAz?$AA?9?$AAB?$AAO?$AA?$AA@ 00000001800362f0     libucrt:lcidtoname_downlevel.obj
 0002:00004300       ??_C@_1M@LEPJNLFD@?$AAn?$AAs?$AA?9?$AAZ?$AAA?$AA?$AA@ 0000000180036300     libucrt:lcidtoname_downlevel.obj
 0002:00004310       ??_C@_1M@OMLEIIJB@?$AAm?$AAi?$AA?9?$AAN?$AAZ?$AA?$AA@ 0000000180036310     libucrt:lcidtoname_downlevel.obj
 0002:00004320       ??_C@_1M@PMPEAILG@?$AAa?$AAr?$AA?9?$AAI?$AAQ?$AA?$AA@ 0000000180036320     libucrt:lcidtoname_downlevel.obj
 0002:00004330       ??_C@_1M@CNKPNOEE@?$AAd?$AAe?$AA?9?$AAC?$AAH?$AA?$AA@ 0000000180036330     libucrt:lcidtoname_downlevel.obj
 0002:00004340       ??_C@_1M@LKMGMLKO@?$AAe?$AAn?$AA?9?$AAG?$AAB?$AA?$AA@ 0000000180036340     libucrt:lcidtoname_downlevel.obj
 0002:00004350       ??_C@_1M@PGKJFFGL@?$AAe?$AAs?$AA?9?$AAM?$AAX?$AA?$AA@ 0000000180036350     libucrt:lcidtoname_downlevel.obj
 0002:00004360       ??_C@_1M@DNNANBDC@?$AAf?$AAr?$AA?9?$AAB?$AAE?$AA?$AA@ 0000000180036360     libucrt:lcidtoname_downlevel.obj
 0002:00004370       ??_C@_1M@HLGMDFHM@?$AAi?$AAt?$AA?9?$AAC?$AAH?$AA?$AA@ 0000000180036370     libucrt:lcidtoname_downlevel.obj
 0002:00004380       ??_C@_1M@CLLBGJH@?$AAn?$AAl?$AA?9?$AAB?$AAE?$AA?$AA@ 0000000180036380     libucrt:lcidtoname_downlevel.obj
 0002:00004390       ??_C@_1M@BODBOGLF@?$AAn?$AAn?$AA?9?$AAN?$AAO?$AA?$AA@ 0000000180036390     libucrt:lcidtoname_downlevel.obj
 0002:000043a0       ??_C@_1M@HFFAHKAD@?$AAp?$AAt?$AA?9?$AAP?$AAT?$AA?$AA@ 00000001800363a0     libucrt:lcidtoname_downlevel.obj
 0002:000043b0       ??_C@_1BG@LNOAKHIE@?$AAs?$AAr?$AA?9?$AAS?$AAP?$AA?9?$AAL?$AAa?$AAt?$AAn?$AA?$AA@ 00000001800363b0     libucrt:lcidtoname_downlevel.obj
 0002:000043c8       ??_C@_1M@HBMHBGAK@?$AAs?$AAv?$AA?9?$AAF?$AAI?$AA?$AA@ 00000001800363c8     libucrt:lcidtoname_downlevel.obj
 0002:000043d8       ??_C@_1BG@DGCJGJBE@?$AAa?$AAz?$AA?9?$AAA?$AAZ?$AA?9?$AAC?$AAy?$AAr?$AAl?$AA?$AA@ 00000001800363d8     libucrt:lcidtoname_downlevel.obj
 0002:000043f0       ??_C@_1M@KEJDAAHB@?$AAs?$AAe?$AA?9?$AAS?$AAE?$AA?$AA@ 00000001800363f0     libucrt:lcidtoname_downlevel.obj
 0002:00004400       ??_C@_1M@HEIBJJAD@?$AAm?$AAs?$AA?9?$AAB?$AAN?$AA?$AA@ 0000000180036400     libucrt:lcidtoname_downlevel.obj
 0002:00004410       ??_C@_1BG@PBGJMCEM@?$AAu?$AAz?$AA?9?$AAU?$AAZ?$AA?9?$AAC?$AAy?$AAr?$AAl?$AA?$AA@ 0000000180036410     libucrt:lcidtoname_downlevel.obj
 0002:00004428       ??_C@_1O@LAOBCMDF@?$AAq?$AAu?$AAz?$AA?9?$AAE?$AAC?$AA?$AA@ 0000000180036428     libucrt:lcidtoname_downlevel.obj
 0002:00004438       ??_C@_1M@POEEMAIO@?$AAa?$AAr?$AA?9?$AAE?$AAG?$AA?$AA@ 0000000180036438     libucrt:lcidtoname_downlevel.obj
 0002:00004448       ??_C@_1M@EFAKDEDL@?$AAz?$AAh?$AA?9?$AAH?$AAK?$AA?$AA@ 0000000180036448     libucrt:lcidtoname_downlevel.obj
 0002:00004458       ??_C@_1M@HKKIJHGI@?$AAd?$AAe?$AA?9?$AAA?$AAT?$AA?$AA@ 0000000180036458     libucrt:lcidtoname_downlevel.obj
 0002:00004468       ??_C@_1M@KBFBEHJF@?$AAe?$AAn?$AA?9?$AAA?$AAU?$AA?$AA@ 0000000180036468     libucrt:lcidtoname_downlevel.obj
 0002:00004478       ??_C@_1M@MNPLFAAH@?$AAe?$AAs?$AA?9?$AAE?$AAS?$AA?$AA@ 0000000180036478     libucrt:lcidtoname_downlevel.obj
 0002:00004488       ??_C@_1M@HJOOJFMA@?$AAf?$AAr?$AA?9?$AAC?$AAA?$AA?$AA@ 0000000180036488     libucrt:lcidtoname_downlevel.obj
 0002:00004498       ??_C@_1BG@JPOFPNAB@?$AAs?$AAr?$AA?9?$AAS?$AAP?$AA?9?$AAC?$AAy?$AAr?$AAl?$AA?$AA@ 0000000180036498     libucrt:lcidtoname_downlevel.obj
 0002:000044b0       ??_C@_1M@LNFOCMOB@?$AAs?$AAe?$AA?9?$AAF?$AAI?$AA?$AA@ 00000001800364b0     libucrt:lcidtoname_downlevel.obj
 0002:000044c0       ??_C@_1O@MGJBOAMB@?$AAq?$AAu?$AAz?$AA?9?$AAP?$AAE?$AA?$AA@ 00000001800364c0     libucrt:lcidtoname_downlevel.obj
 0002:000044d0       ??_C@_1M@GJINLBOK@?$AAa?$AAr?$AA?9?$AAL?$AAY?$AA?$AA@ 00000001800364d0     libucrt:lcidtoname_downlevel.obj
 0002:000044e0       ??_C@_1M@GGMNHJNL@?$AAz?$AAh?$AA?9?$AAS?$AAG?$AA?$AA@ 00000001800364e0     libucrt:lcidtoname_downlevel.obj
 0002:000044f0       ??_C@_1M@HOIKODND@?$AAd?$AAe?$AA?9?$AAL?$AAU?$AA?$AA@ 00000001800364f0     libucrt:lcidtoname_downlevel.obj
 0002:00004500       ??_C@_1M@DDOCCGFG@?$AAe?$AAn?$AA?9?$AAC?$AAA?$AA?$AA@ 0000000180036500     libucrt:lcidtoname_downlevel.obj
 0002:00004510       ??_C@_1M@BNOEMJLF@?$AAe?$AAs?$AA?9?$AAG?$AAT?$AA?$AA@ 0000000180036510     libucrt:lcidtoname_downlevel.obj
 0002:00004520       ??_C@_1M@EOGNKEK@?$AAf?$AAr?$AA?9?$AAC?$AAH?$AA?$AA@ 0000000180036520     libucrt:lcidtoname_downlevel.obj
 0002:00004530       ??_C@_1M@FLIDJFHL@?$AAh?$AAr?$AA?9?$AAB?$AAA?$AA?$AA@ 0000000180036530     libucrt:lcidtoname_downlevel.obj
 0002:00004540       ??_C@_1O@FMCELNAJ@?$AAs?$AAm?$AAj?$AA?9?$AAN?$AAO?$AA?$AA@ 0000000180036540     libucrt:lcidtoname_downlevel.obj
 0002:00004550       ??_C@_1M@JHGLJMGJ@?$AAa?$AAr?$AA?9?$AAD?$AAZ?$AA?$AA@ 0000000180036550     libucrt:lcidtoname_downlevel.obj
 0002:00004560       ??_C@_1M@JKKFDCNP@?$AAz?$AAh?$AA?9?$AAM?$AAO?$AA?$AA@ 0000000180036560     libucrt:lcidtoname_downlevel.obj
 0002:00004570       ??_C@_1M@GEEFALPE@?$AAd?$AAe?$AA?9?$AAL?$AAI?$AA?$AA@ 0000000180036570     libucrt:lcidtoname_downlevel.obj
 0002:00004580       ??_C@_1M@IGEOFBG@?$AAe?$AAn?$AA?9?$AAN?$AAZ?$AA?$AA@ 0000000180036580     libucrt:lcidtoname_downlevel.obj
 0002:00004590       ??_C@_1M@KDBONEHP@?$AAe?$AAs?$AA?9?$AAC?$AAR?$AA?$AA@ 0000000180036590     libucrt:lcidtoname_downlevel.obj
 0002:000045a0       ??_C@_1M@FHMDOHNN@?$AAf?$AAr?$AA?9?$AAL?$AAU?$AA?$AA@ 00000001800365a0     libucrt:lcidtoname_downlevel.obj
 0002:000045b0       ??_C@_1BG@NFKKMAFG@?$AAb?$AAs?$AA?9?$AAB?$AAA?$AA?9?$AAL?$AAa?$AAt?$AAn?$AA?$AA@ 00000001800365b0     libucrt:lcidtoname_downlevel.obj
 0002:000045c8       ??_C@_1O@IMNBEMCI@?$AAs?$AAm?$AAj?$AA?9?$AAS?$AAE?$AA?$AA@ 00000001800365c8     libucrt:lcidtoname_downlevel.obj
 0002:000045d8       ??_C@_1M@DHHMBNDP@?$AAa?$AAr?$AA?9?$AAM?$AAA?$AA?$AA@ 00000001800365d8     libucrt:lcidtoname_downlevel.obj
 0002:000045e8       ??_C@_1M@BNBLJCGH@?$AAe?$AAn?$AA?9?$AAI?$AAE?$AA?$AA@ 00000001800365e8     libucrt:lcidtoname_downlevel.obj
 0002:000045f8       ??_C@_1M@GEPAFMDL@?$AAe?$AAs?$AA?9?$AAP?$AAA?$AA?$AA@ 00000001800365f8     libucrt:lcidtoname_downlevel.obj
 0002:00004608       ??_C@_1M@OJONDMDL@?$AAf?$AAr?$AA?9?$AAM?$AAC?$AA?$AA@ 0000000180036608     libucrt:lcidtoname_downlevel.obj
 0002:00004618       ??_C@_1BG@OBCNFJB@?$AAs?$AAr?$AA?9?$AAB?$AAA?$AA?9?$AAL?$AAa?$AAt?$AAn?$AA?$AA@ 0000000180036618     libucrt:lcidtoname_downlevel.obj
 0002:00004630       ??_C@_1O@KEMEEGPO@?$AAs?$AAm?$AAa?$AA?9?$AAN?$AAO?$AA?$AA@ 0000000180036630     libucrt:lcidtoname_downlevel.obj
 0002:00004640       ??_C@_1M@ELMGFODK@?$AAa?$AAr?$AA?9?$AAT?$AAN?$AA?$AA@ 0000000180036640     libucrt:lcidtoname_downlevel.obj
 0002:00004650       ??_C@_1M@BHDLHFAF@?$AAe?$AAn?$AA?9?$AAZ?$AAA?$AA?$AA@ 0000000180036650     libucrt:lcidtoname_downlevel.obj
 0002:00004660       ??_C@_1M@BMGIGLIF@?$AAe?$AAs?$AA?9?$AAD?$AAO?$AA?$AA@ 0000000180036660     libucrt:lcidtoname_downlevel.obj
 0002:00004670       ??_C@_1BG@CMBHIPBE@?$AAs?$AAr?$AA?9?$AAB?$AAA?$AA?9?$AAC?$AAy?$AAr?$AAl?$AA?$AA@ 0000000180036670     libucrt:lcidtoname_downlevel.obj
 0002:00004688       ??_C@_1O@HEDBLHNP@?$AAs?$AAm?$AAa?$AA?9?$AAS?$AAE?$AA?$AA@ 0000000180036688     libucrt:lcidtoname_downlevel.obj
 0002:00004698       ??_C@_1M@DAGCADIM@?$AAa?$AAr?$AA?9?$AAO?$AAM?$AA?$AA@ 0000000180036698     libucrt:lcidtoname_downlevel.obj
 0002:000046a8       ??_C@_1M@FODLMICG@?$AAe?$AAn?$AA?9?$AAJ?$AAM?$AA?$AA@ 00000001800366a8     libucrt:lcidtoname_downlevel.obj
 0002:000046b8       ??_C@_1M@DNMLCIHB@?$AAe?$AAs?$AA?9?$AAV?$AAE?$AA?$AA@ 00000001800366b8     libucrt:lcidtoname_downlevel.obj
 0002:000046c8       ??_C@_1O@EOKHMKJK@?$AAs?$AAm?$AAs?$AA?9?$AAF?$AAI?$AA?$AA@ 00000001800366c8     libucrt:lcidtoname_downlevel.obj
 0002:000046d8       ??_C@_1M@CAFJMKOF@?$AAa?$AAr?$AA?9?$AAY?$AAE?$AA?$AA@ 00000001800366d8     libucrt:lcidtoname_downlevel.obj
 0002:000046e8       ??_C@_1M@CBFHIJLI@?$AAe?$AAn?$AA?9?$AAC?$AAB?$AA?$AA@ 00000001800366e8     libucrt:lcidtoname_downlevel.obj
 0002:000046f8       ??_C@_1M@BGNFLDN@?$AAe?$AAs?$AA?9?$AAC?$AAO?$AA?$AA@ 00000001800366f8     libucrt:lcidtoname_downlevel.obj
 0002:00004708       ??_C@_1O@JMPHMAMC@?$AAs?$AAm?$AAn?$AA?9?$AAF?$AAI?$AA?$AA@ 0000000180036708     libucrt:lcidtoname_downlevel.obj
 0002:00004718       ??_C@_1M@JLANABKE@?$AAa?$AAr?$AA?9?$AAS?$AAY?$AA?$AA@ 0000000180036718     libucrt:lcidtoname_downlevel.obj
 0002:00004728       ??_C@_1M@HPKGCFGN@?$AAe?$AAn?$AA?9?$AAB?$AAZ?$AA?$AA@ 0000000180036728     libucrt:lcidtoname_downlevel.obj
 0002:00004738       ??_C@_1M@OLJCMLGM@?$AAe?$AAs?$AA?9?$AAP?$AAE?$AA?$AA@ 0000000180036738     libucrt:lcidtoname_downlevel.obj
 0002:00004748       ??_C@_1M@MKKGFKLE@?$AAa?$AAr?$AA?9?$AAJ?$AAO?$AA?$AA@ 0000000180036748     libucrt:lcidtoname_downlevel.obj
 0002:00004758       ??_C@_1M@EKPGLDNI@?$AAe?$AAn?$AA?9?$AAT?$AAT?$AA?$AA@ 0000000180036758     libucrt:lcidtoname_downlevel.obj
 0002:00004768       ??_C@_1M@OONGHFHE@?$AAe?$AAs?$AA?9?$AAA?$AAR?$AA?$AA@ 0000000180036768     libucrt:lcidtoname_downlevel.obj
 0002:00004778       ??_C@_1M@OOJFGBHE@?$AAa?$AAr?$AA?9?$AAL?$AAB?$AA?$AA@ 0000000180036778     libucrt:lcidtoname_downlevel.obj
 0002:00004788       ??_C@_1M@GCEJHNEG@?$AAe?$AAn?$AA?9?$AAZ?$AAW?$AA?$AA@ 0000000180036788     libucrt:lcidtoname_downlevel.obj
 0002:00004798       ??_C@_1M@JNOCAHJI@?$AAe?$AAs?$AA?9?$AAE?$AAC?$AA?$AA@ 0000000180036798     libucrt:lcidtoname_downlevel.obj
 0002:000047a8       ??_C@_1M@JEFHPGGB@?$AAa?$AAr?$AA?9?$AAK?$AAW?$AA?$AA@ 00000001800367a8     libucrt:lcidtoname_downlevel.obj
 0002:000047b8       ??_C@_1M@MLKIBJOJ@?$AAe?$AAn?$AA?9?$AAP?$AAH?$AA?$AA@ 00000001800367b8     libucrt:lcidtoname_downlevel.obj
 0002:000047c8       ??_C@_1M@BDNIPEND@?$AAe?$AAs?$AA?9?$AAC?$AAL?$AA?$AA@ 00000001800367c8     libucrt:lcidtoname_downlevel.obj
 0002:000047d8       ??_C@_1M@MPNMEKBD@?$AAa?$AAr?$AA?9?$AAA?$AAE?$AA?$AA@ 00000001800367d8     libucrt:lcidtoname_downlevel.obj
 0002:000047e8       ??_C@_1M@KBJALCPI@?$AAe?$AAs?$AA?9?$AAU?$AAY?$AA?$AA@ 00000001800367e8     libucrt:lcidtoname_downlevel.obj
 0002:000047f8       ??_C@_1M@LLCCOAGA@?$AAa?$AAr?$AA?9?$AAB?$AAH?$AA?$AA@ 00000001800367f8     libucrt:lcidtoname_downlevel.obj
 0002:00004808       ??_C@_1M@PBFNCDEL@?$AAe?$AAs?$AA?9?$AAP?$AAY?$AA?$AA@ 0000000180036808     libucrt:lcidtoname_downlevel.obj
 0002:00004818       ??_C@_1M@EDGINPNP@?$AAa?$AAr?$AA?9?$AAQ?$AAA?$AA?$AA@ 0000000180036818     libucrt:lcidtoname_downlevel.obj
 0002:00004828       ??_C@_1M@MKDBIIJI@?$AAe?$AAs?$AA?9?$AAB?$AAO?$AA?$AA@ 0000000180036828     libucrt:lcidtoname_downlevel.obj
 0002:00004838       ??_C@_1M@CPKKEBLD@?$AAe?$AAs?$AA?9?$AAS?$AAV?$AA?$AA@ 0000000180036838     libucrt:lcidtoname_downlevel.obj
 0002:00004848       ??_C@_1M@NDBGMMJL@?$AAe?$AAs?$AA?9?$AAH?$AAN?$AA?$AA@ 0000000180036848     libucrt:lcidtoname_downlevel.obj
 0002:00004858       ??_C@_1M@JIJIBHDP@?$AAe?$AAs?$AA?9?$AAN?$AAI?$AA?$AA@ 0000000180036858     libucrt:lcidtoname_downlevel.obj
 0002:00004868       ??_C@_1M@CGFMKEEK@?$AAe?$AAs?$AA?9?$AAP?$AAR?$AA?$AA@ 0000000180036868     libucrt:lcidtoname_downlevel.obj
 0002:00004878       ??_C@_1O@ICJHKIIK@?$AAz?$AAh?$AA?9?$AAC?$AAH?$AAT?$AA?$AA@ 0000000180036878     libucrt:lcidtoname_downlevel.obj
 0002:00004888       ??_C@_15CLNEJCE@?$AAs?$AAr?$AA?$AA@ 0000000180036888     libucrt:lcidtoname_downlevel.obj
 0002:000056d0       ??_C@_1M@KAHEKEIG@?$AAa?$AAf?$AA?9?$AAz?$AAa?$AA?$AA@ 00000001800376d0     libucrt:lcidtoname_downlevel.obj
 0002:000056e0       ??_C@_1M@GIECOABL@?$AAa?$AAr?$AA?9?$AAa?$AAe?$AA?$AA@ 00000001800376e0     libucrt:lcidtoname_downlevel.obj
 0002:000056f0       ??_C@_1M@BMLMEKGI@?$AAa?$AAr?$AA?9?$AAb?$AAh?$AA?$AA@ 00000001800376f0     libucrt:lcidtoname_downlevel.obj
 0002:00005700       ??_C@_1M@DAPFDGGB@?$AAa?$AAr?$AA?9?$AAd?$AAz?$AA?$AA@ 0000000180037700     libucrt:lcidtoname_downlevel.obj
 0002:00005710       ??_C@_1M@FJNKGKIG@?$AAa?$AAr?$AA?9?$AAe?$AAg?$AA?$AA@ 0000000180037710     libucrt:lcidtoname_downlevel.obj
 0002:00005720       ??_C@_1M@FLGKKCLO@?$AAa?$AAr?$AA?9?$AAi?$AAq?$AA?$AA@ 0000000180037720     libucrt:lcidtoname_downlevel.obj
 0002:00005730       ??_C@_1M@GNDIPALM@?$AAa?$AAr?$AA?9?$AAj?$AAo?$AA?$AA@ 0000000180037730     libucrt:lcidtoname_downlevel.obj
 0002:00005740       ??_C@_1M@DDMJFMGJ@?$AAa?$AAr?$AA?9?$AAk?$AAw?$AA?$AA@ 0000000180037740     libucrt:lcidtoname_downlevel.obj
 0002:00005750       ??_C@_1M@EJALMLHM@?$AAa?$AAr?$AA?9?$AAl?$AAb?$AA?$AA@ 0000000180037750     libucrt:lcidtoname_downlevel.obj
 0002:00005760       ??_C@_1M@MOBDBLOC@?$AAa?$AAr?$AA?9?$AAl?$AAy?$AA?$AA@ 0000000180037760     libucrt:lcidtoname_downlevel.obj
 0002:00005770       ??_C@_1M@JAOCLHDH@?$AAa?$AAr?$AA?9?$AAm?$AAa?$AA?$AA@ 0000000180037770     libucrt:lcidtoname_downlevel.obj
 0002:00005780       ??_C@_1M@JHPMKJIE@?$AAa?$AAr?$AA?9?$AAo?$AAm?$AA?$AA@ 0000000180037780     libucrt:lcidtoname_downlevel.obj
 0002:00005790       ??_C@_1M@OEPGHFNH@?$AAa?$AAr?$AA?9?$AAq?$AAa?$AA?$AA@ 0000000180037790     libucrt:lcidtoname_downlevel.obj
 0002:000057a0       ??_C@_1M@KJDONENM@?$AAa?$AAr?$AA?9?$AAs?$AAa?$AA?$AA@ 00000001800377a0     libucrt:lcidtoname_downlevel.obj
 0002:000057b0       ??_C@_1M@DMJDKLKM@?$AAa?$AAr?$AA?9?$AAs?$AAy?$AA?$AA@ 00000001800377b0     libucrt:lcidtoname_downlevel.obj
 0002:000057c0       ??_C@_1M@OMFIPEDC@?$AAa?$AAr?$AA?9?$AAt?$AAn?$AA?$AA@ 00000001800377c0     libucrt:lcidtoname_downlevel.obj
 0002:000057d0       ??_C@_1M@IHMHGAON@?$AAa?$AAr?$AA?9?$AAy?$AAe?$AA?$AA@ 00000001800377d0     libucrt:lcidtoname_downlevel.obj
 0002:000057e0       ??_C@_1BG@KDCPGJGB@?$AAa?$AAz?$AA?9?$AAa?$AAz?$AA?9?$AAc?$AAy?$AAr?$AAl?$AA?$AA@ 00000001800377e0     libucrt:lcidtoname_downlevel.obj
 0002:000057f8       ??_C@_1BG@IBCKDDOE@?$AAa?$AAz?$AA?9?$AAa?$AAz?$AA?9?$AAl?$AAa?$AAt?$AAn?$AA?$AA@ 00000001800377f8     libucrt:lcidtoname_downlevel.obj
 0002:00005810       ??_C@_1M@EGPFDCPD@?$AAb?$AAe?$AA?9?$AAb?$AAy?$AA?$AA@ 0000000180037810     libucrt:lcidtoname_downlevel.obj
 0002:00005820       ??_C@_1M@PCMGMCGC@?$AAb?$AAg?$AA?9?$AAb?$AAg?$AA?$AA@ 0000000180037820     libucrt:lcidtoname_downlevel.obj
 0002:00005830       ??_C@_1M@BJBMFGOB@?$AAb?$AAn?$AA?9?$AAi?$AAn?$AA?$AA@ 0000000180037830     libucrt:lcidtoname_downlevel.obj
 0002:00005840       ??_C@_1BG@EAKMMACD@?$AAb?$AAs?$AA?9?$AAb?$AAa?$AA?9?$AAl?$AAa?$AAt?$AAn?$AA?$AA@ 0000000180037840     libucrt:lcidtoname_downlevel.obj
 0002:00005858       ??_C@_1M@KGADAODK@?$AAc?$AAa?$AA?9?$AAe?$AAs?$AA?$AA@ 0000000180037858     libucrt:lcidtoname_downlevel.obj
 0002:00005868       ??_C@_1M@COAJPDHI@?$AAc?$AAs?$AA?9?$AAc?$AAz?$AA?$AA@ 0000000180037868     libucrt:lcidtoname_downlevel.obj
 0002:00005878       ??_C@_1M@DHBHFONH@?$AAc?$AAy?$AA?9?$AAg?$AAb?$AA?$AA@ 0000000180037878     libucrt:lcidtoname_downlevel.obj
 0002:00005888       ??_C@_1M@IMGKELGA@?$AAd?$AAa?$AA?9?$AAd?$AAk?$AA?$AA@ 0000000180037888     libucrt:lcidtoname_downlevel.obj
 0002:00005898       ??_C@_1M@NNDGDNGA@?$AAd?$AAe?$AA?9?$AAa?$AAt?$AA?$AA@ 0000000180037898     libucrt:lcidtoname_downlevel.obj
 0002:000058a8       ??_C@_1M@IKDBHEEM@?$AAd?$AAe?$AA?9?$AAc?$AAh?$AA?$AA@ 00000001800378a8     libucrt:lcidtoname_downlevel.obj
 0002:000058b8       ??_C@_1M@GFFOJMCJ@?$AAd?$AAe?$AA?9?$AAd?$AAe?$AA?$AA@ 00000001800378b8     libucrt:lcidtoname_downlevel.obj
 0002:000058c8       ??_C@_1M@MDNLKBPM@?$AAd?$AAe?$AA?9?$AAl?$AAi?$AA?$AA@ 00000001800378c8     libucrt:lcidtoname_downlevel.obj
 0002:000058d8       ??_C@_1M@NJBEEJNL@?$AAd?$AAe?$AA?9?$AAl?$AAu?$AA?$AA@ 00000001800378d8     libucrt:lcidtoname_downlevel.obj
 0002:000058e8       ??_C@_1O@GNNELBAP@?$AAd?$AAi?$AAv?$AA?9?$AAm?$AAv?$AA?$AA@ 00000001800378e8     libucrt:lcidtoname_downlevel.obj
 0002:000058f8       ??_C@_1M@EJLEOGAE@?$AAe?$AAl?$AA?9?$AAg?$AAr?$AA?$AA@ 00000001800378f8     libucrt:lcidtoname_downlevel.obj
 0002:00005908       ??_C@_1M@GMPONJN@?$AAe?$AAn?$AA?9?$AAa?$AAu?$AA?$AA@ 0000000180037908     libucrt:lcidtoname_downlevel.obj
 0002:00005918       ??_C@_1M@NIDIIPGF@?$AAe?$AAn?$AA?9?$AAb?$AAz?$AA?$AA@ 0000000180037918     libucrt:lcidtoname_downlevel.obj
 0002:00005928       ??_C@_1M@JEHMIMFO@?$AAe?$AAn?$AA?9?$AAc?$AAa?$AA?$AA@ 0000000180037928     libucrt:lcidtoname_downlevel.obj
 0002:00005938       ??_C@_1M@IGMJCDLA@?$AAe?$AAn?$AA?9?$AAc?$AAb?$AA?$AA@ 0000000180037938     libucrt:lcidtoname_downlevel.obj
 0002:00005948       ??_C@_1M@BNFIGBKG@?$AAe?$AAn?$AA?9?$AAg?$AAb?$AA?$AA@ 0000000180037948     libucrt:lcidtoname_downlevel.obj
 0002:00005958       ??_C@_1M@LKIFDIGP@?$AAe?$AAn?$AA?9?$AAi?$AAe?$AA?$AA@ 0000000180037958     libucrt:lcidtoname_downlevel.obj
 0002:00005968       ??_C@_1M@PJKFGCCO@?$AAe?$AAn?$AA?9?$AAj?$AAm?$AA?$AA@ 0000000180037968     libucrt:lcidtoname_downlevel.obj
 0002:00005978       ??_C@_1M@KPPKEPBO@?$AAe?$AAn?$AA?9?$AAn?$AAz?$AA?$AA@ 0000000180037978     libucrt:lcidtoname_downlevel.obj
 0002:00005988       ??_C@_1M@GMDGLDOB@?$AAe?$AAn?$AA?9?$AAp?$AAh?$AA?$AA@ 0000000180037988     libucrt:lcidtoname_downlevel.obj
 0002:00005998       ??_C@_1M@ONGIBJNA@?$AAe?$AAn?$AA?9?$AAt?$AAt?$AA?$AA@ 0000000180037998     libucrt:lcidtoname_downlevel.obj
 0002:000059a8       ??_C@_1M@LLODPCMM@?$AAe?$AAn?$AA?9?$AAu?$AAs?$AA?$AA@ 00000001800379a8     libucrt:lcidtoname_downlevel.obj
 0002:000059b8       ??_C@_1M@LAKFNPAN@?$AAe?$AAn?$AA?9?$AAz?$AAa?$AA?$AA@ 00000001800379b8     libucrt:lcidtoname_downlevel.obj
 0002:000059c8       ??_C@_1M@MFNHNHEO@?$AAe?$AAn?$AA?9?$AAz?$AAw?$AA?$AA@ 00000001800379c8     libucrt:lcidtoname_downlevel.obj
 0002:000059d8       ??_C@_1M@EJEINPHM@?$AAe?$AAs?$AA?9?$AAa?$AAr?$AA?$AA@ 00000001800379d8     libucrt:lcidtoname_downlevel.obj
 0002:000059e8       ??_C@_1M@GNKPCCJA@?$AAe?$AAs?$AA?9?$AAb?$AAo?$AA?$AA@ 00000001800379e8     libucrt:lcidtoname_downlevel.obj
 0002:000059f8       ??_C@_1M@LEEGFONL@?$AAe?$AAs?$AA?9?$AAc?$AAl?$AA?$AA@ 00000001800379f8     libucrt:lcidtoname_downlevel.obj
 0002:00005a08       ??_C@_1M@KGPDPBDF@?$AAe?$AAs?$AA?9?$AAc?$AAo?$AA?$AA@ 0000000180037a08     libucrt:lcidtoname_downlevel.obj
 0002:00005a18       ??_C@_1M@EIAHOHH@?$AAe?$AAs?$AA?9?$AAc?$AAr?$AA?$AA@ 0000000180037a18     libucrt:lcidtoname_downlevel.obj
 0002:00005a28       ??_C@_1M@LLPGMBIN@?$AAe?$AAs?$AA?9?$AAd?$AAo?$AA?$AA@ 0000000180037a28     libucrt:lcidtoname_downlevel.obj
 0002:00005a38       ??_C@_1M@DKHMKNJA@?$AAe?$AAs?$AA?9?$AAe?$AAc?$AA?$AA@ 0000000180037a38     libucrt:lcidtoname_downlevel.obj
 0002:00005a48       ??_C@_1M@GKGFPKAP@?$AAe?$AAs?$AA?9?$AAe?$AAs?$AA?$AA@ 0000000180037a48     libucrt:lcidtoname_downlevel.obj
 0002:00005a58       ??_C@_1M@LKHKGDLN@?$AAe?$AAs?$AA?9?$AAg?$AAt?$AA?$AA@ 0000000180037a58     libucrt:lcidtoname_downlevel.obj
 0002:00005a68       ??_C@_1M@HEIIGGJD@?$AAe?$AAs?$AA?9?$AAh?$AAn?$AA?$AA@ 0000000180037a68     libucrt:lcidtoname_downlevel.obj
 0002:00005a78       ??_C@_1M@FBDHPPGD@?$AAe?$AAs?$AA?9?$AAm?$AAx?$AA?$AA@ 0000000180037a78     libucrt:lcidtoname_downlevel.obj
 0002:00005a88       ??_C@_1M@DPAGLNDH@?$AAe?$AAs?$AA?9?$AAn?$AAi?$AA?$AA@ 0000000180037a88     libucrt:lcidtoname_downlevel.obj
 0002:00005a98       ??_C@_1M@MDGOPGDD@?$AAe?$AAs?$AA?9?$AAp?$AAa?$AA?$AA@ 0000000180037a98     libucrt:lcidtoname_downlevel.obj
 0002:00005aa8       ??_C@_1M@EMAMGBGE@?$AAe?$AAs?$AA?9?$AAp?$AAe?$AA?$AA@ 0000000180037aa8     libucrt:lcidtoname_downlevel.obj
 0002:00005ab8       ??_C@_1M@IBMCAOEC@?$AAe?$AAs?$AA?9?$AAp?$AAr?$AA?$AA@ 0000000180037ab8     libucrt:lcidtoname_downlevel.obj
 0002:00005ac8       ??_C@_1M@FGMDIJED@?$AAe?$AAs?$AA?9?$AAp?$AAy?$AA?$AA@ 0000000180037ac8     libucrt:lcidtoname_downlevel.obj
 0002:00005ad8       ??_C@_1M@IIDEOLLL@?$AAe?$AAs?$AA?9?$AAs?$AAv?$AA?$AA@ 0000000180037ad8     libucrt:lcidtoname_downlevel.obj
 0002:00005ae8       ??_C@_1M@GAOBIPA@?$AAe?$AAs?$AA?9?$AAu?$AAy?$AA?$AA@ 0000000180037ae8     libucrt:lcidtoname_downlevel.obj
 0002:00005af8       ??_C@_1M@JKFFICHJ@?$AAe?$AAs?$AA?9?$AAv?$AAe?$AA?$AA@ 0000000180037af8     libucrt:lcidtoname_downlevel.obj
 0002:00005b08       ??_C@_1M@PNMLOJDF@?$AAe?$AAt?$AA?9?$AAe?$AAe?$AA?$AA@ 0000000180037b08     libucrt:lcidtoname_downlevel.obj
 0002:00005b18       ??_C@_1M@GHHLIKEI@?$AAe?$AAu?$AA?9?$AAe?$AAs?$AA?$AA@ 0000000180037b18     libucrt:lcidtoname_downlevel.obj
 0002:00005b28       ??_C@_1M@PBNONODE@?$AAf?$AAa?$AA?9?$AAi?$AAr?$AA?$AA@ 0000000180037b28     libucrt:lcidtoname_downlevel.obj
 0002:00005b38       ??_C@_1M@JEEHPMIL@?$AAf?$AAi?$AA?9?$AAf?$AAi?$AA?$AA@ 0000000180037b38     libucrt:lcidtoname_downlevel.obj
 0002:00005b48       ??_C@_1M@LMDCNDBA@?$AAf?$AAo?$AA?9?$AAf?$AAo?$AA?$AA@ 0000000180037b48     libucrt:lcidtoname_downlevel.obj
 0002:00005b58       ??_C@_1M@JKEOHLDK@?$AAf?$AAr?$AA?9?$AAb?$AAe?$AA?$AA@ 0000000180037b58     libucrt:lcidtoname_downlevel.obj
 0002:00005b68       ??_C@_1M@NOHADPMI@?$AAf?$AAr?$AA?9?$AAc?$AAa?$AA?$AA@ 0000000180037b68     libucrt:lcidtoname_downlevel.obj
 0002:00005b78       ??_C@_1M@KDHIHAEC@?$AAf?$AAr?$AA?9?$AAc?$AAh?$AA?$AA@ 0000000180037b78     libucrt:lcidtoname_downlevel.obj
 0002:00005b88       ??_C@_1M@MMBBFGAK@?$AAf?$AAr?$AA?9?$AAf?$AAr?$AA?$AA@ 0000000180037b88     libucrt:lcidtoname_downlevel.obj
 0002:00005b98       ??_C@_1M@PAFNENNF@?$AAf?$AAr?$AA?9?$AAl?$AAu?$AA?$AA@ 0000000180037b98     libucrt:lcidtoname_downlevel.obj
 0002:00005ba8       ??_C@_1M@EOHDJGDD@?$AAf?$AAr?$AA?9?$AAm?$AAc?$AA?$AA@ 0000000180037ba8     libucrt:lcidtoname_downlevel.obj
 0002:00005bb8       ??_C@_1M@FAPLLOPF@?$AAg?$AAl?$AA?9?$AAe?$AAs?$AA?$AA@ 0000000180037bb8     libucrt:lcidtoname_downlevel.obj
 0002:00005bc8       ??_C@_1M@FOPBFLOO@?$AAg?$AAu?$AA?9?$AAi?$AAn?$AA?$AA@ 0000000180037bc8     libucrt:lcidtoname_downlevel.obj
 0002:00005bd8       ??_C@_1M@KBMCINPM@?$AAh?$AAe?$AA?9?$AAi?$AAl?$AA?$AA@ 0000000180037bd8     libucrt:lcidtoname_downlevel.obj
 0002:00005be8       ??_C@_1M@BBPHKFPJ@?$AAh?$AAi?$AA?9?$AAi?$AAn?$AA?$AA@ 0000000180037be8     libucrt:lcidtoname_downlevel.obj
 0002:00005bf8       ??_C@_1M@PMBNDPHD@?$AAh?$AAr?$AA?9?$AAb?$AAa?$AA?$AA@ 0000000180037bf8     libucrt:lcidtoname_downlevel.obj
 0002:00005c08       ??_C@_1M@BPCKOEGE@?$AAh?$AAr?$AA?9?$AAh?$AAr?$AA?$AA@ 0000000180037c08     libucrt:lcidtoname_downlevel.obj
 0002:00005c18       ??_C@_1M@GACBMHKE@?$AAh?$AAu?$AA?9?$AAh?$AAu?$AA?$AA@ 0000000180037c18     libucrt:lcidtoname_downlevel.obj
 0002:00005c28       ??_C@_1M@MILPAJJC@?$AAh?$AAy?$AA?9?$AAa?$AAm?$AA?$AA@ 0000000180037c28     libucrt:lcidtoname_downlevel.obj
 0002:00005c38       ??_C@_1M@BABBICEC@?$AAi?$AAd?$AA?9?$AAi?$AAd?$AA?$AA@ 0000000180037c38     libucrt:lcidtoname_downlevel.obj
 0002:00005c48       ??_C@_1M@BIKNHHPF@?$AAi?$AAs?$AA?9?$AAi?$AAs?$AA?$AA@ 0000000180037c48     libucrt:lcidtoname_downlevel.obj
 0002:00005c58       ??_C@_1M@NMPCJPHE@?$AAi?$AAt?$AA?9?$AAc?$AAh?$AA?$AA@ 0000000180037c58     libucrt:lcidtoname_downlevel.obj
 0002:00005c68       ??_C@_1M@GHKGFEDF@?$AAi?$AAt?$AA?9?$AAi?$AAt?$AA?$AA@ 0000000180037c68     libucrt:lcidtoname_downlevel.obj
 0002:00005c78       ??_C@_1M@NIEJCJJA@?$AAj?$AAa?$AA?9?$AAj?$AAp?$AA?$AA@ 0000000180037c78     libucrt:lcidtoname_downlevel.obj
 0002:00005c88       ??_C@_1M@JILFNBIM@?$AAk?$AAa?$AA?9?$AAg?$AAe?$AA?$AA@ 0000000180037c88     libucrt:lcidtoname_downlevel.obj
 0002:00005c98       ??_C@_1M@PACPMGPH@?$AAk?$AAk?$AA?9?$AAk?$AAz?$AA?$AA@ 0000000180037c98     libucrt:lcidtoname_downlevel.obj
 0002:00005ca8       ??_C@_1M@IELFGMHA@?$AAk?$AAn?$AA?9?$AAi?$AAn?$AA?$AA@ 0000000180037ca8     libucrt:lcidtoname_downlevel.obj
 0002:00005cb8       ??_C@_1O@IBBJHCH@?$AAk?$AAo?$AAk?$AA?9?$AAi?$AAn?$AA?$AA@ 0000000180037cb8     libucrt:lcidtoname_downlevel.obj
 0002:00005cc8       ??_C@_1M@DMHAEOGC@?$AAk?$AAo?$AA?9?$AAk?$AAr?$AA?$AA@ 0000000180037cc8     libucrt:lcidtoname_downlevel.obj
 0002:00005cd8       ??_C@_1M@HBAHBIGA@?$AAk?$AAy?$AA?9?$AAk?$AAg?$AA?$AA@ 0000000180037cd8     libucrt:lcidtoname_downlevel.obj
 0002:00005ce8       ??_C@_1M@KPMILCJG@?$AAl?$AAt?$AA?9?$AAl?$AAt?$AA?$AA@ 0000000180037ce8     libucrt:lcidtoname_downlevel.obj
 0002:00005cf8       ??_C@_1M@BDEKKCA@?$AAl?$AAv?$AA?9?$AAl?$AAv?$AA?$AA@ 0000000180037cf8     libucrt:lcidtoname_downlevel.obj
 0002:00005d08       ??_C@_1M@ELCKCCJJ@?$AAm?$AAi?$AA?9?$AAn?$AAz?$AA?$AA@ 0000000180037d08     libucrt:lcidtoname_downlevel.obj
 0002:00005d18       ??_C@_1M@CBOOLAPA@?$AAm?$AAk?$AA?9?$AAm?$AAk?$AA?$AA@ 0000000180037d18     libucrt:lcidtoname_downlevel.obj
 0002:00005d28       ??_C@_1M@GPHNBJKN@?$AAm?$AAl?$AA?9?$AAi?$AAn?$AA?$AA@ 0000000180037d28     libucrt:lcidtoname_downlevel.obj
 0002:00005d38       ??_C@_1M@PABJILIG@?$AAm?$AAn?$AA?9?$AAm?$AAn?$AA?$AA@ 0000000180037d38     libucrt:lcidtoname_downlevel.obj
 0002:00005d48       ??_C@_1M@FGBKKIPG@?$AAm?$AAr?$AA?9?$AAi?$AAn?$AA?$AA@ 0000000180037d48     libucrt:lcidtoname_downlevel.obj
 0002:00005d58       ??_C@_1M@NDBPDDAL@?$AAm?$AAs?$AA?9?$AAb?$AAn?$AA?$AA@ 0000000180037d58     libucrt:lcidtoname_downlevel.obj
 0002:00005d68       ??_C@_1M@OPIHOOPI@?$AAm?$AAs?$AA?9?$AAm?$AAy?$AA?$AA@ 0000000180037d68     libucrt:lcidtoname_downlevel.obj
 0002:00005d78       ??_C@_1M@PPDBCNFM@?$AAm?$AAt?$AA?9?$AAm?$AAt?$AA?$AA@ 0000000180037d78     libucrt:lcidtoname_downlevel.obj
 0002:00005d88       ??_C@_1M@KDJDKMDD@?$AAn?$AAb?$AA?9?$AAn?$AAo?$AA?$AA@ 0000000180037d88     libucrt:lcidtoname_downlevel.obj
 0002:00005d98       ??_C@_1M@KFCFLMJP@?$AAn?$AAl?$AA?9?$AAb?$AAe?$AA?$AA@ 0000000180037d98     libucrt:lcidtoname_downlevel.obj
 0002:00005da8       ??_C@_1M@KPOPDDGO@?$AAn?$AAl?$AA?9?$AAn?$AAl?$AA?$AA@ 0000000180037da8     libucrt:lcidtoname_downlevel.obj
 0002:00005db8       ??_C@_1M@LJKPEMLN@?$AAn?$AAn?$AA?9?$AAn?$AAo?$AA?$AA@ 0000000180037db8     libucrt:lcidtoname_downlevel.obj
 0002:00005dc8       ??_C@_1M@BDGHHBFL@?$AAn?$AAs?$AA?9?$AAz?$AAa?$AA?$AA@ 0000000180037dc8     libucrt:lcidtoname_downlevel.obj
 0002:00005dd8       ??_C@_1M@IDEHOAP@?$AAp?$AAa?$AA?9?$AAi?$AAn?$AA?$AA@ 0000000180037dd8     libucrt:lcidtoname_downlevel.obj
 0002:00005de8       ??_C@_1M@HDBKGOGH@?$AAp?$AAl?$AA?9?$AAp?$AAl?$AA?$AA@ 0000000180037de8     libucrt:lcidtoname_downlevel.obj
 0002:00005df8       ??_C@_1M@LJLLCMEH@?$AAp?$AAt?$AA?9?$AAb?$AAr?$AA?$AA@ 0000000180037df8     libucrt:lcidtoname_downlevel.obj
 0002:00005e08       ??_C@_1M@NCMONAAL@?$AAp?$AAt?$AA?9?$AAp?$AAt?$AA?$AA@ 0000000180037e08     libucrt:lcidtoname_downlevel.obj
 0002:00005e18       ??_C@_1O@EAKMAJDN@?$AAq?$AAu?$AAz?$AA?9?$AAb?$AAo?$AA?$AA@ 0000000180037e18     libucrt:lcidtoname_downlevel.obj
 0002:00005e28       ??_C@_1O@BHHPIGDN@?$AAq?$AAu?$AAz?$AA?9?$AAe?$AAc?$AA?$AA@ 0000000180037e28     libucrt:lcidtoname_downlevel.obj
 0002:00005e38       ??_C@_1O@GBAPEKMJ@?$AAq?$AAu?$AAz?$AA?9?$AAp?$AAe?$AA?$AA@ 0000000180037e38     libucrt:lcidtoname_downlevel.obj
 0002:00005e48       ??_C@_1M@CLGLEFBO@?$AAr?$AAo?$AA?9?$AAr?$AAo?$AA?$AA@ 0000000180037e48     libucrt:lcidtoname_downlevel.obj
 0002:00005e58       ??_C@_1M@CEEDODME@?$AAr?$AAu?$AA?9?$AAr?$AAu?$AA?$AA@ 0000000180037e58     libucrt:lcidtoname_downlevel.obj
 0002:00005e68       ??_C@_1M@HPKKKMPP@?$AAs?$AAa?$AA?9?$AAi?$AAn?$AA?$AA@ 0000000180037e68     libucrt:lcidtoname_downlevel.obj
 0002:00005e78       ??_C@_1M@BKMAIGOJ@?$AAs?$AAe?$AA?9?$AAf?$AAi?$AA?$AA@ 0000000180037e78     libucrt:lcidtoname_downlevel.obj
 0002:00005e88       ??_C@_1M@NDPIFLFI@?$AAs?$AAe?$AA?9?$AAn?$AAo?$AA?$AA@ 0000000180037e88     libucrt:lcidtoname_downlevel.obj
 0002:00005e98       ??_C@_1M@DANKKHJ@?$AAs?$AAe?$AA?9?$AAs?$AAe?$AA?$AA@ 0000000180037e98     libucrt:lcidtoname_downlevel.obj
 0002:00005ea8       ??_C@_1M@PNBLONPJ@?$AAs?$AAk?$AA?9?$AAs?$AAk?$AA?$AA@ 0000000180037ea8     libucrt:lcidtoname_downlevel.obj
 0002:00005eb8       ??_C@_1M@LFMODOAL@?$AAs?$AAl?$AA?9?$AAs?$AAi?$AA?$AA@ 0000000180037eb8     libucrt:lcidtoname_downlevel.obj
 0002:00005ec8       ??_C@_1O@DFKOMPG@?$AAs?$AAm?$AAa?$AA?9?$AAn?$AAo?$AA?$AA@ 0000000180037ec8     libucrt:lcidtoname_downlevel.obj
 0002:00005ed8       ??_C@_1O@NDKPBNNH@?$AAs?$AAm?$AAa?$AA?9?$AAs?$AAe?$AA?$AA@ 0000000180037ed8     libucrt:lcidtoname_downlevel.obj
 0002:00005ee8       ??_C@_1O@PLLKBHAB@?$AAs?$AAm?$AAj?$AA?9?$AAn?$AAo?$AA?$AA@ 0000000180037ee8     libucrt:lcidtoname_downlevel.obj
 0002:00005ef8       ??_C@_1O@CLEPOGCA@?$AAs?$AAm?$AAj?$AA?9?$AAs?$AAe?$AA?$AA@ 0000000180037ef8     libucrt:lcidtoname_downlevel.obj
 0002:00005f08       ??_C@_1O@DLGJGKMK@?$AAs?$AAm?$AAn?$AA?9?$AAf?$AAi?$AA?$AA@ 0000000180037f08     libucrt:lcidtoname_downlevel.obj
 0002:00005f18       ??_C@_1O@OJDJGAJC@?$AAs?$AAm?$AAs?$AA?9?$AAf?$AAi?$AA?$AA@ 0000000180037f18     libucrt:lcidtoname_downlevel.obj
 0002:00005f28       ??_C@_1M@BOFOGHPB@?$AAs?$AAq?$AA?9?$AAa?$AAl?$AA?$AA@ 0000000180037f28     libucrt:lcidtoname_downlevel.obj
 0002:00005f38       ??_C@_1BG@LJBBIPGB@?$AAs?$AAr?$AA?9?$AAb?$AAa?$AA?9?$AAc?$AAy?$AAr?$AAl?$AA?$AA@ 0000000180037f38     libucrt:lcidtoname_downlevel.obj
 0002:00005f50       ??_C@_1BG@JLBENFOE@?$AAs?$AAr?$AA?9?$AAb?$AAa?$AA?9?$AAl?$AAa?$AAt?$AAn?$AA?$AA@ 0000000180037f50     libucrt:lcidtoname_downlevel.obj
 0002:00005f68       ??_C@_1BG@KODPNHE@?$AAs?$AAr?$AA?9?$AAs?$AAp?$AA?9?$AAc?$AAy?$AAr?$AAl?$AA?$AA@ 0000000180037f68     libucrt:lcidtoname_downlevel.obj
 0002:00005f80       ??_C@_1BG@CIOGKHPB@?$AAs?$AAr?$AA?9?$AAs?$AAp?$AA?9?$AAl?$AAa?$AAt?$AAn?$AA?$AA@ 0000000180037f80     libucrt:lcidtoname_downlevel.obj
 0002:00005f98       ??_C@_1M@NGFJLMAC@?$AAs?$AAv?$AA?9?$AAf?$AAi?$AA?$AA@ 0000000180037f98     libucrt:lcidtoname_downlevel.obj
 0002:00005fa8       ??_C@_1M@MPJEJAJC@?$AAs?$AAv?$AA?9?$AAs?$AAe?$AA?$AA@ 0000000180037fa8     libucrt:lcidtoname_downlevel.obj
 0002:00005fb8       ??_C@_1M@MPNDHLFK@?$AAs?$AAw?$AA?9?$AAk?$AAe?$AA?$AA@ 0000000180037fb8     libucrt:lcidtoname_downlevel.obj
 0002:00005fc8       ??_C@_1O@KOHBJJI@?$AAs?$AAy?$AAr?$AA?9?$AAs?$AAy?$AA?$AA@ 0000000180037fc8     libucrt:lcidtoname_downlevel.obj
 0002:00005fd8       ??_C@_1M@LDCEFHA@?$AAt?$AAa?$AA?9?$AAi?$AAn?$AA?$AA@ 0000000180037fd8     libucrt:lcidtoname_downlevel.obj
 0002:00005fe8       ??_C@_1M@CNJOFAK@?$AAt?$AAe?$AA?9?$AAi?$AAn?$AA?$AA@ 0000000180037fe8     libucrt:lcidtoname_downlevel.obj
 0002:00005ff8       ??_C@_1M@GNAECACD@?$AAt?$AAh?$AA?9?$AAt?$AAh?$AA?$AA@ 0000000180037ff8     libucrt:lcidtoname_downlevel.obj
 0002:00006008       ??_C@_1M@CHBIHOJO@?$AAt?$AAn?$AA?9?$AAz?$AAa?$AA?$AA@ 0000000180038008     libucrt:lcidtoname_downlevel.obj
 0002:00006018       ??_C@_1M@GCCMIGPJ@?$AAt?$AAr?$AA?9?$AAt?$AAr?$AA?$AA@ 0000000180038018     libucrt:lcidtoname_downlevel.obj
 0002:00006028       ??_C@_1M@CELMCNBK@?$AAt?$AAt?$AA?9?$AAr?$AAu?$AA?$AA@ 0000000180038028     libucrt:lcidtoname_downlevel.obj
 0002:00006038       ??_C@_1M@KLMCELGA@?$AAu?$AAk?$AA?9?$AAu?$AAa?$AA?$AA@ 0000000180038038     libucrt:lcidtoname_downlevel.obj
 0002:00006048       ??_C@_1M@EPAJJAJF@?$AAu?$AAr?$AA?9?$AAp?$AAk?$AA?$AA@ 0000000180038048     libucrt:lcidtoname_downlevel.obj
 0002:00006058       ??_C@_1BG@GEGPMCDJ@?$AAu?$AAz?$AA?9?$AAu?$AAz?$AA?9?$AAc?$AAy?$AAr?$AAl?$AA?$AA@ 0000000180038058     libucrt:lcidtoname_downlevel.obj
 0002:00006070       ??_C@_1BG@EGGKJILM@?$AAu?$AAz?$AA?9?$AAu?$AAz?$AA?9?$AAl?$AAa?$AAt?$AAn?$AA?$AA@ 0000000180038070     libucrt:lcidtoname_downlevel.obj
 0002:00006088       ??_C@_1M@GFOCLFF@?$AAv?$AAi?$AA?9?$AAv?$AAn?$AA?$AA@ 0000000180038088     libucrt:lcidtoname_downlevel.obj
 0002:00006098       ??_C@_1M@CPAMEDFI@?$AAx?$AAh?$AA?9?$AAz?$AAa?$AA?$AA@ 0000000180038098     libucrt:lcidtoname_downlevel.obj
 0002:000060a8       ??_C@_1O@EBKIFIGN@?$AAz?$AAh?$AA?9?$AAc?$AAh?$AAs?$AA?$AA@ 00000001800380a8     libucrt:lcidtoname_downlevel.obj
 0002:000060b8       ??_C@_1O@NMHPGANE@?$AAz?$AAh?$AA?9?$AAc?$AAh?$AAt?$AA?$AA@ 00000001800380b8     libucrt:lcidtoname_downlevel.obj
 0002:000060c8       ??_C@_1M@LPINJOMC@?$AAz?$AAh?$AA?9?$AAc?$AAn?$AA?$AA@ 00000001800380c8     libucrt:lcidtoname_downlevel.obj
 0002:000060d8       ??_C@_1M@OCJEJODD@?$AAz?$AAh?$AA?9?$AAh?$AAk?$AA?$AA@ 00000001800380d8     libucrt:lcidtoname_downlevel.obj
 0002:000060e8       ??_C@_1M@DNDLJINH@?$AAz?$AAh?$AA?9?$AAm?$AAo?$AA?$AA@ 00000001800380e8     libucrt:lcidtoname_downlevel.obj
 0002:000060f8       ??_C@_1M@MBFDNDND@?$AAz?$AAh?$AA?9?$AAs?$AAg?$AA?$AA@ 00000001800380f8     libucrt:lcidtoname_downlevel.obj
 0002:00006108       ??_C@_1M@IMEPLEPE@?$AAz?$AAh?$AA?9?$AAt?$AAw?$AA?$AA@ 0000000180038108     libucrt:lcidtoname_downlevel.obj
 0002:00006118       ??_C@_1M@BBGHNHJP@?$AAz?$AAu?$AA?9?$AAz?$AAa?$AA?$AA@ 0000000180038118     libucrt:lcidtoname_downlevel.obj
 0002:00006130       ?large_power_data@?1??multiply_by_power_of_ten@__crt_strtox@@YA_NAEAUbig_integer@2@I@Z@4QBIB 0000000180038130     libucrt:cfout.obj
 0002:00006a40       ?large_power_indices@?1??multiply_by_power_of_ten@__crt_strtox@@YA_NAEAUbig_integer@2@I@Z@4QBUunpack_index@?1??12@YA_N0I@Z@B 0000000180038a40     libucrt:cfout.obj
 0002:00006ad8       ?small_powers_of_ten@?6??multiply_by_power_of_ten@__crt_strtox@@YA_NAEAUbig_integer@2@I@Z@4QBIB 0000000180038ad8     libucrt:cfout.obj
 0002:00006afc       ??_C@_01GBGANLPD@0?$AA@    0000000180038afc     libucrt:cfout.obj
 0002:00006b00       ??_C@_05DNEBIAHO@1?$CDINF?$AA@ 0000000180038b00     libucrt:cfout.obj
 0002:00006b08       ??_C@_06IMKFLFPG@1?$CDQNAN?$AA@ 0000000180038b08     libucrt:cfout.obj
 0002:00006b10       ??_C@_06PGGFOGJG@1?$CDSNAN?$AA@ 0000000180038b10     libucrt:cfout.obj
 0002:00006b18       ??_C@_05PHHOCPM@1?$CDIND?$AA@ 0000000180038b18     libucrt:cfout.obj
 0002:00006d70       ??_C@_1BA@BALFACEM@?$AAC?$AAO?$AAN?$AAO?$AAU?$AAT?$AA$?$AA?$AA@ 0000000180038d70     libucrt:initcon.obj
 0002:00006d80       __log10_256_lead           0000000180038d80     libucrt:log10_256_lead_tail_table.obj
 0002:00007590       __log10_256_tail           0000000180039590     libucrt:log10_256_lead_tail_table.obj
 0002:00007da0       __log_F_inv_qword          0000000180039da0     libucrt:log_f_inv_qword_table.obj
 0002:000085b0       ??_C@_05HGHHAHAP@log10?$AA@ 000000018003a5b0     libucrt:log_special.obj
 0002:000085d0       ??_C@_03BLEJJJBH@sin?$AA@  000000018003a5d0     libucrt:fpexcept.obj
 0002:000085d4       ??_C@_03LALBNOCG@cos?$AA@  000000018003a5d4     libucrt:fpexcept.obj
 0002:000085d8       ??_C@_1BK@DBDEIDLH@?$AAK?$AAE?$AAR?$AAN?$AAE?$AAL?$AA3?$AA2?$AA?4?$AAD?$AAL?$AAL?$AA?$AA@ 000000018003a5d8     DelayImp:delayhlp.obj
 0002:000085f8       ??_C@_0BI@OMNLIJDB@AcquireSRWLockExclusive?$AA@ 000000018003a5f8     DelayImp:delayhlp.obj
 0002:00008610       ??_C@_0BI@HMIEPCNJ@ReleaseSRWLockExclusive?$AA@ 000000018003a610     DelayImp:delayhlp.obj
 0002:00008628       __pfnDliFailureHook2       000000018003a628     DelayImp:delayhk1.obj
 0002:00008630       _load_config_used          000000018003a630     LIBCMT:loadcfg.obj
 0002:000086c8       ??_C@_0BG@JLCLBMDJ@?4?4?2src?2image?2init?4cpp?$AA@ 000000018003a6c8     init.obj
 0002:000086e0       ??_C@_0L@MLPPNEHD@lwip_image?$AA@ 000000018003a6e0     init.obj
 0002:00017020       __pfnDliNotifyHook2        0000000180049020     win_delay_load_hook.obj
 0002:00017028       ??_C@_0BC@BDKFLDHL@unknown?5exception?$AA@ 0000000180049028     image.obj
 0002:0001703a       ??_C@_00CNPNBAHC@?$AA@     000000018004903a     image.obj
 0002:00017040       ??_C@_07CIFAGBMG@unknown?$AA@ 0000000180049040     image.obj
 0002:00017050       ??_C@_1JG@PEHBDOPE@?$AAC?$AA?3?$AA?2?$AAU?$AAs?$AAe?$AAr?$AAs?$AA?2?$AAV?$AAa?$AAl?$AAe?$AAr?$AAi?$AAy?$AAC?$AAh?$AAe?$AAr?$AAk?$AAe?$AAs?$AAo?$AAv?$AA?2?$AA?4?$AAn?$AAo?$AAd?$AAe?$AA?9@ 0000000180049050     image.obj
 0002:000170e8       ??_C@_1DG@OKCGPKIB@?$AAp?$AAe?$AAr?$AAs?$AAi?$AAs?$AAt?$AAe?$AAn?$AAt?$AA?$CI?$AA?$CJ?$AA?4?$AAI?$AAs?$AAN?$AAe?$AAa?$AAr?$AAD?$AAe?$AAa?$AAt?$AAh?$AA?$CI?$AA?$CJ?$AA?$AA@ 00000001800490e8     image.obj
 0002:00017120       ??_C@_1CO@EGNPJLKI@?$AAp?$AAe?$AAr?$AAs?$AAi?$AAs?$AAt?$AAe?$AAn?$AAt?$AA?$CI?$AA?$CJ?$AA?4?$AAI?$AAs?$AAE?$AAm?$AAp?$AAt?$AAy?$AA?$CI?$AA?$CJ?$AA?$AA@ 0000000180049120     image.obj
 0002:00017150       ??_C@_1EC@NOLNIHNJ@?$AAh?$AAa?$AAn?$AAd?$AAl?$AAe?$AA?9?$AA?$DO?$AAI?$AAn?$AAt?$AAe?$AAr?$AAn?$AAa?$AAl?$AAF?$AAi?$AAe?$AAl?$AAd?$AAC?$AAo?$AAu?$AAn?$AAt?$AA?$CI?$AA?$CJ?$AA?5?$AA?$DO?$AA?5?$AA0@ 0000000180049150     image.obj
 0002:00017198       ??_C@_1DA@FBGAEOIO@?$AA?$CB?$AAp?$AAe?$AAr?$AAs?$AAi?$AAs?$AAt?$AAe?$AAn?$AAt?$AA?$CI?$AA?$CJ?$AA?4?$AAI?$AAs?$AAE?$AAm?$AAp?$AAt?$AAy?$AA?$CI?$AA?$CJ?$AA?$AA@ 0000000180049198     image.obj
 0002:000171c8       ??_C@_1CO@JCKLEFMA@?$AA?$CB?$AAp?$AAe?$AAr?$AAs?$AAi?$AAs?$AAt?$AAe?$AAn?$AAt?$AA?$CI?$AA?$CJ?$AA?4?$AAI?$AAs?$AAW?$AAe?$AAa?$AAk?$AA?$CI?$AA?$CJ?$AA?$AA@ 00000001800491c8     image.obj
 0002:000171f8       ??_C@_1BE@GMLLOIPJ@?$AAr?$AAe?$AAf?$AAs?$AA_?$AA?5?$AA?$DO?$AA?5?$AA0?$AA?$AA@ 00000001800491f8     image.obj
 0002:00017210       ??_C@_1CC@GBFLAAPF@?$AAw?$AAr?$AAa?$AAp?$AA?9?$AA?$DO?$AAr?$AAe?$AAf?$AAs?$AA_?$AA?5?$AA?$DN?$AA?$DN?$AA?5?$AA0?$AA?$AA@ 0000000180049210     image.obj
 0002:00017240       ??_C@_1HE@POMLBOM@?$AAC?$AA?3?$AA?2?$AAS?$AAo?$AAu?$AAl?$AA?2?$AAp?$AAr?$AAo?$AAj?$AAe?$AAc?$AAt?$AAs?$AA?2?$AAp?$AAr?$AAo?$AAj?$AAe?$AAc?$AAt?$AAo?$AAr?$AA?2?$AAb?$AAa?$AAc?$AAk?$AAe@ 0000000180049240     image.obj
 0002:000172c0       ??_C@_1FM@LOELJOFK@?$AAs?$AAi?$AAz?$AAe?$AA?5?$AA?$DM?$AA?$DN?$AA?5?$AAi?$AAm?$AAp?$AA?3?$AA?3?$AAk?$AAM?$AAa?$AAx?$AAL?$AAe?$AAn?$AAg?$AAt?$AAh?$AA?5?$AA?$CG?$AA?$CG?$AA?5?$AA?$CC?$AAt?$AAo?$AAo?$AA?5@ 00000001800492c0     image.obj
 0002:00017320       ??_C@_0BL@EAGPGGJL@?6?$CFs?$FLCImg?$FN?5?$CK?$CK?$CK?5?$CFs?5?$CK?$CK?$CK?$CFs?5?$CFs?6?$AA@ 0000000180049320     image.obj
 0002:00017340       ??_C@_0BG@KMDADBLO@CImgArgumentException?$AA@ 0000000180049340     image.obj
 0002:00017358       ??_C@_0BG@IOCOPDAE@CImgInstanceException?$AA@ 0000000180049358     image.obj
 0002:00017370       ??_C@_0BA@EFAPIJMM@CImgIOException?$AA@ 0000000180049370     image.obj
 0002:00017380       ??_C@_02DKCKIIND@?$CFs?$AA@ 0000000180049380     image.obj
 0002:00017388       ??_C@_0O@PPAIJIHF@unsigned?5char?$AA@ 0000000180049388     image.obj
 0002:00017398       ??_C@_04ENMBGAPA@char?$AA@ 0000000180049398     image.obj
 0002:000173a0       ??_C@_0BO@KMOFCCNE@?6?$CFs?$FLCImg?$FN?5?$CK?$CK?$CK?5Warning?5?$CK?$CK?$CK?$CFs?$CFs?$AA@ 00000001800493a0     image.obj
 0002:000173c0       ??_C@_07LDLFNPGN@Windows?$AA@ 00000001800493c0     image.obj
 0002:000173c8       ??_C@_0CK@NEJGLCGN@cimg?3?3fclose?$CI?$CJ?3?5Specified?5file?5i@ 00000001800493c8     image.obj
 0002:000173f8       ??_C@_0DM@IBNMJMCA@cimg?3?3fclose?$CI?$CJ?3?5Error?5code?5?$CFd?5re@ 00000001800493f8     image.obj
 0002:00017434       ??_C@_02GMLFBBN@wb?$AA@    0000000180049434     image.obj
 0002:00017438       ??_C@_08KMKMPPAD@11?356?359?$AA@ 0000000180049438     image.obj
 0002:00017448       ??_C@_0M@OODMKAMP@Oct?516?52018?$AA@ 0000000180049448     image.obj
 0002:00017460       ??_C@_0EO@PPEPCMLA@?6?5?$CFs?$CFsCImg?5Library?5?$CFu?4?$CFu?4?$CFu?$CFs?0?5c@ 0000000180049460     image.obj
 0002:000174b0       ??_C@_0DK@CAOOHPPH@?5?5?$DO?5Operating?5System?3?5?5?5?5?5?5?5?$CFs?$CF?9@ 00000001800494b0     image.obj
 0002:000174ec       ??_C@_06HPILLNHM@Little?$AA@ 00000001800494ec     image.obj
 0002:000174f8       ??_C@_0CL@MALEOICL@?5?5?$DO?5CPU?5endianness?3?5?5?5?5?5?5?5?5?5?$CFs?$CFs@ 00000001800494f8     image.obj
 0002:00017524       ??_C@_05PLLMOHAB@Quiet?$AA@ 0000000180049524     image.obj
 0002:00017530       ??_C@_0EB@IDKGNHGM@?5?5?$DO?5Verbosity?5mode?3?5?5?5?5?5?5?5?5?5?$CFs?$CF?9@ 0000000180049530     image.obj
 0002:00017578       ??_C@_09MLGAJAED@undefined?$AA@ 0000000180049578     image.obj
 0002:00017584       ??_C@_02JINPPBEP@No?$AA@   0000000180049584     image.obj
 0002:00017590       ??_C@_0EH@LAGENLPE@?5?5?$DO?5Stricts?5warnings?3?5?5?5?5?5?5?5?$CFs?$CF?9@ 0000000180049590     image.obj
 0002:000175e0       ??_C@_0EB@JAEOMHJH@?5?5?$DO?5Using?5VT100?5messages?3?5?5?5?$CFs?$CF?9@ 00000001800495e0     image.obj
 0002:00017628       ??_C@_0L@EKKILCGA@No?5display?$AA@ 0000000180049628     image.obj
 0002:00017638       ??_C@_0DP@CBALMADN@?5?5?$DO?5Display?5type?3?5?5?5?5?5?5?5?5?5?5?5?$CFs?$CF?9@ 0000000180049638     image.obj
 0002:00017680       ??_C@_0EC@DJMNKPJN@?5?5?$DO?5Using?5OpenMP?3?5?5?5?5?5?5?5?5?5?5?5?$CFs?$CF?9@ 0000000180049680     image.obj
 0002:000176c8       ??_C@_0DP@ELDHPPAH@?5?5?$DO?5Using?5PNG?5library?3?5?5?5?5?5?5?$CFs?$CF?9@ 00000001800496c8     image.obj
 0002:00017710       ??_C@_0EA@BIPAABKJ@?5?5?$DO?5Using?5JPEG?5library?3?5?5?5?5?5?$CFs?$CF?9@ 0000000180049710     image.obj
 0002:00017750       ??_C@_0EA@GNPBIGKO@?5?5?$DO?5Using?5TIFF?5library?3?5?5?5?5?5?$CFs?$CF?9@ 0000000180049750     image.obj
 0002:00017790       ??_C@_0EC@LHFPOJJ@?5?5?$DO?5Using?5Magick?$CL?$CL?5library?3?5?$CFs?$CF?9@ 0000000180049790     image.obj
 0002:000177e0       ??_C@_0EB@IMBGEGC@?5?5?$DO?5Using?5FFTW3?5library?3?5?5?5?5?$CFs?$CF?9@ 00000001800497e0     image.obj
 0002:00017830       ??_C@_0EC@EDAJEHKG@?5?5?$DO?5Using?5LAPACK?5library?3?5?5?5?$CFs?$CF?9@ 0000000180049830     image.obj
 0002:00017878       ??_C@_09KDOGNJMJ@?$CC?$CF?41020s?$CC?$AA@ 0000000180049878     image.obj
 0002:00017888       ??_C@_0CH@JOMNENBJ@?5?5?$DO?5Path?5of?5ImageMagick?3?5?5?5?5?$CFs?$CF?9@ 0000000180049888     image.obj
 0002:000178b0       ??_C@_0CH@GJHENCAJ@?5?5?$DO?5Path?5of?5GraphicsMagick?3?5?$CFs?$CF?9@ 00000001800498b0     image.obj
 0002:000178d8       ??_C@_0CH@DIFINHOM@?5?5?$DO?5Path?5of?5?8medcon?8?3?5?5?5?5?5?5?5?$CFs?$CF?9@ 00000001800498d8     image.obj
 0002:00017900       ??_C@_0CH@NBHEOCD@?5?5?$DO?5Temporary?5path?3?5?5?5?5?5?5?5?5?5?$CFs?$CF?9@ 0000000180049900     image.obj
 0002:00017928       ??_C@_01EEMJAFIK@?6?$AA@   0000000180049928     image.obj
 0002:0001792c       ??_C@_06IHDMMOPO@?$CFs?4tmp?$AA@ 000000018004992c     image.obj
 0002:00017934       ??_C@_03FICNPLNB@TMP?$AA@  0000000180049934     image.obj
 0002:00017938       ??_C@_04JKHNIKCB@TEMP?$AA@ 0000000180049938     image.obj
 0002:00017940       ??_C@_06GIIGBPHC@?$CFs?$CFc?$CFs?$AA@ 0000000180049940     image.obj
 0002:00017948       ??_C@_0O@MCLGOIG@C?3?2WINNT?2Temp?$AA@ 0000000180049948     image.obj
 0002:00017958       ??_C@_0BA@OBBKBLLO@C?3?2WINDOWS?2Temp?$AA@ 0000000180049958     image.obj
 0002:00017968       ??_C@_07OEMLJILH@C?3?2Temp?$AA@ 0000000180049968     image.obj
 0002:00017970       ??_C@_02FHMLMLAN@C?3?$AA@  0000000180049970     image.obj
 0002:00017978       ??_C@_0O@GJOGMEEG@D?3?2WINNT?2Temp?$AA@ 0000000180049978     image.obj
 0002:00017988       ??_C@_0BA@BMODODML@D?3?2WINDOWS?2Temp?$AA@ 0000000180049988     image.obj
 0002:00017998       ??_C@_07OOAOJBKO@D?3?2Temp?$AA@ 0000000180049998     image.obj
 0002:000179a0       ??_C@_02FCIENNII@D?3?$AA@  00000001800499a0     image.obj
 0002:000179b0       ??_C@_0EM@MFNNFKJO@cimg?3?3temporary_path?$CI?$CJ?3?5Failed?5t@ 00000001800499b0     image.obj
 0002:00017a00       ??_C@_0N@DGDPHBCF@PROGRAMFILES?$AA@ 0000000180049a00     image.obj
 0002:00017a10       ??_C@_0M@JGDMECFM@C?3?2PROGRA?$HO1?$AA@ 0000000180049a10     image.obj
 0002:00017a20       ??_C@_0O@CINCGHCE@?4?2convert?4exe?$AA@ 0000000180049a20     image.obj
 0002:00017a30       ??_C@_01KDCPPGHE@r?$AA@    0000000180049a30     image.obj
 0002:00017a38       ??_C@_0BO@BEENKDDB@?$CFs?2IMAGEM?$HO1?4?$CF?42d?9?2convert?4exe?$AA@ 0000000180049a38     image.obj
 0002:00017a58       ??_C@_0BN@DEFKOHAO@?$CFs?2IMAGEM?$HO1?4?$CFd?9Q?2convert?4exe?$AA@ 0000000180049a58     image.obj
 0002:00017a78       ??_C@_0BL@MJEIJKFG@?$CFs?2IMAGEM?$HO1?4?$CFd?2convert?4exe?$AA@ 0000000180049a78     image.obj
 0002:00017a98       ??_C@_0CK@IDDGABKN@?$CFs?2IMAGEM?$HO1?4?$CF?42d?9?2VISUA?$HO1?2BIN?2co@ 0000000180049a98     image.obj
 0002:00017ac8       ??_C@_0CJ@MEJJNKIH@?$CFs?2IMAGEM?$HO1?4?$CFd?9Q?2VISUA?$HO1?2BIN?2con@ 0000000180049ac8     image.obj
 0002:00017af8       ??_C@_0CH@IPLKJMJJ@?$CFs?2IMAGEM?$HO1?4?$CFd?2VISUA?$HO1?2BIN?2conve@ 0000000180049af8     image.obj
 0002:00017b20       ??_C@_0BO@NPHMEFBN@C?3?2IMAGEM?$HO1?4?$CF?42d?9?2convert?4exe?$AA@ 0000000180049b20     image.obj
 0002:00017b40       ??_C@_0BN@GEAPEHLO@C?3?2IMAGEM?$HO1?4?$CFd?9Q?2convert?4exe?$AA@ 0000000180049b40     image.obj
 0002:00017b60       ??_C@_0BL@BNLFNGCG@C?3?2IMAGEM?$HO1?4?$CFd?2convert?4exe?$AA@ 0000000180049b60     image.obj
 0002:00017b80       ??_C@_0CK@OMCOIKKD@C?3?2IMAGEM?$HO1?4?$CF?42d?9?2VISUA?$HO1?2BIN?2co@ 0000000180049b80     image.obj
 0002:00017bb0       ??_C@_0CJ@GMGFDFFB@C?3?2IMAGEM?$HO1?4?$CFd?9Q?2VISUA?$HO1?2BIN?2con@ 0000000180049bb0     image.obj
 0002:00017be0       ??_C@_0CH@NLPLIBFJ@C?3?2IMAGEM?$HO1?4?$CFd?2VISUA?$HO1?2BIN?2conve@ 0000000180049be0     image.obj
 0002:00017c08       ??_C@_0BO@GKFOOMCF@D?3?2IMAGEM?$HO1?4?$CF?42d?9?2convert?4exe?$AA@ 0000000180049c08     image.obj
 0002:00017c28       ??_C@_0BN@JGGJEOAD@D?3?2IMAGEM?$HO1?4?$CFd?9Q?2convert?4exe?$AA@ 0000000180049c28     image.obj
 0002:00017c48       ??_C@_0BL@MPGAJAKA@D?3?2IMAGEM?$HO1?4?$CFd?2convert?4exe?$AA@ 0000000180049c48     image.obj
 0002:00017c68       ??_C@_0CK@DNGABIKL@D?3?2IMAGEM?$HO1?4?$CF?42d?9?2VISUA?$HO1?2BIN?2co@ 0000000180049c68     image.obj
 0002:00017c98       ??_C@_0CJ@JJJAMMPF@D?3?2IMAGEM?$HO1?4?$CFd?9Q?2VISUA?$HO1?2BIN?2con@ 0000000180049c98     image.obj
 0002:00017cc8       ??_C@_0CH@OJDFLFEH@D?3?2IMAGEM?$HO1?4?$CFd?2VISUA?$HO1?2BIN?2conve@ 0000000180049cc8     image.obj
 0002:00017cf0       ??_C@_0M@BHHDHLFO@convert?4exe?$AA@ 0000000180049cf0     image.obj
 0002:00017d00       ??_C@_08JLFGAKFI@?4?2gm?4exe?$AA@ 0000000180049d00     image.obj
 0002:00017d10       ??_C@_0BJ@KIJEJDFC@?$CFs?2GRAPHI?$HO1?4?$CF?42d?9?2gm?4exe?$AA@ 0000000180049d10     image.obj
 0002:00017d30       ??_C@_0BI@JLKBGOLD@?$CFs?2GRAPHI?$HO1?4?$CFd?9Q?2gm?4exe?$AA@ 0000000180049d30     image.obj
 0002:00017d48       ??_C@_0BG@NEOPBCGI@?$CFs?2GRAPHI?$HO1?4?$CFd?2gm?4exe?$AA@ 0000000180049d48     image.obj
 0002:00017d60       ??_C@_0CF@HGNIKPKC@?$CFs?2GRAPHI?$HO1?4?$CF?42d?9?2VISUA?$HO1?2BIN?2gm@ 0000000180049d60     image.obj
 0002:00017d88       ??_C@_0CE@HONJHPCF@?$CFs?2GRAPHI?$HO1?4?$CFd?9Q?2VISUA?$HO1?2BIN?2gm?4@ 0000000180049d88     image.obj
 0002:00017db0       ??_C@_0CC@CGJHNFDG@?$CFs?2GRAPHI?$HO1?4?$CFd?2VISUA?$HO1?2BIN?2gm?4ex@ 0000000180049db0     image.obj
 0002:00017dd8       ??_C@_0BJ@LNLIIJPN@C?3?2GRAPHI?$HO1?4?$CF?42d?9?2gm?4exe?$AA@ 0000000180049dd8     image.obj
 0002:00017df8       ??_C@_0BI@GNJGIIOO@C?3?2GRAPHI?$HO1?4?$CFd?9Q?2gm?4exe?$AA@ 0000000180049df8     image.obj
 0002:00017e10       ??_C@_0BG@KKAGDOPF@C?3?2GRAPHI?$HO1?4?$CFd?2gm?4exe?$AA@ 0000000180049e10     image.obj
 0002:00017e28       ??_C@_0CF@IDNFPMOE@C?3?2GRAPHI?$HO1?4?$CF?42d?9?2VISUA?$HO1?2BIN?2gm@ 0000000180049e28     image.obj
 0002:00017e50       ??_C@_0CE@HMEOGOHC@C?3?2GRAPHI?$HO1?4?$CFd?9Q?2VISUA?$HO1?2BIN?2gm?4@ 0000000180049e50     image.obj
 0002:00017e78       ??_C@_0CC@KLPHHFCI@C?3?2GRAPHI?$HO1?4?$CFd?2VISUA?$HO1?2BIN?2gm?4ex@ 0000000180049e78     image.obj
 0002:00017ea0       ??_C@_0BJ@HDOIHFFF@D?3?2GRAPHI?$HO1?4?$CF?42d?9?2gm?4exe?$AA@ 0000000180049ea0     image.obj
 0002:00017ec0       ??_C@_0BI@FMIOLPJJ@D?3?2GRAPHI?$HO1?4?$CFd?9Q?2gm?4exe?$AA@ 0000000180049ec0     image.obj
 0002:00017ed8       ??_C@_0BG@MPNPAALF@D?3?2GRAPHI?$HO1?4?$CFd?2gm?4exe?$AA@ 0000000180049ed8     image.obj
 0002:00017ef0       ??_C@_0CF@LHOHJFDL@D?3?2GRAPHI?$HO1?4?$CF?42d?9?2VISUA?$HO1?2BIN?2gm@ 0000000180049ef0     image.obj
 0002:00017f18       ??_C@_0CE@CAPOENBL@D?3?2GRAPHI?$HO1?4?$CFd?9Q?2VISUA?$HO1?2BIN?2gm?4@ 0000000180049f18     image.obj
 0002:00017f40       ??_C@_0CC@FEHIMCKK@D?3?2GRAPHI?$HO1?4?$CFd?2VISUA?$HO1?2BIN?2gm?4ex@ 0000000180049f40     image.obj
 0002:00017f64       ??_C@_06KIIJHODA@gm?4exe?$AA@ 0000000180049f64     image.obj
 0002:00017f70       ??_C@_0N@MGGOIDG@?4?2medcon?4exe?$AA@ 0000000180049f70     image.obj
 0002:00017f80       ??_C@_0BK@NDJGANHB@?$CFs?2XMedCon?2bin?2medcon?4bat?$AA@ 0000000180049f80     image.obj
 0002:00017fa0       ??_C@_0BK@OGPIOCH@?$CFs?2XMedCon?2bin?2medcon?4exe?$AA@ 0000000180049fa0     image.obj
 0002:00017fc0       ??_C@_0BK@EIBDBMEE@C?3?2XMedCon?2bin?2medcon?4exe?$AA@ 0000000180049fc0     image.obj
 0002:00017fe0       ??_C@_0L@BIHMEPJA@medcon?4exe?$AA@ 0000000180049fe0     image.obj
 0002:00017fec       ??_C@_01LKDEMHDF@s?$AA@    0000000180049fec     image.obj
 0002:00017ff0       ??_C@_0L@OBBAIDHB@?$CFlu?5byte?$CFs?$AA@ 0000000180049ff0     image.obj
 0002:00018000       ??_C@_08MFGCGJIH@?$CF?41f?5Kio?$AA@ 000000018004a000     image.obj
 0002:00018010       ??_C@_08OAAJDGFL@?$CF?41f?5Mio?$AA@ 000000018004a010     image.obj
 0002:00018020       ??_C@_08IPLENGDP@?$CF?41f?5Gio?$AA@ 000000018004a020     image.obj
 0002:00018030       ??_C@_09LAIAIPHJ@LwipImage?$AA@ 000000018004a030     image.obj
 0002:0001803c       ??_C@_05IGKADHGO@width?$AA@ 000000018004a03c     image.obj
 0002:00018044       ??_C@_06LNLHEAAG@height?$AA@ 000000018004a044     image.obj
 0002:00018050       ??_C@_08BAKLOFAD@getPixel?$AA@ 000000018004a050     image.obj
 0002:0001805c       ??_C@_06HOHPNJLC@buffer?$AA@ 000000018004a05c     image.obj
 0002:00018064       ??_C@_06PIONCPJI@resize?$AA@ 000000018004a064     image.obj
 0002:0001806c       ??_C@_06CEHMNFAL@rotate?$AA@ 000000018004a06c     image.obj
 0002:00018074       ??_C@_04OEOMNFLL@blur?$AA@ 000000018004a074     image.obj
 0002:0001807c       ??_C@_04EKMNJIID@crop?$AA@ 000000018004a07c     image.obj
 0002:00018084       ??_C@_06LLKPBPOH@mirror?$AA@ 000000018004a084     image.obj
 0002:0001808c       ??_C@_03PNAAIPML@pad?$AA@  000000018004a08c     image.obj
 0002:00018090       ??_C@_07JOLMDEEJ@sharpen?$AA@ 000000018004a090     image.obj
 0002:00018098       ??_C@_07GMFDBPHL@hslaAdj?$AA@ 000000018004a098     image.obj
 0002:000180a0       ??_C@_07JGMNFOGM@opacify?$AA@ 000000018004a0a0     image.obj
 0002:000180a8       ??_C@_05NDLFFNHM@paste?$AA@ 000000018004a0a8     image.obj
 0002:000180b0       ??_C@_08OBIHPGHO@setPixel?$AA@ 000000018004a0b0     image.obj
 0002:000180bc       ??_C@_04BOPJJKFO@non?9?$AA@ 000000018004a0bc     image.obj
 0002:000180d0       ??_C@_0GO@IJKBBBF@?$FLinstance?$CI?$CFu?0?$CFu?0?$CFu?0?$CFu?0?$CFp?0?$CFsshare@ 000000018004a0d0     image.obj
 0002:00018140       ??_C@_0IL@FBEMFEEL@?$FLinstance?$CI?$CFu?0?$CFu?0?$CFu?0?$CFu?0?$CFp?0?$CFsshare@ 000000018004a140     image.obj
 0002:000181d0       ??_C@_0HA@LNIOEEDA@?$FLinstance?$CI?$CFu?0?$CFu?0?$CFu?0?$CFu?0?$CFp?0?$CFsshare@ 000000018004a1d0     image.obj
 0002:00018240       ??_C@_1CE@IAEMMFJ@?$AA?$CB?$AAh?$AAa?$AAn?$AAd?$AAl?$AAe?$AA?4?$AAI?$AAs?$AAE?$AAm?$AAp?$AAt?$AAy?$AA?$CI?$AA?$CJ?$AA?$AA@ 000000018004a240     image.obj
 0002:00018268       ??_7ObjectWrap@node@@6B@   000000018004a268     image.obj
 0002:00018280       ??_7exception@stdext@@6B@  000000018004a280     image.obj
 0002:00018298       ??_7CImgInstanceException@cimg_library@@6B@ 000000018004a298     image.obj
 0002:00018298       ??_7CImgArgumentException@cimg_library@@6B@ 000000018004a298     image.obj
 0002:00018298       ??_7CImgException@cimg_library@@6B@ 000000018004a298     image.obj
 0002:00018298       ??_7CImgIOException@cimg_library@@6B@ 000000018004a298     image.obj
 0002:000182b0       ??_7LwipImage@@6B@         000000018004a2b0     image.obj
 0002:000182c8       ??_C@_0N@OFHMGPAL@unsigned?5int?$AA@ 000000018004a2c8     resize_worker.obj
 0002:000182d8       ??_C@_0O@NMGGJGDE@unsigned?5long?$AA@ 000000018004a2d8     resize_worker.obj
 0002:000182e8       ??_C@_05KNFBNCOH@float?$AA@ 000000018004a2e8     resize_worker.obj
 0002:000182f0       ??_C@_0BH@HOEBJHNE@Unable?5to?5resize?5image?$AA@ 000000018004a2f0     resize_worker.obj
 0002:00018310       ??_C@_0HN@LNNNGPDL@?$FLinstance?$CI?$CFu?0?$CFu?0?$CFu?0?$CFu?0?$CFp?0?$CFsshare@ 000000018004a310     resize_worker.obj
 0002:00018390       ??_C@_0LO@CIICCCPG@?$FLinstance?$CI?$CFu?0?$CFu?0?$CFu?0?$CFu?0?$CFp?0?$CFsshare@ 000000018004a390     resize_worker.obj
 0002:00018450       ??_C@_0EG@MMNHNNC@?$FLinstance?$CI?$CFu?0?$CFu?0?$CFu?0?$CFu?0?$CFp?0?$CFsshare@ 000000018004a450     resize_worker.obj
 0002:000184a0       ??_C@_0GG@IFNNPGGA@?$FLinstance?$CI?$CFu?0?$CFu?0?$CFu?0?$CFu?0?$CFp?0?$CFsshare@ 000000018004a4a0     resize_worker.obj
 0002:00018508       ??_7AsyncWorker@Nan@@6B@   000000018004a508     resize_worker.obj
 0002:00018538       ??_7ResizeWorker@@6B@      000000018004a538     resize_worker.obj
 0002:00018568       ??_C@_0O@NALGGDJF@Out?5of?5memory?$AA@ 000000018004a568     rotate_worker.obj
 0002:00018578       ??_C@_0BH@GGFIPBFA@Unable?5to?5rotate?5image?$AA@ 000000018004a578     rotate_worker.obj
 0002:00018590       ??_7RotateWorker@@6B@      000000018004a590     rotate_worker.obj
 0002:000185c0       ??_7BlurWorker@@6B@        000000018004a5c0     blur_worker.obj
 0002:000185f0       ??_C@_0BF@EIGNCFLG@Unable?5to?5crop?5image?$AA@ 000000018004a5f0     crop_worker.obj
 0002:00018608       ??_7CropWorker@@6B@        000000018004a608     crop_worker.obj
 0002:00018638       ??_C@_0BA@JFNIOLAK@string?5too?5long?$AA@ 000000018004a638     mirror_worker.obj
 0002:00018648       ??_C@_01FJMABOPO@x?$AA@    000000018004a648     mirror_worker.obj
 0002:0001864c       ??_C@_01EANLCPLP@y?$AA@    000000018004a64c     mirror_worker.obj
 0002:00018650       ??_C@_0BH@GGNFDDGJ@Unable?5to?5mirror?5image?$AA@ 000000018004a650     mirror_worker.obj
 0002:00018670       ??_C@_0FF@BEMAOOFG@?$FLinstance?$CI?$CFu?0?$CFu?0?$CFu?0?$CFu?0?$CFp?0?$CFsshare@ 000000018004a670     mirror_worker.obj
 0002:000186c8       ??_C@_0BI@CFPLBAOH@invalid?5string?5position?$AA@ 000000018004a6c8     mirror_worker.obj
 0002:000186e0       ??_7MirrorWorker@@6B@      000000018004a6e0     mirror_worker.obj
 0002:00018710       ??_7PadWorker@@6B@         000000018004a710     pad_worker.obj
 0002:00018740       ??_C@_0BI@KMLFCNEF@Unable?5to?5sharpen?5image?$AA@ 000000018004a740     sharpen_worker.obj
 0002:00018760       ??_C@_0EF@BOBPDEID@?$FLinstance?$CI?$CFu?0?$CFu?0?$CFu?0?$CFu?0?$CFp?0?$CFsshare@ 000000018004a760     sharpen_worker.obj
 0002:000187a8       ??_7SharpenWorker@@6B@     000000018004a7a8     sharpen_worker.obj
 0002:000187d8       ??_7HSLAWorker@@6B@        000000018004a7d8     hsla_worker.obj
 0002:00018808       ??_7OpacifyWorker@@6B@     000000018004a808     opacify_worker.obj
 0002:00018838       ??_C@_06JIBAFMCE@pixbuf?$AA@ 000000018004a838     paste_worker.obj
 0002:00018840       ??_C@_0BG@NOEMJBFE@Unable?5to?5paste?5image?$AA@ 000000018004a840     paste_worker.obj
 0002:00018858       ??_7PasteWorker@@6B@       000000018004a858     paste_worker.obj
 0002:00018888       ??_7SetPixelWorker@@6B@    000000018004a888     setpixel_worker.obj
 0002:000188b8       ??_C@_08HCOMDCCD@iojs?4exe?$AA@ 000000018004a8b8     win_delay_load_hook.obj
 0002:000188c8       ??_C@_08JDDNMFDB@node?4exe?$AA@ 000000018004a8c8     win_delay_load_hook.obj
 0002:000188d4       __real@30800000            000000018004a8d4     image.obj
 0002:000188d8       __real@35800000            000000018004a8d8     image.obj
 0002:000188dc       __real@3a800000            000000018004a8dc     image.obj
 0002:000188e0       __real@3eaaaaab            000000018004a8e0     hsla_worker.obj
 0002:000188e4       __real@3f000000            000000018004a8e4     hsla_worker.obj
 0002:000188e8       __real@3f2aaaab            000000018004a8e8     hsla_worker.obj
 0002:000188ec       __real@3f800000            000000018004a8ec     hsla_worker.obj
 0002:000188f0       __real@3facb923a29c779a    000000018004a8f0     sharpen_worker.obj
 0002:000188f8       __real@3fd06f694467381d    000000018004a8f8     sharpen_worker.obj
 0002:00018900       __real@3fe28240b780346e    000000018004a900     sharpen_worker.obj
 0002:00018908       __real@3fef5f6fd21ff2e5    000000018004a908     sharpen_worker.obj
 0002:00018910       __real@3ff0000000000000    000000018004a910     sharpen_worker.obj
 0002:00018918       __real@3ff2ab367a0f9097    000000018004a918     sharpen_worker.obj
 0002:00018920       __real@40000000            000000018004a920     hsla_worker.obj
 0002:00018928       __real@4001b9abf3387161    000000018004a928     sharpen_worker.obj
 0002:00018930       __real@400412a305532618    000000018004a930     sharpen_worker.obj
 0002:00018938       __real@4008000000000000    000000018004a938     sharpen_worker.obj
 0002:00018940       __real@400921fb54442d18    000000018004a940     rotate_worker.obj
 0002:00018948       __real@4009a13d028c43be    000000018004a948     sharpen_worker.obj
 0002:00018950       __real@400b0f47304039ac    000000018004a950     sharpen_worker.obj
 0002:00018958       __real@400c72b020c49ba6    000000018004a958     sharpen_worker.obj
 0002:00018960       __real@400de7a7229d4fdd    000000018004a960     sharpen_worker.obj
 0002:00018968       __real@401727e595e04062    000000018004a968     sharpen_worker.obj
 0002:00018970       __real@401b0f47304039ac    000000018004a970     sharpen_worker.obj
 0002:00018978       __real@40400000            000000018004a978     hsla_worker.obj
 0002:0001897c       __real@40490fdb            000000018004a97c     resize_worker.obj
 0002:00018980       __real@4056800000000000    000000018004a980     rotate_worker.obj
 0002:00018988       __real@4059000000000000    000000018004a988     paste_worker.obj
 0002:00018990       __real@4066800000000000    000000018004a990     rotate_worker.obj
 0002:00018998       __real@406fe00000000000    000000018004a998     hsla_worker.obj
 0002:000189a0       __real@4076800000000000    000000018004a9a0     hsla_worker.obj
 0002:000189a8       __real@40800000            000000018004a9a8     rotate_worker.obj
 0002:000189ac       __real@40a00000            000000018004a9ac     hsla_worker.obj
 0002:000189b0       __real@40c00000            000000018004a9b0     hsla_worker.obj
 0002:000189b4       __real@42700000            000000018004a9b4     hsla_worker.obj
 0002:000189b8       __real@42c80000            000000018004a9b8     hsla_worker.obj
 0002:000189bc       __real@437f0000            000000018004a9bc     hsla_worker.obj
 0002:000189c0       __real@43b40000            000000018004a9c0     hsla_worker.obj
 0002:000189c8       __real@43e0000000000000    000000018004a9c8     image.obj
 0002:000189d0       __real@c0000000            000000018004a9d0     resize_worker.obj
 0002:000189d4       __real@c2c80000            000000018004a9d4     sharpen_worker.obj
 0002:000189e0       __xmm@7fffffffffffffff7fffffffffffffff 000000018004a9e0     sharpen_worker.obj
 0002:000189f0       __xmm@80000000000000008000000000000000 000000018004a9f0     sharpen_worker.obj
 0002:00018a00       __xmm@80000000800000008000000080000000 000000018004aa00     sharpen_worker.obj
 0002:00019698       __real@bff0000000000000    000000018004b698     libucrt:floor.obj
 0002:0001a1b0       __Lcosarray                000000018004c1b0     libucrt:lsincos_array.obj
 0002:0001a210       __Lsinarray                000000018004c210     libucrt:lsincos_array.obj
 0002:0001a590       ??_C@_04LAGPAAHP@sinf?$AA@ 000000018004c590     libucrt:sincos_special.obj
 0002:0001a598       ??_C@_04OBBKPIAC@cosf?$AA@ 000000018004c598     libucrt:sincos_special.obj
 0002:0001a5b0       __Lcosfarray               000000018004c5b0     libucrt:lsincosf_array.obj
 0002:0001a5e0       __Lsinfarray               000000018004c5e0     libucrt:lsincosf_array.obj
 0002:0001a600       __two_to_jby64_table       000000018004c600     libucrt:two_to_jby64_table.obj
 0002:0001a800       ??_C@_04KBNCNMNN@expf?$AA@ 000000018004c800     libucrt:exp_special.obj
 0002:0001a808       ??_C@_04MBFDLNIM@powf?$AA@ 000000018004c808     libucrt:pow_special.obj
 0002:0001a810       __L_2_by_pi_bits           000000018004c810     libucrt:l2_by_pi_bits.obj
 0002:0001a9b8       _tls_used                  000000018004c9b8     LIBCMT:tlssup.obj
 0002:0001a9e0       ??_R4exception@std@@6B@    000000018004c9e0     libcpmt:xthrow.obj
 0002:0001aa08       ??_R3exception@std@@8      000000018004ca08     libcpmt:xthrow.obj
 0002:0001aa20       ??_R2exception@std@@8      000000018004ca20     libcpmt:xthrow.obj
 0002:0001aa30       ??_R1A@?0A@EA@exception@std@@8 000000018004ca30     libcpmt:xthrow.obj
 0002:0001aa58       ??_R4bad_alloc@std@@6B@    000000018004ca58     libcpmt:xthrow.obj
 0002:0001aa80       ??_R3bad_alloc@std@@8      000000018004ca80     libcpmt:xthrow.obj
 0002:0001aa98       ??_R2bad_alloc@std@@8      000000018004ca98     libcpmt:xthrow.obj
 0002:0001aab0       ??_R1A@?0A@EA@bad_alloc@std@@8 000000018004cab0     libcpmt:xthrow.obj
 0002:0001aad8       ??_R4logic_error@std@@6B@  000000018004cad8     libcpmt:xthrow.obj
 0002:0001ab00       ??_R3logic_error@std@@8    000000018004cb00     libcpmt:xthrow.obj
 0002:0001ab18       ??_R2logic_error@std@@8    000000018004cb18     libcpmt:xthrow.obj
 0002:0001ab30       ??_R1A@?0A@EA@logic_error@std@@8 000000018004cb30     libcpmt:xthrow.obj
 0002:0001ab58       ??_R4length_error@std@@6B@ 000000018004cb58     libcpmt:xthrow.obj
 0002:0001ab80       ??_R3length_error@std@@8   000000018004cb80     libcpmt:xthrow.obj
 0002:0001ab98       ??_R2length_error@std@@8   000000018004cb98     libcpmt:xthrow.obj
 0002:0001abb8       ??_R1A@?0A@EA@length_error@std@@8 000000018004cbb8     libcpmt:xthrow.obj
 0002:0001abe0       ??_R4out_of_range@std@@6B@ 000000018004cbe0     libcpmt:xthrow.obj
 0002:0001ac08       ??_R3out_of_range@std@@8   000000018004cc08     libcpmt:xthrow.obj
 0002:0001ac20       ??_R2out_of_range@std@@8   000000018004cc20     libcpmt:xthrow.obj
 0002:0001ac40       ??_R1A@?0A@EA@out_of_range@std@@8 000000018004cc40     libcpmt:xthrow.obj
 0002:0001ac68       ??_R4type_info@@6B@        000000018004cc68     LIBCMT:std_type_info_static.obj
 0002:0001ac90       ??_R3type_info@@8          000000018004cc90     LIBCMT:std_type_info_static.obj
 0002:0001aca8       ??_R2type_info@@8          000000018004cca8     LIBCMT:std_type_info_static.obj
 0002:0001acb8       ??_R1A@?0A@EA@type_info@@8 000000018004ccb8     LIBCMT:std_type_info_static.obj
 0002:0001ace0       ??_R4bad_array_new_length@std@@6B@ 000000018004cce0     LIBCMT:throw_bad_alloc.obj
 0002:0001ad08       ??_R3bad_array_new_length@std@@8 000000018004cd08     LIBCMT:throw_bad_alloc.obj
 0002:0001ad20       ??_R2bad_array_new_length@std@@8 000000018004cd20     LIBCMT:throw_bad_alloc.obj
 0002:0001ad40       ??_R1A@?0A@EA@bad_array_new_length@std@@8 000000018004cd40     LIBCMT:throw_bad_alloc.obj
 0002:0001ad68       ??_R4bad_exception@std@@6B@ 000000018004cd68     libvcruntime:frame.obj
 0002:0001ad90       ??_R3bad_exception@std@@8  000000018004cd90     libvcruntime:frame.obj
 0002:0001ada8       ??_R2bad_exception@std@@8  000000018004cda8     libvcruntime:frame.obj
 0002:0001adc0       ??_R1A@?0A@EA@bad_exception@std@@8 000000018004cdc0     libvcruntime:frame.obj
 0002:0001b268       __rtc_iaa                  000000018004d268     LIBCMT:_initsect_.obj
 0002:0001b270       __rtc_izz                  000000018004d270     LIBCMT:_initsect_.obj
 0002:0001b278       __rtc_taa                  000000018004d278     LIBCMT:_initsect_.obj
 0002:0001b280       __rtc_tzz                  000000018004d280     LIBCMT:_initsect_.obj
 0002:0001ed50       _TI2?AVbad_alloc@std@@     0000000180050d50     libcpmt:xthrow.obj
 0002:0001ed70       _CTA2?AVbad_alloc@std@@    0000000180050d70     libcpmt:xthrow.obj
 0002:0001ed88       _CT??_R0?AVbad_alloc@std@@@8??0bad_alloc@std@@QEAA@AEBV01@@Z24 0000000180050d88     libcpmt:xthrow.obj
 0002:0001edb0       _CT??_R0?AVexception@std@@@8??0exception@std@@QEAA@AEBV01@@Z24 0000000180050db0     libcpmt:xthrow.obj
 0002:0001edd8       _CT??_R0?AVlogic_error@std@@@8??0logic_error@std@@QEAA@AEBV01@@Z24 0000000180050dd8     libcpmt:xthrow.obj
 0002:0001ee00       _TI3?AVlength_error@std@@  0000000180050e00     libcpmt:xthrow.obj
 0002:0001ee20       _CTA3?AVlength_error@std@@ 0000000180050e20     libcpmt:xthrow.obj
 0002:0001ee40       _CT??_R0?AVlength_error@std@@@8??0length_error@std@@QEAA@AEBV01@@Z24 0000000180050e40     libcpmt:xthrow.obj
 0002:0001ee68       _TI3?AVout_of_range@std@@  0000000180050e68     libcpmt:xthrow.obj
 0002:0001ee88       _CTA3?AVout_of_range@std@@ 0000000180050e88     libcpmt:xthrow.obj
 0002:0001eea8       _CT??_R0?AVout_of_range@std@@@8??0out_of_range@std@@QEAA@AEBV01@@Z24 0000000180050ea8     libcpmt:xthrow.obj
 0002:0001eed0       _TI3?AVbad_array_new_length@std@@ 0000000180050ed0     LIBCMT:throw_bad_alloc.obj
 0002:0001eef0       _CTA3?AVbad_array_new_length@std@@ 0000000180050ef0     LIBCMT:throw_bad_alloc.obj
 0002:0001ef10       _CT??_R0?AVbad_array_new_length@std@@@8??0bad_array_new_length@std@@QEAA@AEBV01@@Z24 0000000180050f10     LIBCMT:throw_bad_alloc.obj
 0002:0001ef38       _TI2?AVbad_exception@std@@ 0000000180050f38     libvcruntime:frame.obj
 0002:0001ef58       _CTA2?AVbad_exception@std@@ 0000000180050f58     libvcruntime:frame.obj
 0002:0001ef70       _CT??_R0?AVbad_exception@std@@@8??0bad_exception@std@@QEAA@AEBV01@@Z24 0000000180050f70     libvcruntime:frame.obj
 0002:0001ef98       _CT??_R0?AUCImgInstanceException@cimg_library@@@824 0000000180050f98     image.obj
 0002:0001efc0       _TI3?AUCImgInstanceException@cimg_library@@ 0000000180050fc0     image.obj
 0002:0001efe0       _TI3?AUCImgIOException@cimg_library@@ 0000000180050fe0     image.obj
 0002:0001f000       _CTA3?AUCImgIOException@cimg_library@@ 0000000180051000     image.obj
 0002:0001f020       _CTA3?AUCImgArgumentException@cimg_library@@ 0000000180051020     image.obj
 0002:0001f040       _CT??_R0?AUCImgArgumentException@cimg_library@@@824 0000000180051040     image.obj
 0002:0001f068       _CT??_R0?AUCImgException@cimg_library@@@824 0000000180051068     image.obj
 0002:0001f090       _CT??_R0?AUCImgIOException@cimg_library@@@824 0000000180051090     image.obj
 0002:0001f0b8       _CTA3?AUCImgInstanceException@cimg_library@@ 00000001800510b8     image.obj
 0002:0001f0d8       _CT??_R0?AVexception@stdext@@@816 00000001800510d8     image.obj
 0002:0001f100       _TI3?AUCImgArgumentException@cimg_library@@ 0000000180051100     image.obj
 0002:0001f11c       __DELAY_IMPORT_DESCRIPTOR_node_exe 000000018005111c     node:node.exe
 0002:0001f13c       __NULL_DELAY_IMPORT_DESCRIPTOR 000000018005113c     node:node.exe
 0002:0001f2f8       \177node_NULL_THUNK_DATA_DLN 00000001800512f8     node:node.exe
 0002:00020060       \177node_NULL_THUNK_DATA_DLB 0000000180052060     node:node.exe
 0002:00020258       __IMPORT_DESCRIPTOR_KERNEL32 0000000180052258     kernel32:KERNEL32.dll
 0002:0002026c       __IMPORT_DESCRIPTOR_SHELL32 000000018005226c     shell32:SHELL32.dll
 0002:00020280       __NULL_IMPORT_DESCRIPTOR   0000000180052280     kernel32:KERNEL32.dll
 0003:00000000       _Init_global_epoch         0000000180053000     LIBCMT:thread_safe_statics.obj
 0003:00000004       __scrt_native_dllmain_reason 0000000180053004     LIBCMT:utility.obj
 0003:00000008       __security_cookie          0000000180053008     LIBCMT:gs_cookie.obj
 0003:00000010       __security_cookie_complement 0000000180053010     LIBCMT:gs_cookie.obj
 0003:00000018       __isa_available            0000000180053018     LIBCMT:_cpu_disp_.obj
 0003:0000001c       __isa_enabled              000000018005301c     LIBCMT:_cpu_disp_.obj
 0003:00000020       __memcpy_nt_iters          0000000180053020     LIBCMT:_cpu_disp_.obj
 0003:00000040       _iob                       0000000180053040     libucrt:_file.obj
 0003:00000150       __abort_behavior           0000000180053150     libucrt:abort.obj
 0003:00000160       __badioinfo                0000000180053160     libucrt:ioinit.obj
 0003:000001a0       __acrt_initial_locale_data 00000001800531a0     libucrt:nlsdata.obj
 0003:000002f8       __acrt_initial_locale_pointers 00000001800532f8     libucrt:nlsdata.obj
 0003:00000308       __acrt_wide_c_locale_string 0000000180053308     libucrt:nlsdata.obj
 0003:00000310       __acrt_initial_multibyte_data 0000000180053310     libucrt:mbctype.obj
 0003:00000538       __acrt_current_multibyte_data 0000000180053538     libucrt:mbctype.obj
 0003:00000640       _mbctype                   0000000180053640     libucrt:mbctype.obj
 0003:00000750       _mbcasemap                 0000000180053750     libucrt:mbctype.obj
 0003:00000850       _pwctype                   0000000180053850     libucrt:ctype.obj
 0003:00000860       __globallocalestatus       0000000180053860     libucrt:glstatus.obj
 0003:00000870       __acrt_lconv_c             0000000180053870     libucrt:localeconv.obj
 0003:00000908       __acrt_lconv_static_decimal 0000000180053908     libucrt:localeconv.obj
 0003:0000090c       __acrt_lconv_static_W_decimal 000000018005390c     libucrt:localeconv.obj
 0003:00000910       _lookuptrailbytes          0000000180053910     libucrt:read.obj
 0003:00000a10       __dcrt_lowio_console_output_handle 0000000180053a10     libucrt:initcon.obj
 0003:00000a30       _fltused                   0000000180053a30     LIBCMT:fltused.obj
 0003:00000a80       ??_R0?AVbad_alloc@std@@@8  0000000180053a80     libcpmt:xthrow.obj
 0003:00000aa8       ??_R0?AVexception@std@@@8  0000000180053aa8     libcpmt:xthrow.obj
 0003:00000ad0       ??_R0?AVlogic_error@std@@@8 0000000180053ad0     libcpmt:xthrow.obj
 0003:00000af8       ??_R0?AVlength_error@std@@@8 0000000180053af8     libcpmt:xthrow.obj
 0003:00000b20       ??_R0?AVout_of_range@std@@@8 0000000180053b20     libcpmt:xthrow.obj
 0003:00000b48       ??_R0?AVtype_info@@@8      0000000180053b48     LIBCMT:std_type_info_static.obj
 0003:00000b68       ??_R0?AVbad_array_new_length@std@@@8 0000000180053b68     LIBCMT:throw_bad_alloc.obj
 0003:00000b98       ??_R0?AVbad_exception@std@@@8 0000000180053b98     libvcruntime:frame.obj
 0003:00000bc0       ??_R0?AVexception@stdext@@@8 0000000180053bc0     image.obj
 0003:00000be8       ??_R0?AUCImgIOException@cimg_library@@@8 0000000180053be8     image.obj
 0003:00000c20       ??_R0?AUCImgArgumentException@cimg_library@@@8 0000000180053c20     image.obj
 0003:00000c60       ??_R0?AUCImgException@cimg_library@@@8 0000000180053c60     image.obj
 0003:00000c98       ??_R0?AUCImgInstanceException@cimg_library@@@8 0000000180053c98     image.obj
 0003:00000cd8       __imp_node_module_register 0000000180053cd8     node:node.exe
 0003:00000ce0       __imp_uv_queue_work        0000000180053ce0     node:node.exe
 0003:00000ce8       __imp_?Value@External@v8@@QEBAPEAXXZ 0000000180053ce8     node:node.exe
 0003:00000cf0       __imp_?New@External@v8@@SA?AV?$Local@VExternal@v8@@@2@PEAVIsolate@2@PEAX@Z 0000000180053cf0     node:node.exe
 0003:00000cf8       __imp_?Value@Integer@v8@@QEBA_JXZ 0000000180053cf8     node:node.exe
 0003:00000d00       __imp_?New@Integer@v8@@SA?AV?$Local@VInteger@v8@@@2@PEAVIsolate@2@H@Z 0000000180053d00     node:node.exe
 0003:00000d08       __imp_?New@Signature@v8@@SA?AV?$Local@VSignature@v8@@@2@PEAVIsolate@2@V?$Local@VFunctionTemplate@v8@@@2@@Z 0000000180053d08     node:node.exe
 0003:00000d10       __imp_?GetCurrentContext@Isolate@v8@@QEAA?AV?$Local@VContext@v8@@@2@XZ 0000000180053d10     node:node.exe
 0003:00000d18       __imp_?GetCurrent@Isolate@v8@@SAPEAV12@XZ 0000000180053d18     node:node.exe
 0003:00000d20       __imp_?CreateHandle@HandleScope@v8@@KAPEAPEAVObject@internal@2@PEAVIsolate@42@PEAV342@@Z 0000000180053d20     node:node.exe
 0003:00000d28       __imp_?CreateHandle@HandleScope@v8@@CAPEAPEAVObject@internal@2@PEAVHeapObject@42@PEAV342@@Z 0000000180053d28     node:node.exe
 0003:00000d30       __imp_??1HandleScope@v8@@QEAA@XZ 0000000180053d30     node:node.exe
 0003:00000d38       __imp_??0HandleScope@v8@@QEAA@PEAVIsolate@1@@Z 0000000180053d38     node:node.exe
 0003:00000d40       __imp_?Set@Template@v8@@QEAAXV?$Local@VName@v8@@@2@V?$Local@VData@v8@@@2@W4PropertyAttribute@2@@Z 0000000180053d40     node:node.exe
 0003:00000d48       __imp_?New@Array@v8@@SA?AV?$Local@VArray@v8@@@2@PEAVIsolate@2@H@Z 0000000180053d48     node:node.exe
 0003:00000d50       __imp_?SetClassName@FunctionTemplate@v8@@QEAAXV?$Local@VString@v8@@@2@@Z 0000000180053d50     node:node.exe
 0003:00000d58       __imp_?PrototypeTemplate@FunctionTemplate@v8@@QEAA?AV?$Local@VObjectTemplate@v8@@@2@XZ 0000000180053d58     node:node.exe
 0003:00000d60       __imp_?InstanceTemplate@FunctionTemplate@v8@@QEAA?AV?$Local@VObjectTemplate@v8@@@2@XZ 0000000180053d60     node:node.exe
 0003:00000d68       __imp_?GetFunction@FunctionTemplate@v8@@QEAA?AV?$Local@VFunction@v8@@@2@XZ 0000000180053d68     node:node.exe
 0003:00000d70       __imp_?New@FunctionTemplate@v8@@SA?AV?$Local@VFunctionTemplate@v8@@@2@PEAVIsolate@2@P6AXAEBV?$FunctionCallbackInfo@VValue@v8@@@2@@ZV?$Local@VValue@v8@@@2@V?$Local@VSignature@v8@@@2@HW4ConstructorBehavior@2@@Z 0000000180053d70     node:node.exe
 0003:00000d78       __imp_?ToLocalEmpty@V8@v8@@CAXXZ 0000000180053d78     node:node.exe
 0003:00000d80       __imp_?ClearWeak@V8@v8@@CAPEAXPEAPEAVObject@internal@2@@Z 0000000180053d80     node:node.exe
 0003:00000d88       __imp_?MakeWeak@V8@v8@@CAXPEAPEAVObject@internal@2@PEAXP6AXAEBV?$WeakCallbackInfo@X@2@@ZW4WeakCallbackType@2@@Z 0000000180053d88     node:node.exe
 0003:00000d90       __imp_?DisposeGlobal@V8@v8@@CAXPEAPEAVObject@internal@2@@Z 0000000180053d90     node:node.exe
 0003:00000d98       __imp_?GlobalizeReference@V8@v8@@CAPEAPEAVObject@internal@2@PEAVIsolate@42@PEAPEAV342@@Z 0000000180053d98     node:node.exe
 0003:00000da0       __imp_?NumberValue@Value@v8@@QEBANXZ 0000000180053da0     node:node.exe
 0003:00000da8       __imp_?BooleanValue@Value@v8@@QEBA_NXZ 0000000180053da8     node:node.exe
 0003:00000db0       __imp_?ToInt32@Value@v8@@QEBA?AV?$MaybeLocal@VInt32@v8@@@2@V?$Local@VContext@v8@@@2@@Z 0000000180053db0     node:node.exe
 0003:00000db8       __imp_?Escape@EscapableHandleScope@v8@@AEAAPEAPEAVObject@internal@2@PEAPEAV342@@Z 0000000180053db8     node:node.exe
 0003:00000dc0       __imp_??0EscapableHandleScope@v8@@QEAA@PEAVIsolate@1@@Z 0000000180053dc0     node:node.exe
 0003:00000dc8       __imp_?NewFromUtf8@String@v8@@SA?AV?$MaybeLocal@VString@v8@@@2@PEAVIsolate@2@PEBDW4NewStringType@2@H@Z 0000000180053dc8     node:node.exe
 0003:00000dd0       __imp_?New@Number@v8@@SA?AV?$Local@VNumber@v8@@@2@PEAVIsolate@2@N@Z 0000000180053dd0     node:node.exe
 0003:00000dd8       __imp_?Value@Number@v8@@QEBANXZ 0000000180053dd8     node:node.exe
 0003:00000de0       __imp_?SlowGetAlignedPointerFromInternalField@Object@v8@@AEAAPEAXH@Z 0000000180053de0     node:node.exe
 0003:00000de8       __imp_?SlowGetInternalField@Object@v8@@AEAA?AV?$Local@VValue@v8@@@2@H@Z 0000000180053de8     node:node.exe
 0003:00000df0       __imp_?SetAlignedPointerInInternalField@Object@v8@@QEAAXHPEAX@Z 0000000180053df0     node:node.exe
 0003:00000df8       __imp_?SetInternalField@Object@v8@@QEAAXHV?$Local@VValue@v8@@@2@@Z 0000000180053df8     node:node.exe
 0003:00000e00       __imp_?InternalFieldCount@Object@v8@@QEAAHXZ 0000000180053e00     node:node.exe
 0003:00000e08       __imp_?Set@Object@v8@@QEAA_NV?$Local@VValue@v8@@@2@0@Z 0000000180053e08     node:node.exe
 0003:00000e10       __imp_?Set@Object@v8@@QEAA_NIV?$Local@VValue@v8@@@2@@Z 0000000180053e10     node:node.exe
 0003:00000e18       __imp_?SetInternalFieldCount@ObjectTemplate@v8@@QEAAXH@Z 0000000180053e18     node:node.exe
 0003:00000e20       __imp_?NewInstance@ObjectTemplate@v8@@QEAA?AV?$MaybeLocal@VObject@v8@@@2@V?$Local@VContext@v8@@@2@@Z 0000000180053e20     node:node.exe
 0003:00000e28       __imp_?New@ObjectTemplate@v8@@SA?AV?$Local@VObjectTemplate@v8@@@2@PEAVIsolate@2@V?$Local@VFunctionTemplate@v8@@@2@@Z 0000000180053e28     node:node.exe
 0003:00000e30       __imp_?Data@Buffer@node@@YAPEADV?$Local@VObject@v8@@@v8@@@Z 0000000180053e30     node:node.exe
 0003:00000e38       __imp_?Copy@Buffer@node@@YA?AV?$MaybeLocal@VObject@v8@@@v8@@PEAVIsolate@4@PEBD_K@Z 0000000180053e38     node:node.exe
 0003:00000e40       __imp_?GetCurrentEventLoop@node@@YAPEAUuv_loop_s@@PEAVIsolate@v8@@@Z 0000000180053e40     node:node.exe
 0003:00000e48       __imp_??1EscapableHandleScope@v8@@QEAA@XZ 0000000180053e48     node:node.exe
 0003:00000e50       __imp_?Global@Context@v8@@QEAA?AV?$Local@VObject@v8@@@2@XZ 0000000180053e50     node:node.exe
 0003:00000e58       __imp_?Error@Exception@v8@@SA?AV?$Local@VValue@v8@@@2@V?$Local@VString@v8@@@2@@Z 0000000180053e58     node:node.exe
 0003:00000e60       __imp_?New@Object@v8@@SA?AV?$Local@VObject@v8@@@2@PEAVIsolate@2@@Z 0000000180053e60     node:node.exe
 0003:00000e68       __imp_?MakeCallback@node@@YA?AV?$Local@VValue@v8@@@v8@@PEAVIsolate@3@V?$Local@VObject@v8@@@3@V?$Local@VFunction@v8@@@3@HPEAV23@@Z 0000000180053e68     node:node.exe
 0003:00000e70       \177node_NULL_THUNK_DATA_DLA 0000000180053e70     node:node.exe
 0003:00000e80       __hmod__node_exe           0000000180053e80     node:node.exe
 0003:00000ed0       __scrt_current_native_startup_state 0000000180053ed0     LIBCMT:utility.obj
 0003:00000ed8       __scrt_native_startup_lock 0000000180053ed8     LIBCMT:utility.obj
 0003:00001490       __scrt_debugger_hook_flag  0000000180054490     LIBCMT:utility_desktop.obj
 0003:00001494       _tls_index                 0000000180054494     LIBCMT:tlssup.obj
 0003:00001498       __favor                    0000000180054498     LIBCMT:_cpu_disp_.obj
 0003:000014a0       ?__type_info_root_node@@3U__type_info_node@@A 00000001800544a0     LIBCMT:tncleanup.obj
 0003:000014b0       ?_OptionsStorage@?1??__local_stdio_scanf_options@@9@4_KA 00000001800544b0     LIBCMT:default_local_stdio_options.obj
 0003:000014b8       ?g_OutOfMemoryExceptionCallback@@3P6APEAXXZEA 00000001800544b8     libvcruntime:frame.obj
 0003:000015a8       __pPurecall                00000001800545a8     libvcruntime:purevirt_data.obj
 0003:000015e0       ?pArgList@UnDecorator@@0PEAVReplicator@@EA 00000001800545e0     libvcruntime:undname.obj
 0003:000015e8       ?pZNameList@UnDecorator@@0PEAVReplicator@@EA 00000001800545e8     libvcruntime:undname.obj
 0003:000015f0       ?pTemplateArgList@UnDecorator@@0PEAVReplicator@@EA 00000001800545f0     libvcruntime:undname.obj
 0003:000015f8       ?gName@UnDecorator@@0PEBDEB 00000001800545f8     libvcruntime:undname.obj
 0003:00001600       ?name@UnDecorator@@0PEBDEB 0000000180054600     libvcruntime:undname.obj
 0003:00001608       ?outputString@UnDecorator@@0PEADEA 0000000180054608     libvcruntime:undname.obj
 0003:00001610       ?maxStringLength@UnDecorator@@0HA 0000000180054610     libvcruntime:undname.obj
 0003:00001614       ?disableFlags@UnDecorator@@0KA 0000000180054614     libvcruntime:undname.obj
 0003:00001618       ?fExplicitTemplateParams@UnDecorator@@0_NA 0000000180054618     libvcruntime:undname.obj
 0003:00001619       ?fGetTemplateArgumentList@UnDecorator@@0_NA 0000000180054619     libvcruntime:undname.obj
 0003:00001620       ?m_pGetParameter@UnDecorator@@0P6APEADJ@ZEA 0000000180054620     libvcruntime:undname.obj
 0003:00001650       _nstream                   0000000180054650     libucrt:_file.obj
 0003:00001658       __piob                     0000000180054658     libucrt:_file.obj
 0003:00001660       _cflush                    0000000180054660     libucrt:_file.obj
 0003:00001798       _environ_table             0000000180054798     libucrt:environment_initialization.obj
 0003:000017a0       _wenviron_table            00000001800547a0     libucrt:environment_initialization.obj
 0003:000017a8       __dcrt_initial_wide_environment 00000001800547a8     libucrt:environment_initialization.obj
 0003:000017b0       __dcrt_initial_narrow_environment 00000001800547b0     libucrt:environment_initialization.obj
 0003:000017b8       __acrt_atexit_table        00000001800547b8     libucrt:onexit.obj
 0003:000017d0       __acrt_at_quick_exit_table 00000001800547d0     libucrt:onexit.obj
 0003:000019a0       __pioinfo                  00000001800549a0     libucrt:ioinit.obj
 0003:00001da0       _nhandle                   0000000180054da0     libucrt:ioinit.obj
 0003:00001db0       __acrt_stdout_buffer       0000000180054db0     libucrt:_sftbuf.obj
 0003:00001db8       __acrt_stderr_buffer       0000000180054db8     libucrt:_sftbuf.obj
 0003:00001dc0       __acrt_locale_changed_data 0000000180054dc0     libucrt:wsetlocale.obj
 0003:00001dc8       __acrt_current_locale_data 0000000180054dc8     libucrt:nlsdata.obj
 0003:0000200c       __mbcodepage               000000018005500c     libucrt:mbctype.obj
 0003:00002010       __ismbcodepage             0000000180055010     libucrt:mbctype.obj
 0003:00002018       __mbulinfo                 0000000180055018     libucrt:mbctype.obj
 0003:00002028       __mblocalename             0000000180055028     libucrt:mbctype.obj
 0003:00002034       __argc                     0000000180055034     libucrt:argv_data.obj
 0003:00002038       __argv                     0000000180055038     libucrt:argv_data.obj
 0003:00002040       __wargv                    0000000180055040     libucrt:argv_data.obj
 0003:00002048       _acmdln                    0000000180055048     libucrt:argv_data.obj
 0003:00002050       _wcmdln                    0000000180055050     libucrt:argv_data.obj
 0003:00002058       _pgmptr                    0000000180055058     libucrt:argv_data.obj
 0003:00002060       __acrt_heap                0000000180055060     libucrt:heap_handle.obj
 0003:00002074       _commode                   0000000180055074     libucrt:ncommode.obj
 0003:00002078       __acrt_lconv_static_null   0000000180055078     libucrt:localeconv.obj
 0003:0000207c       __acrt_lconv_static_W_null 000000018005507c     libucrt:localeconv.obj
 0003:00002080       _umaskval                  0000000180055080     libucrt:umask.obj
 0003:00002084       _fmode                     0000000180055084     libucrt:txtmode.obj
 0003:00002088       __fma3_is_available        0000000180055088     libucrt:fma3_available.obj
 0003:0000208c       __use_fma3_lib             000000018005508c     libucrt:fma3_available.obj
 0003:00002090       ?DloadKernel32@@3PEAUHINSTANCE__@@EA 0000000180055090     DelayImp:delayhlp.obj
 0003:00002098       ?DloadAcquireSRWLockExclusive@@3P6AXPEA_K@ZEA 0000000180055098     DelayImp:delayhlp.obj
 0003:000020a0       ?DloadReleaseSRWLockExclusive@@3P6AXPEA_K@ZEA 00000001800550a0     DelayImp:delayhlp.obj
 0003:000020a8       ?DloadSrwLock@@3_KA        00000001800550a8     DelayImp:delayhlp.obj
 0003:000020b0       ?DloadSectionLockCount@@3KA 00000001800550b0     DelayImp:delayhlp.obj
 0003:000020b4       ?DloadSectionOldProtection@@3KA 00000001800550b4     DelayImp:delayhlp.obj
 0003:000020b8       ?DloadSectionCommitPermanent@@3KA 00000001800550b8     DelayImp:delayhlp.obj
 0003:000020bc       ?mode@?1??_exception_mode@cimg@cimg_library@@YAAEAII_N@Z@4IA 00000001800550bc     image.obj
 0003:000020c0       ?$TSS0@?1??Mutex_attr@cimg@cimg_library@@YAAEAUMutex_info@23@XZ@4HA 00000001800550c0     image.obj
 0003:000020c4       ?$TSS0@?1??output@cimg@cimg_library@@YAPEAU_iobuf@@PEAU4@@Z@4HA 00000001800550c4     image.obj
 0003:000020c8       ?s_path@?1??temporary_path@cimg@cimg_library@@YAPEBDQEBD_N@Z@4U?$CImg@D@3@A 00000001800550c8     image.obj
 0003:000020f0       ?val@?1??Mutex_attr@cimg@cimg_library@@YAAEAUMutex_info@23@XZ@4U423@A 00000001800550f0     image.obj
 0003:000021f0       ?$TSS0@?1??medcon_path@cimg@cimg_library@@YAPEBDQEBD_N@Z@4HA 00000001800551f0     image.obj
 0003:000021f4       ?$TSS0@?1??imagemagick_path@cimg@cimg_library@@YAPEBDQEBD_N@Z@4HA 00000001800551f4     image.obj
 0003:000021f8       ?_OptionsStorage@?1??__local_stdio_printf_options@@9@4_KA 00000001800551f8     image.obj
 0003:00002200       ?s_path@?1??graphicsmagick_path@cimg@cimg_library@@YAPEBDQEBD_N@Z@4U?$CImg@D@3@A 0000000180055200     image.obj
 0003:00002220       ?randomid@?1??filenamerand@cimg@cimg_library@@YAPEBDXZ@4PADA 0000000180055220     image.obj
 0003:0000222c       ?$TSS0@?1??temporary_path@cimg@cimg_library@@YAPEBDQEBD_N@Z@4HA 000000018005522c     image.obj
 0003:00002230       ?$TSS0@?1??graphicsmagick_path@cimg@cimg_library@@YAPEBDQEBD_N@Z@4HA 0000000180055230     image.obj
 0003:00002238       ?res@?1??strbuffersize@cimg@cimg_library@@YAPEBDK@Z@4U?$CImg@D@3@A 0000000180055238     image.obj
 0003:00002258       ?$TSS0@?1??strbuffersize@cimg@cimg_library@@YAPEBDK@Z@4HA 0000000180055258     image.obj
 0003:00002260       ?s_path@?1??imagemagick_path@cimg@cimg_library@@YAPEBDQEBD_N@Z@4U?$CImg@D@3@A 0000000180055260     image.obj
 0003:00002280       ?$TSS0@?1??programfiles_path@cimg@cimg_library@@YAPEBDQEBD_N@Z@4HA 0000000180055280     image.obj
 0003:00002288       ?s_path@?1??programfiles_path@cimg@cimg_library@@YAPEBDQEBD_N@Z@4U?$CImg@D@3@A 0000000180055288     image.obj
 0003:000022a8       ?s_path@?1??medcon_path@cimg@cimg_library@@YAPEBDQEBD_N@Z@4U?$CImg@D@3@A 00000001800552a8     image.obj
 0003:000022c8       ?res@?1??output@cimg@cimg_library@@YAPEAU_iobuf@@PEAU4@@Z@4PEAU4@EA 00000001800552c8     image.obj
 0003:000022d0       ?constructor@LwipImage@@0V?$Persistent@VFunctionTemplate@v8@@V?$NonCopyablePersistentTraits@VFunctionTemplate@v8@@@2@@Nan@@A 00000001800552d0     image.obj
 0003:000022d8       __dyn_tls_init_callback    00000001800552d8     <common>
 0003:000022e0       __scrt_ucrt_dll_is_in_use  00000001800552e0     <common>
 0006:00000000       _tls_start                 000000018005a000     LIBCMT:tlssup.obj
 0006:00000004       _Init_thread_epoch         000000018005a004     LIBCMT:thread_safe_statics.obj
 0006:00000008       _tls_end                   000000018005a008     LIBCMT:tlssup.obj

 entry point at        0001:00012450

 Static symbols

 0000:fffa3000       .debug$S                   0000000180000000     node:node.exe
 0000:fffa3000       .debug$S                   0000000180000000     node:node.exe
 0000:fffa3000       .debug$S                   0000000180000000     node:node.exe
 0000:fffa3000       .debug$S                   0000000180000000     node:node.exe
 0000:fffa3000       .debug$S                   0000000180000000     node:node.exe
 0000:fffa3000       .debug$S                   0000000180000000     node:node.exe
 0000:fffa3000       .debug$S                   0000000180000000     node:node.exe
 0000:fffa3000       .debug$S                   0000000180000000     node:node.exe
 0000:fffa3000       .debug$S                   0000000180000000     node:node.exe
 0000:fffa3000       .debug$S                   0000000180000000     node:node.exe
 0000:fffa3000       .debug$S                   0000000180000000     lwip_image.exp
 0000:fffa3000       .debug$S                   0000000180000000     kernel32:KERNEL32.dll
 0000:fffa3000       .debug$S                   0000000180000000     kernel32:KERNEL32.dll
 0000:fffa3000       .debug$S                   0000000180000000     node:node.exe
 0000:fffa3000       .debug$S                   0000000180000000     node:node.exe
 0000:fffa3000       .debug$S                   0000000180000000     node:node.exe
 0000:fffa3000       .debug$S                   0000000180000000     node:node.exe
 0000:fffa3000       .debug$S                   0000000180000000     node:node.exe
 0000:fffa3000       .debug$S                   0000000180000000     node:node.exe
 0000:fffa3000       .debug$S                   0000000180000000     kernel32:KERNEL32.dll
 0000:fffa3000       .debug$S                   0000000180000000     kernel32:KERNEL32.dll
 0000:fffa3000       .debug$S                   0000000180000000     node:node.exe
 0000:fffa3000       .debug$S                   0000000180000000     kernel32:KERNEL32.dll
 0000:fffa3000       .debug$S                   0000000180000000     kernel32:KERNEL32.dll
 0000:fffa3000       .debug$S                   0000000180000000     kernel32:KERNEL32.dll
 0000:fffa3000       .debug$S                   0000000180000000     kernel32:KERNEL32.dll
 0000:fffa3000       .debug$S                   0000000180000000     kernel32:KERNEL32.dll
 0000:fffa3000       .debug$S                   0000000180000000     kernel32:KERNEL32.dll
 0000:fffa3000       .debug$S                   0000000180000000     kernel32:KERNEL32.dll
 0000:fffa3000       .debug$S                   0000000180000000     kernel32:KERNEL32.dll
 0000:fffa3000       .debug$S                   0000000180000000     kernel32:KERNEL32.dll
 0000:fffa3000       .debug$S                   0000000180000000     kernel32:KERNEL32.dll
 0000:fffa3000       .debug$S                   0000000180000000     node:node.exe
 0000:fffa3000       .debug$S                   0000000180000000     node:node.exe
 0000:fffa3000       .debug$S                   0000000180000000     node:node.exe
 0000:fffa3000       .debug$S                   0000000180000000     node:node.exe
 0000:fffa3000       .debug$S                   0000000180000000     kernel32:KERNEL32.dll
 0000:fffa3000       .debug$S                   0000000180000000     kernel32:KERNEL32.dll
 0000:fffa3000       .debug$S                   0000000180000000     kernel32:KERNEL32.dll
 0000:fffa3000       .debug$S                   0000000180000000     kernel32:KERNEL32.dll
 0000:fffa3000       .debug$S                   0000000180000000     kernel32:KERNEL32.dll
 0000:fffa3000       .debug$S                   0000000180000000     kernel32:KERNEL32.dll
 0000:fffa3000       .debug$S                   0000000180000000     kernel32:KERNEL32.dll
 0000:fffa3000       .debug$S                   0000000180000000     kernel32:KERNEL32.dll
 0000:fffa3000       .debug$S                   0000000180000000     kernel32:KERNEL32.dll
 0000:fffa3000       .debug$S                   0000000180000000     kernel32:KERNEL32.dll
 0000:fffa3000       .debug$S                   0000000180000000     kernel32:KERNEL32.dll
 0000:fffa3000       .debug$S                   0000000180000000     kernel32:KERNEL32.dll
 0000:fffa3000       .debug$S                   0000000180000000     kernel32:KERNEL32.dll
 0000:fffa3000       .debug$S                   0000000180000000     kernel32:KERNEL32.dll
 0000:fffa3000       .debug$S                   0000000180000000     kernel32:KERNEL32.dll
 0000:fffa3000       .debug$S                   0000000180000000     kernel32:KERNEL32.dll
 0000:fffa3000       .debug$S                   0000000180000000     node:node.exe
 0000:fffa3000       .debug$S                   0000000180000000     kernel32:KERNEL32.dll
 0000:fffa3000       .debug$S                   0000000180000000     kernel32:KERNEL32.dll
 0000:fffa3000       .debug$S                   0000000180000000     node:node.exe
 0000:fffa3000       .debug$S                   0000000180000000     node:node.exe
 0000:fffa3000       .debug$S                   0000000180000000     node:node.exe
 0000:fffa3000       .debug$S                   0000000180000000     node:node.exe
 0000:fffa3000       .debug$S                   0000000180000000     node:node.exe
 0000:fffa3000       .debug$S                   0000000180000000     node:node.exe
 0000:fffa3000       .debug$S                   0000000180000000     node:node.exe
 0000:fffa3000       .debug$S                   0000000180000000     node:node.exe
 0000:fffa3000       .debug$S                   0000000180000000     shell32:SHELL32.dll
 0000:fffa3000       .debug$S                   0000000180000000     kernel32:KERNEL32.dll
 0000:fffa3000       .debug$S                   0000000180000000     kernel32:KERNEL32.dll
 0000:fffa3000       .debug$S                   0000000180000000     kernel32:KERNEL32.dll
 0000:fffa3000       .debug$S                   0000000180000000     kernel32:KERNEL32.dll
 0000:fffa3000       .debug$S                   0000000180000000     kernel32:KERNEL32.dll
 0000:fffa3000       .debug$S                   0000000180000000     kernel32:KERNEL32.dll
 0000:fffa3000       .debug$S                   0000000180000000     kernel32:KERNEL32.dll
 0000:fffa3000       .debug$S                   0000000180000000     kernel32:KERNEL32.dll
 0000:fffa3000       .debug$S                   0000000180000000     kernel32:KERNEL32.dll
 0000:fffa3000       .debug$S                   0000000180000000     kernel32:KERNEL32.dll
 0000:fffa3000       .debug$S                   0000000180000000     kernel32:KERNEL32.dll
 0000:fffa3000       .debug$S                   0000000180000000     node:node.exe
 0000:fffa3000       .debug$S                   0000000180000000     kernel32:KERNEL32.dll
 0000:fffa3000       .debug$S                   0000000180000000     kernel32:KERNEL32.dll
 0000:fffa3000       .debug$S                   0000000180000000     kernel32:KERNEL32.dll
 0000:fffa3000       .debug$S                   0000000180000000     kernel32:KERNEL32.dll
 0000:fffa3000       .debug$S                   0000000180000000     kernel32:KERNEL32.dll
 0000:fffa3000       .debug$S                   0000000180000000     kernel32:KERNEL32.dll
 0000:fffa3000       .debug$S                   0000000180000000     kernel32:KERNEL32.dll
 0000:fffa3000       .debug$S                   0000000180000000     kernel32:KERNEL32.dll
 0000:fffa3000       .debug$S                   0000000180000000     kernel32:KERNEL32.dll
 0000:fffa3000       .debug$S                   0000000180000000     kernel32:KERNEL32.dll
 0000:fffa3000       .debug$S                   0000000180000000     node:node.exe
 0000:fffa3000       .debug$S                   0000000180000000     kernel32:KERNEL32.dll
 0000:fffa3000       .debug$S                   0000000180000000     kernel32:KERNEL32.dll
 0000:fffa3000       .debug$S                   0000000180000000     kernel32:KERNEL32.dll
 0000:fffa3000       .debug$S                   0000000180000000     node:node.exe
 0000:fffa3000       .debug$S                   0000000180000000     kernel32:KERNEL32.dll
 0000:fffa3000       .debug$S                   0000000180000000     kernel32:KERNEL32.dll
 0000:fffa3000       .debug$S                   0000000180000000     kernel32:KERNEL32.dll
 0000:fffa3000       .debug$S                   0000000180000000     node:node.exe
 0000:fffa3000       .debug$S                   0000000180000000     node:node.exe
 0000:fffa3000       .debug$S                   0000000180000000     kernel32:KERNEL32.dll
 0000:fffa3000       .debug$S                   0000000180000000     node:node.exe
 0000:fffa3000       .debug$S                   0000000180000000     kernel32:KERNEL32.dll
 0000:fffa3000       .debug$S                   0000000180000000     node:node.exe
 0000:fffa3000       .debug$S                   0000000180000000     kernel32:KERNEL32.dll
 0000:fffa3000       .debug$S                   0000000180000000     kernel32:KERNEL32.dll
 0000:fffa3000       .debug$S                   0000000180000000     kernel32:KERNEL32.dll
 0000:fffa3000       .debug$S                   0000000180000000     kernel32:KERNEL32.dll
 0000:fffa3000       .debug$S                   0000000180000000     kernel32:KERNEL32.dll
 0000:fffa3000       .debug$S                   0000000180000000     node:node.exe
 0000:fffa3000       .debug$S                   0000000180000000     kernel32:KERNEL32.dll
 0000:fffa3000       .debug$S                   0000000180000000     kernel32:KERNEL32.dll
 0000:fffa3000       .debug$S                   0000000180000000     kernel32:KERNEL32.dll
 0000:fffa3000       .debug$S                   0000000180000000     kernel32:KERNEL32.dll
 0000:fffa3000       .debug$S                   0000000180000000     kernel32:KERNEL32.dll
 0000:fffa3000       .debug$S                   0000000180000000     kernel32:KERNEL32.dll
 0000:fffa3000       .debug$S                   0000000180000000     kernel32:KERNEL32.dll
 0000:fffa3000       .debug$S                   0000000180000000     kernel32:KERNEL32.dll
 0000:fffa3000       .debug$S                   0000000180000000     node:node.exe
 0000:fffa3000       .debug$S                   0000000180000000     kernel32:KERNEL32.dll
 0000:fffa3000       .debug$S                   0000000180000000     node:node.exe
 0000:fffa3000       .debug$S                   0000000180000000     kernel32:KERNEL32.dll
 0000:fffa3000       .debug$S                   0000000180000000     kernel32:KERNEL32.dll
 0000:fffa3000       .debug$S                   0000000180000000     kernel32:KERNEL32.dll
 0000:fffa3000       .debug$S                   0000000180000000     kernel32:KERNEL32.dll
 0000:fffa3000       .debug$S                   0000000180000000     node:node.exe
 0000:fffa3000       .debug$S                   0000000180000000     node:node.exe
 0000:fffa3000       .debug$S                   0000000180000000     node:node.exe
 0000:fffa3000       .debug$S                   0000000180000000     kernel32:KERNEL32.dll
 0000:fffa3000       .debug$S                   0000000180000000     node:node.exe
 0000:fffa3000       .debug$S                   0000000180000000     node:node.exe
 0000:fffa3000       .debug$S                   0000000180000000     kernel32:KERNEL32.dll
 0000:fffa3000       .debug$S                   0000000180000000     kernel32:KERNEL32.dll
 0000:fffa3000       .debug$S                   0000000180000000     node:node.exe
 0000:fffa3000       .debug$S                   0000000180000000     kernel32:KERNEL32.dll
 0000:fffa3000       .debug$S                   0000000180000000     node:node.exe
 0000:fffa3000       .debug$S                   0000000180000000     node:node.exe
 0000:fffa3000       .debug$S                   0000000180000000     kernel32:KERNEL32.dll
 0000:fffa3000       .debug$S                   0000000180000000     kernel32:KERNEL32.dll
 0000:fffa3000       .debug$S                   0000000180000000     kernel32:KERNEL32.dll
 0000:fffa3000       .debug$S                   0000000180000000     kernel32:KERNEL32.dll
 0000:fffa3000       .debug$S                   0000000180000000     kernel32:KERNEL32.dll
 0000:fffa3000       .debug$S                   0000000180000000     kernel32:KERNEL32.dll
 0000:fffa3000       .debug$S                   0000000180000000     kernel32:KERNEL32.dll
 0000:fffa3000       .debug$S                   0000000180000000     node:node.exe
 0000:fffa3000       .debug$S                   0000000180000000     kernel32:KERNEL32.dll
 0000:fffa3000       .debug$S                   0000000180000000     kernel32:KERNEL32.dll
 0000:fffa3000       .debug$S                   0000000180000000     kernel32:KERNEL32.dll
 0000:fffa3000       .debug$S                   0000000180000000     node:node.exe
 0000:fffa3000       .debug$S                   0000000180000000     kernel32:KERNEL32.dll
 0000:fffa3000       .debug$S                   0000000180000000     kernel32:KERNEL32.dll
 0000:fffa3000       .debug$S                   0000000180000000     kernel32:KERNEL32.dll
 0000:fffa3000       .debug$S                   0000000180000000     kernel32:KERNEL32.dll
 0000:fffa3000       .debug$S                   0000000180000000     kernel32:KERNEL32.dll
 0000:fffa3000       .debug$S                   0000000180000000     kernel32:KERNEL32.dll
 0000:fffa3000       .debug$S                   0000000180000000     node:node.exe
 0000:fffa3000       .debug$S                   0000000180000000     node:node.exe
 0000:fffa3000       .debug$S                   0000000180000000     kernel32:KERNEL32.dll
 0000:fffa3000       .debug$S                   0000000180000000     node:node.exe
 0000:fffa3000       .debug$S                   0000000180000000     kernel32:KERNEL32.dll
 0000:fffa3000       .debug$S                   0000000180000000     node:node.exe
 0000:fffa3000       .debug$S                   0000000180000000     kernel32:KERNEL32.dll
 0000:fffa3000       .debug$S                   0000000180000000     node:node.exe
 0000:fffa3000       .debug$S                   0000000180000000     node:node.exe
 0000:fffa3000       .debug$S                   0000000180000000     node:node.exe
 0000:fffa3000       .debug$S                   0000000180000000     node:node.exe
 0000:fffa3000       .debug$S                   0000000180000000     kernel32:KERNEL32.dll
 0000:fffa3000       .debug$S                   0000000180000000     kernel32:KERNEL32.dll
 0000:fffa3000       .debug$S                   0000000180000000     node:node.exe
 0001:00000000       ??__E?constructor@LwipImage@@0V?$Persistent@VFunctionTemplate@v8@@V?$NonCopyablePersistentTraits@VFunctionTemplate@v8@@@2@@Nan@@A@@YAXXZ 0000000180001000 f   image.obj
 0001:00000030       _register_lwip_image       0000000180001030 f   init.obj
 0001:00000430       ?FunctionCallbackWrapper@imp@Nan@@YAXAEBV?$FunctionCallbackInfo@VValue@v8@@@v8@@@Z 0000000180001430 f   image.obj
 0001:0000c1ec       $LN2521                    000000018000d1ec     resize_worker.obj
 0001:00011360       ?load_exe_hook@@YAP6A_JXZIPEAUDelayLoadInfo@@@Z 0000000180012360 f   win_delay_load_hook.obj
 0001:00011940       $$000000                   0000000180012940     LIBCMT:_amdsecgs_.obj
 0001:0001197c       ?__scrt_initialize_thread_safe_statics@@YAHXZ 000000018001297c f   LIBCMT:thread_safe_statics.obj
 0001:00011a9c       ?__scrt_uninitialize_thread_safe_statics@@YAXXZ 0000000180012a9c f   LIBCMT:thread_safe_statics.obj
 0001:00012104       ?dllmain_crt_dispatch@@YAHQEAUHINSTANCE__@@KQEAX@Z 0000000180013104 f   LIBCMT:dll_dllmain.obj
 0001:00012154       ?dllmain_crt_process_attach@@YAHQEAUHINSTANCE__@@QEAX@Z 0000000180013154 f   LIBCMT:dll_dllmain.obj
 0001:00012280       ?dllmain_crt_process_detach@@YAH_N@Z 0000000180013280 f   LIBCMT:dll_dllmain.obj
 0001:00012304       ?dllmain_dispatch@@YAHQEAUHINSTANCE__@@KQEAX@Z 0000000180013304 f   LIBCMT:dll_dllmain.obj
 0001:000123fc       ?dllmain_raw@@YAHQEAUHINSTANCE__@@KQEAX@Z 00000001800133fc f   LIBCMT:dll_dllmain.obj
 0001:00012648       capture_current_context    0000000180013648 f   LIBCMT:gs_report.obj
 0001:000126b8       capture_previous_context   00000001800136b8 f   LIBCMT:gs_report.obj
 0001:00012d68       ?CatchIt@@YAXPEAUEHExceptionRecord@@PEA_KPEAU_CONTEXT@@PEAU_xDISPATCHER_CONTEXT@@PEBU_s_FuncInfo@@PEBU_s_HandlerType@@PEBU_s_CatchableType@@PEBU_s_TryBlockMapEntry@@H1EE@Z 0000000180013d68 f   libvcruntime:frame.obj
 0001:00012e2c       ?ExFilterRethrow@@YAHPEAU_EXCEPTION_POINTERS@@PEAUEHExceptionRecord@@PEAH@Z 0000000180013e2c f   libvcruntime:frame.obj
 0001:00012eb4       ?FindHandler@@YAXPEAUEHExceptionRecord@@PEA_KPEAU_CONTEXT@@PEAU_xDISPATCHER_CONTEXT@@PEBU_s_FuncInfo@@EH1@Z 0000000180013eb4 f   libvcruntime:frame.obj
 0001:00013384       ?FindHandlerForForeignException@@YAXPEAUEHExceptionRecord@@PEA_KPEAU_CONTEXT@@PEAU_xDISPATCHER_CONTEXT@@PEBU_s_FuncInfo@@HH1@Z 0000000180014384 f   libvcruntime:frame.obj
 0001:000135f0       ?IsInExceptionSpec@@YAEPEAUEHExceptionRecord@@PEBU_s_ESTypeList@@@Z 00000001800145f0 f   libvcruntime:frame.obj
 0001:00014120       $$000000                   0000000180015120     libvcruntime:memcpy.obj
 0001:000141c7       MoveSmall                  00000001800151c7     libvcruntime:memcpy.obj
 0001:00014930       ?try_get_function@@YAPEAXW4function_id@?A0x679b24ab@@QEBDQEBW4module_id@2@2@Z 0000000180015930 f   libvcruntime:winapi_downlevel.obj
 0001:00014df0       $$000000                   0000000180015df0     libvcruntime:memset.obj
 0001:00014edc       MsetTab                    0000000180015edc     libvcruntime:memset.obj
 0001:000152b0       $$000000                   00000001800162b0     libvcruntime:handlers.obj
 0001:000159b0       $$000000                   00000001800169b0     libvcruntime:_jmpuwind_.obj
 0001:00015b0c       ??$common_fsopen@D@@YAPEAU_iobuf@@QEBD0H@Z 0000000180016b0c f   libucrt:fopen.obj
 0001:00015f54       ??$common_vsprintf@Vformat_validation_base@__crt_stdio_output@@D@@YAH_KQEAD0QEBDQEAU__crt_locale_pointers@@1@Z 0000000180016f54 f   libucrt:output.obj
 0001:000166c0       ??R<lambda_0a64b6a4deda75c01876f29c44fc5eb3>@@QEBAHXZ 00000001800176c0 f   libucrt:output.obj
 0001:000167b0       ??R<lambda_dd75445284c072d0bd3768540cc698fa>@@QEBAHXZ 00000001800177b0 f   libucrt:output.obj
 0001:0001a120       $$000000                   000000018001b120     libucrt:strncpy.obj
 0001:0001a294       ??$common_assert_to_message_box@_W@@YAXQEB_W0IQEAX@Z 000000018001b294 f   libucrt:assert.obj
 0001:0001a358       ??$common_assert_to_message_box_build_string@_W@@YAXQEA_W_KQEB_W2IQEAX@Z 000000018001b358 f   libucrt:assert.obj
 0001:0001ab2c       ??$common_assert_to_stderr@_W@@YAXQEB_W0I@Z 000000018001bb2c f   libucrt:assert.obj
 0001:0001ac9c       ?get_assert_format@@YAPEB_W_W@Z 000000018001bc9c f   libucrt:assert.obj
 0001:0001adc0       ??$common_getenv@D@@YAPEADQEBD@Z 000000018001bdc0 f   libucrt:getenv.obj
 0001:0001ae2c       ??$common_getenv_nolock@D@@YAPEADQEBD@Z 000000018001be2c f   libucrt:getenv.obj
 0001:0001b4e8       ?atexit_exception_filter@@YAHK@Z 000000018001c4e8 f   libucrt:exit.obj
 0001:0001b4f4       ?common_exit@@YAXHW4_crt_exit_cleanup_mode@@W4_crt_exit_return_mode@@@Z 000000018001c4f4 f   libucrt:exit.obj
 0001:0001b660       ?exit_or_terminate_process@@YAXI@Z 000000018001c660 f   libucrt:exit.obj
 0001:0001b6ac       ?try_cor_exit_process@@YAXI@Z 000000018001c6ac f   libucrt:exit.obj
 0001:0001b744       ??$parse_command_line@D@@YAXPEADPEAPEAD0PEA_K2@Z 000000018001c744 f   libucrt:argv_parsing.obj
 0001:0001badc       ??$common_get_or_create_environment_nolock@D@@YAPEAPEADXZ 000000018001cadc f   libucrt:environment_initialization.obj
 0001:0001bb24       ??$common_initialize_environment_nolock@D@@YAHXZ 000000018001cb24 f   libucrt:environment_initialization.obj
 0001:0001bb90       ??$create_environment@D@@YAQEAPEADQEAD@Z 000000018001cb90 f   libucrt:environment_initialization.obj
 0001:0001bc8c       ??$free_environment@D@@YAXQEAPEAD@Z 000000018001cc8c f   libucrt:environment_initialization.obj
 0001:0001bc8c       ??$free_environment@_W@@YAXQEAPEA_W@Z 000000018001cc8c f   libucrt:environment_initialization.obj
 0001:0001bcd0       ??$initialize_environment_by_cloning_nolock@D@@YAHXZ 000000018001ccd0 f   libucrt:environment_initialization.obj
 0001:0001bda4       ??$uninitialize_environment_internal@D@@YAXAEAPEAPEAD@Z 000000018001cda4 f   libucrt:environment_initialization.obj
 0001:0001bdc0       ??$uninitialize_environment_internal@_W@@YAXAEAPEAPEA_W@Z 000000018001cdc0 f   libucrt:environment_initialization.obj
 0001:0001c000       ??R<lambda_4e60a939b0d047cfe11ddc22648dfba9>@@QEBAHXZ 000000018001d000 f   libucrt:onexit.obj
 0001:0001c2b0       initialize_global_variables 000000018001d2b0 f   libucrt:initialization.obj
 0001:0001c2c4       initialize_c               000000018001d2c4 f   libucrt:initialization.obj
 0001:0001c2e8       uninitialize_environment   000000018001d2e8 f   libucrt:initialization.obj
 0001:0001c2f8       initialize_pointers        000000018001d2f8 f   libucrt:initialization.obj
 0001:0001c34c       uninitialize_vcruntime     000000018001d34c f   libucrt:initialization.obj
 0001:0001c354       uninitialize_allocated_memory 000000018001d354 f   libucrt:initialization.obj
 0001:0001c3e4       uninitialize_c             000000018001d3e4 f   libucrt:initialization.obj
 0001:0001c3e4       initialize_environment     000000018001d3e4 f   libucrt:initialization.obj
 0001:0001c3e4       uninitialize_global_state_isolation 000000018001d3e4 f   libucrt:initialization.obj
 0001:0001c3e4       report_memory_leaks        000000018001d3e4 f   libucrt:initialization.obj
 0001:0001c3e4       initialize_global_state_isolation 000000018001d3e4 f   libucrt:initialization.obj
 0001:0001d21c       ?construct_ptd_array@@YAXQEAU__acrt_ptd@@@Z 000000018001e21c f   libucrt:per_thread_data.obj
 0001:0001d2ec       ?destroy_fls@@YAXPEAX@Z    000000018001e2ec f   libucrt:per_thread_data.obj
 0001:0001d30c       ?destroy_ptd_array@@YAXQEAU__acrt_ptd@@@Z 000000018001e30c f   libucrt:per_thread_data.obj
 0001:0001d404       ?replace_current_thread_locale_nolock@@YAXQEAU__acrt_ptd@@QEAU__crt_locale_data@@@Z 000000018001e404 f   libucrt:per_thread_data.obj
 0001:0001d7bc       ?find_or_allocate_unused_stream_nolock@@YA?AV__crt_stdio_stream@@XZ 000000018001e7bc f   libucrt:stream.obj
 0001:0001dbe0       ?try_get_function@@YAPEAXW4function_id@?A0x63058377@@QEBDQEBW4module_id@2@2@Z 000000018001ebe0 f   libucrt:winapi_thunks.obj
 0001:0001e6cc       common_flush_all           000000018001f6cc f   libucrt:fflush.obj
 0001:0001e834       ?initialize_inherited_file_handles_nolock@@YAXXZ 000000018001f834 f   libucrt:ioinit.obj
 0001:0001e920       ?initialize_stdio_handles_nolock@@YAXXZ 000000018001f920 f   libucrt:ioinit.obj
 0001:0001ee28       ?internal_isupper_l@@YA_NHQEAU__crt_locale_pointers@@@Z 000000018001fe28 f   libucrt:tolower_toupper.obj
 0001:0001f75c       ?fp_format_a@@YAHQEBNPEAD_KQEAD2H_NIQEAU__crt_locale_pointers@@@Z 000000018002075c f   libucrt:cvt.obj
 0001:0001fabc       ?fp_format_e@@YAHQEBNQEAD_K12H_NIQEAU__crt_locale_pointers@@@Z 0000000180020abc f   libucrt:cvt.obj
 0001:0001fb8c       ?fp_format_e_internal@@YAHQEAD_KH_NIQEAU_strflt@@2QEAU__crt_locale_pointers@@@Z 0000000180020b8c f   libucrt:cvt.obj
 0001:0001fd68       ?fp_format_f_internal@@YAHQEAD_KHQEAU_strflt@@_NQEAU__crt_locale_pointers@@@Z 0000000180020d68 f   libucrt:cvt.obj
 0001:0001feb0       ?fp_format_g@@YAHQEBNQEAD_K12H_NIQEAU__crt_locale_pointers@@@Z 0000000180020eb0 f   libucrt:cvt.obj
 0001:0001ffe8       ?fp_format_nan_or_infinity@@YAHW4__acrt_fp_class@@_NPEAD_K1@Z 0000000180020fe8 f   libucrt:cvt.obj
 0001:00020684       ??$common_xtox@K_W@@YAHKQEA_W_KI_N@Z 0000000180021684 f   libucrt:xtoa.obj
 0001:00020730       ??$common_xtox_s@K_W@@YAHKQEA_W_KI_N@Z 0000000180021730 f   libucrt:xtoa.obj
 0001:000209f4       ??$message_box_wait_thread@_W@@YAKQEAX@Z 00000001800219f4 f   libucrt:crtmbox.obj
 0001:00020b78       ??R<lambda_b721fa326cdb32351d23dfa67958c160>@@QEBAHXZ 0000000180021b78 f   libucrt:setvbuf.obj
 0001:0002120c       ?<helper_func_cdecl>@<lambda_2feae5270eb4d0d5532525f423405775>@@CAHPEBX0@Z 000000018002220c f   libucrt:argv_wildcards.obj
 0001:00021220       ??$common_expand_argv_wildcards@D@@YAHQEAPEADQEAPEAPEAD@Z 0000000180022220 f   libucrt:argv_wildcards.obj
 0001:0002142c       ??$copy_and_add_argument_to_buffer@D@@YAHQEBD0_KAEAV?$argument_list@D@?A0xca0879c4@@@Z 000000018002242c f   libucrt:argv_wildcards.obj
 0001:0002153c       ??$expand_argument_wildcards@D@@YAHQEAD0AEAV?$argument_list@D@?A0xca0879c4@@@Z 000000018002253c f   libucrt:argv_wildcards.obj
 0001:000217f0       ??R<lambda_ad1ced32f4ac17aa236e5ef05d6b3b7c>@@QEBAXXZ 00000001800227f0 f   libucrt:mbctype.obj
 0001:00021a08       ?getSystemCP@@YAHH@Z       0000000180022a08 f   libucrt:mbctype.obj
 0001:00021a88       ?setSBCS@@YAXPEAU__crt_multibyte_data@@@Z 0000000180022a88 f   libucrt:mbctype.obj
 0001:00021b18       ?setSBUpLow@@YAXPEAU__crt_multibyte_data@@@Z 0000000180022b18 f   libucrt:mbctype.obj
 0001:00021cfc       ?setmbcp_internal@@YAHH_N@Z 0000000180022cfc f   libucrt:mbctype.obj
 0001:00022244       ?x_ismbbtype_l@@YAHPEAU__crt_locale_pointers@@IHH@Z 0000000180023244 f   libucrt:ismbbyte.obj
 0001:000223fc       ??$common_set_variable_in_environment_nolock@D@@YAHQEADH@Z 00000001800233fc f   libucrt:setenv.obj
 0001:000226ec       ??$copy_environment@D@@YAPEAPEADQEAPEAD@Z 00000001800236ec f   libucrt:setenv.obj
 0001:00022fc0       $$000000                   0000000180023fc0     libucrt:strncmp.obj
 0001:000231c4       ??$common_sopen_dispatch@D@@YAHQEBDHHHQEAHH@Z 00000001800241c4 f   libucrt:open.obj
 0001:000232a4       ?configure_text_mode@@YAHHUfile_options@?A0x656cf9f4@@HAEAW4__crt_lowio_text_mode@@@Z 00000001800242a4 f   libucrt:open.obj
 0001:00023538       ?decode_options@@YA?AUfile_options@?A0x656cf9f4@@HHH@Z 0000000180024538 f   libucrt:open.obj
 0001:00023744       ?truncate_ctrl_z_if_present@@YAHH@Z 0000000180024744 f   libucrt:open.obj
 0001:00023cbc       ?GetTableIndexFromLocaleName@@YAHPEB_W@Z 0000000180024cbc f   libucrt:lcidtoname_downlevel.obj
 0001:00023ed8       ?write_double_translated_ansi_nolock@@YA?AUwrite_result@?A0x9c548279@@HQEBDI@Z 0000000180024ed8 f   libucrt:write.obj
 0001:000240e0       ?write_text_ansi_nolock@@YA?AUwrite_result@?A0x9c548279@@HQEBDI@Z 00000001800250e0 f   libucrt:write.obj
 0001:000241e8       ?write_text_utf16le_nolock@@YA?AUwrite_result@?A0x9c548279@@HQEBDI@Z 00000001800251e8 f   libucrt:write.obj
 0001:00024304       ?write_text_utf8_nolock@@YA?AUwrite_result@?A0x9c548279@@HQEBDI@Z 0000000180025304 f   libucrt:write.obj
 0001:00024d94       ?__acrt_LCMapStringA_stat@@YAHPEAU__crt_locale_pointers@@PEB_WKPEBDHPEADHHH@Z 0000000180025d94 f   libucrt:lcmapstringa.obj
 0001:00026a8c       memcpy_s                   0000000180027a8c f   libucrt:cfout.obj
 0001:00026b14       ??$write_buffer_nolock@D@@YA_NDV__crt_stdio_stream@@@Z 0000000180027b14 f   libucrt:_flsbuf.obj
 0001:00026c18       ??$write_buffer_nolock@_W@@YA_N_WV__crt_stdio_stream@@@Z 0000000180027c18 f   libucrt:_flsbuf.obj
 0001:000270d0       ?free_crt_array_internal@@YAXQEAPEBX_K@Z 00000001800280d0 f   libucrt:inittime.obj
 0001:000273e4       ?InternalCompareStringA@@YAHPEAU__crt_locale_pointers@@PEB_WKPEBDH2HH@Z 00000001800283e4 f   libucrt:comparestringa.obj
 0001:00027810       ?shortsort@@YAXPEAD0_KP6AHPEBX2@Z@Z 0000000180028810 f   libucrt:qsort.obj
 0001:00027e28       ?initialize_multibyte@@YAHXZ 0000000180028e28 f   libucrt:multibyte_initializer.obj
 0001:0002818c       ??$translate_text_mode_nolock@_W@@YAHHQEA_W_K@Z 000000018002918c f   libucrt:read.obj
 0001:000283bc       ?translate_ansi_or_utf8_nolock@@YAHHQEAD_KQEA_W1@Z 00000001800293bc f   libucrt:read.obj
 0001:00028b24       ??$common_lseek@_J@@YA_JH_JH@Z 0000000180029b24 f   libucrt:lseek.obj
 0001:00028c14       ??$common_lseek_nolock@_J@@YA_JH_JH@Z 0000000180029c14 f   libucrt:lseek.obj
 0001:00028ec0       $$000000                   0000000180029ec0     libucrt:log10.obj
 0001:0002965c       common_control87           000000018002a65c f   libucrt:ieee.obj
 0001:000298f4       _call_matherr              000000018002a8f4 f   libucrt:libm_error.obj
 0001:0002995c       _exception_enabled         000000018002a95c f   libucrt:libm_error.obj
 0001:00029d30       _log_special_common        000000018002ad30 f   libucrt:log_special.obj
 0001:00029dd0       $$000000                   000000018002add0     libucrt:fpsr.obj
 0001:0002aaa0       $$000000                   000000018002baa0     LIBCMT:_chkstk_.obj
 0001:0002ac50       $$000000                   000000018002bc50     libvcruntime:memcmp.obj
 0001:0002ae40       $$000000                   000000018002be40     libucrt:cos.obj
 0001:0002b3c0       $$000000                   000000018002c3c0     libucrt:cosf.obj
 0001:0002b8c0       $$000000                   000000018002c8c0     libucrt:expf.obj
 0001:0002bc20       $$000000                   000000018002cc20     libucrt:powf.obj
 0001:0002caf0       $$000000                   000000018002daf0     libucrt:sin.obj
 0001:0002d060       $$000000                   000000018002e060     libucrt:sinf.obj
 0001:0002d760       $$000000                   000000018002e760     libucrt:remainder_piby2_forasm.obj
 0001:0002dab0       $$000000                   000000018002eab0     libucrt:remainder_piby2_forfma3.obj
 0001:0002dd54       _sincos_special            000000018002ed54 f   libucrt:sincos_special.obj
 0001:0002ddf8       _sincosf_special           000000018002edf8 f   libucrt:sincos_special.obj
 0001:0002dea0       $$000000                   000000018002eea0     libucrt:remainder_piby2f_forasm.obj
 0001:0002e230       $$000000                   000000018002f230     libucrt:remainder_piby2f_forc.obj
 0001:0002e3c0       $$000000                   000000018002f3c0     LIBCMT:_guard_dispatch_.obj
 0001:0002e3e0       ?dtor$0@?0??convert@?$ToFactory@VInt32@v8@@@imp@Nan@@SA?AV?$MaybeLocal@VInt32@v8@@@v8@@V?$Local@VValue@v8@@@5@@Z@4HA 000000018002f3e0 f   image.obj
 0001:0002e3e0       ?dtor$0@?0??NewInstance@Nan@@YA?AV?$MaybeLocal@VObject@v8@@@v8@@V?$Local@VObjectTemplate@v8@@@3@@Z@4HA 000000018002f3e0 f   image.obj
 0001:0002e3f0       ?dtor$0@?0??New@?$Factory@VFunctionTemplate@v8@@@imp@Nan@@SA?AV?$Local@VFunctionTemplate@v8@@@v8@@P6AXAEBV?$FunctionCallbackInfo@VValue@v8@@@3@@ZV?$Local@VValue@v8@@@5@V?$Local@VSignature@v8@@@5@@Z@4HA 000000018002f3f0 f   image.obj
 0001:0002e400       ?dtor$0@?0??SetPrototypeMethod@Nan@@YAXV?$Local@VFunctionTemplate@v8@@@v8@@PEBDP6AXAEBV?$FunctionCallbackInfo@VValue@v8@@@1@@Z@Z@4HA 000000018002f400 f   image.obj
 0001:0002e410       ?dtor$0@?0???0CImgException@cimg_library@@QEAA@AEBU01@@Z@4HA 000000018002f410 f   image.obj
 0001:0002e410       ?dtor$1@?0???0CImgIOException@cimg_library@@QEAA@AEBU01@@Z@4HA 000000018002f410 f   image.obj
 0001:0002e410       ?dtor$1@?0???0CImgInstanceException@cimg_library@@QEAA@AEBU01@@Z@4HA 000000018002f410 f   image.obj
 0001:0002e410       ?dtor$1@?0???0CImgArgumentException@cimg_library@@QEAA@AEBU01@@Z@4HA 000000018002f410 f   image.obj
 0001:0002e420       ?dtor$1@?0???0CImgArgumentException@cimg_library@@QEAA@QEBDZZ@4HA 000000018002f420 f   image.obj
 0001:0002e420       ?dtor$1@?0???0CImgInstanceException@cimg_library@@QEAA@QEBDZZ@4HA 000000018002f420 f   image.obj
 0001:0002e420       ?dtor$1@?0???0CImgIOException@cimg_library@@QEAA@QEBDZZ@4HA 000000018002f420 f   image.obj
 0001:0002e42c       ?dtor$0@?0???0CImgArgumentException@cimg_library@@QEAA@QEBDZZ@4HA 000000018002f42c f   image.obj
 0001:0002e42c       ?dtor$0@?0???0CImgIOException@cimg_library@@QEAA@QEBDZZ@4HA 000000018002f42c f   image.obj
 0001:0002e42c       ?dtor$0@?0???0CImgInstanceException@cimg_library@@QEAA@QEBDZZ@4HA 000000018002f42c f   image.obj
 0001:0002e440       ?dtor$1@?0??temporary_path@cimg@cimg_library@@YAPEBDQEBD_N@Z@4HA 000000018002f440 f   image.obj
 0001:0002e44c       ?dtor$2@?0??temporary_path@cimg@cimg_library@@YAPEBDQEBD_N@Z@4HA 000000018002f44c f   image.obj
 0001:0002e460       ?dtor$0@?0??strbuffersize@cimg@cimg_library@@YAPEBDK@Z@4HA 000000018002f460 f   image.obj
 0001:0002e470       ?dtor$0@?0???0LwipImage@@QEAA@PEAE_K1@Z@4HA 000000018002f470 f   image.obj
 0001:0002e47c       ?dtor$1@?0???0LwipImage@@QEAA@PEAE_K1@Z@4HA 000000018002f47c f   image.obj
 0001:0002e4a0       ?dtor$1@?0??New@LwipImage@@SAXAEBV?$FunctionCallbackInfo@VValue@v8@@@Nan@@@Z@4HA 000000018002f4a0 f   image.obj
 0001:0002e4c0       ?dtor$1@?0??resize@LwipImage@@SAXAEBV?$FunctionCallbackInfo@VValue@v8@@@Nan@@@Z@4HA 000000018002f4c0 f   image.obj
 0001:0002e4dd       ?dtor$2@?0??resize@LwipImage@@SAXAEBV?$FunctionCallbackInfo@VValue@v8@@@Nan@@@Z@4HA 000000018002f4dd f   image.obj
 0001:0002e500       ?dtor$1@?0??rotate@LwipImage@@SAXAEBV?$FunctionCallbackInfo@VValue@v8@@@Nan@@@Z@4HA 000000018002f500 f   image.obj
 0001:0002e520       ?dtor$2@?0??rotate@LwipImage@@SAXAEBV?$FunctionCallbackInfo@VValue@v8@@@Nan@@@Z@4HA 000000018002f520 f   image.obj
 0001:0002e540       ?dtor$1@?0??mirror@LwipImage@@SAXAEBV?$FunctionCallbackInfo@VValue@v8@@@Nan@@@Z@4HA 000000018002f540 f   image.obj
 0001:0002e540       ?dtor$1@?0??sharpen@LwipImage@@SAXAEBV?$FunctionCallbackInfo@VValue@v8@@@Nan@@@Z@4HA 000000018002f540 f   image.obj
 0001:0002e540       ?dtor$1@?0??blur@LwipImage@@SAXAEBV?$FunctionCallbackInfo@VValue@v8@@@Nan@@@Z@4HA 000000018002f540 f   image.obj
 0001:0002e55d       ?dtor$2@?0??sharpen@LwipImage@@SAXAEBV?$FunctionCallbackInfo@VValue@v8@@@Nan@@@Z@4HA 000000018002f55d f   image.obj
 0001:0002e55d       ?dtor$2@?0??blur@LwipImage@@SAXAEBV?$FunctionCallbackInfo@VValue@v8@@@Nan@@@Z@4HA 000000018002f55d f   image.obj
 0001:0002e55d       ?dtor$2@?0??mirror@LwipImage@@SAXAEBV?$FunctionCallbackInfo@VValue@v8@@@Nan@@@Z@4HA 000000018002f55d f   image.obj
 0001:0002e580       ?dtor$1@?0??crop@LwipImage@@SAXAEBV?$FunctionCallbackInfo@VValue@v8@@@Nan@@@Z@4HA 000000018002f580 f   image.obj
 0001:0002e5a0       ?dtor$2@?0??crop@LwipImage@@SAXAEBV?$FunctionCallbackInfo@VValue@v8@@@Nan@@@Z@4HA 000000018002f5a0 f   image.obj
 0001:0002e5c0       ?dtor$1@?0??pad@LwipImage@@SAXAEBV?$FunctionCallbackInfo@VValue@v8@@@Nan@@@Z@4HA 000000018002f5c0 f   image.obj
 0001:0002e5e0       ?dtor$2@?0??pad@LwipImage@@SAXAEBV?$FunctionCallbackInfo@VValue@v8@@@Nan@@@Z@4HA 000000018002f5e0 f   image.obj
 0001:0002e600       ?dtor$1@?0??hslaAdj@LwipImage@@SAXAEBV?$FunctionCallbackInfo@VValue@v8@@@Nan@@@Z@4HA 000000018002f600 f   image.obj
 0001:0002e620       ?dtor$2@?0??hslaAdj@LwipImage@@SAXAEBV?$FunctionCallbackInfo@VValue@v8@@@Nan@@@Z@4HA 000000018002f620 f   image.obj
 0001:0002e640       ?dtor$1@?0??opacify@LwipImage@@SAXAEBV?$FunctionCallbackInfo@VValue@v8@@@Nan@@@Z@4HA 000000018002f640 f   image.obj
 0001:0002e65d       ?dtor$2@?0??opacify@LwipImage@@SAXAEBV?$FunctionCallbackInfo@VValue@v8@@@Nan@@@Z@4HA 000000018002f65d f   image.obj
 0001:0002e680       ?dtor$1@?0??paste@LwipImage@@SAXAEBV?$FunctionCallbackInfo@VValue@v8@@@Nan@@@Z@4HA 000000018002f680 f   image.obj
 0001:0002e6a0       ?dtor$2@?0??paste@LwipImage@@SAXAEBV?$FunctionCallbackInfo@VValue@v8@@@Nan@@@Z@4HA 000000018002f6a0 f   image.obj
 0001:0002e6c0       ?dtor$7@?0??paste@LwipImage@@SAXAEBV?$FunctionCallbackInfo@VValue@v8@@@Nan@@@Z@4HA 000000018002f6c0 f   image.obj
 0001:0002e6d0       ?dtor$1@?0??setPixel@LwipImage@@SAXAEBV?$FunctionCallbackInfo@VValue@v8@@@Nan@@@Z@4HA 000000018002f6d0 f   image.obj
 0001:0002e6f0       ?dtor$2@?0??setPixel@LwipImage@@SAXAEBV?$FunctionCallbackInfo@VValue@v8@@@Nan@@@Z@4HA 000000018002f6f0 f   image.obj
 0001:0002e710       ?catch$0@?0???0?$CImg@E@cimg_library@@QEAA@QEBEIIII_N@Z@4HA 000000018002f710 f   image.obj
 0001:0002e720       __catch$??0?$CImg@E@cimg_library@@QEAA@QEBEIIII_N@Z$0 000000018002f720 f   image.obj
 0001:0002e7e0       ?catch$0@?0??assign@?$CImg@D@cimg_library@@QEAAAEAU12@IIII@Z@4HA 000000018002f7e0 f   image.obj
 0001:0002e7ef       __catch$?assign@?$CImg@D@cimg_library@@QEAAAEAU12@IIII@Z$0 000000018002f7ef f   image.obj
 0001:0002e8b0       ?catch$7@?0???0?$CImg@D@cimg_library@@QEAA@IIII@Z@4HA 000000018002f8b0 f   image.obj
 0001:0002e8bf       __catch$??0?$CImg@D@cimg_library@@QEAA@IIII@Z$0 000000018002f8bf f   image.obj
 0001:0002e980       ?catch$0@?0???0?$CImg@E@cimg_library@@QEAA@AEBU01@@Z@4HA 000000018002f980 f   image.obj
 0001:0002e994       __catch$??0?$CImg@E@cimg_library@@QEAA@AEBU01@@Z$0 000000018002f994 f   image.obj
 0001:0002ea60       ?catch$0@?0???0?$CImg@E@cimg_library@@QEAA@IIII@Z@4HA 000000018002fa60 f   image.obj
 0001:0002ea74       __catch$??0?$CImg@E@cimg_library@@QEAA@IIII@Z$0 000000018002fa74 f   image.obj
 0001:0002eb40       ?dtor$0@?0??Call@Callback@Nan@@QEBA?AV?$Local@VValue@v8@@@v8@@HQEAV34@@Z@4HA 000000018002fb40 f   resize_worker.obj
 0001:0002eb50       ?dtor$0@?0??Call@Callback@Nan@@QEBA?AV?$MaybeLocal@VValue@v8@@@v8@@HQEAV?$Local@VValue@v8@@@4@PEAVAsyncResource@2@@Z@4HA 000000018002fb50 f   resize_worker.obj
 0001:0002eb60       ?dtor$0@?0??HandleOKCallback@AsyncWorker@Nan@@MEAAXXZ@4HA 000000018002fb60 f   resize_worker.obj
 0001:0002eb60       ?dtor$0@?0??HandleErrorCallback@AsyncWorker@Nan@@MEAAXXZ@4HA 000000018002fb60 f   resize_worker.obj
 0001:0002eb60       ?dtor$0@?0??Call_@Callback@Nan@@AEBA?AV?$Local@VValue@v8@@@v8@@PEAVIsolate@4@V?$Local@VObject@v8@@@4@HQEAV34@@Z@4HA 000000018002fb60 f   resize_worker.obj
 0001:0002eb60       ?dtor$0@?0??SaveToPersistent@AsyncWorker@Nan@@QEAAXPEBDAEBV?$Local@VValue@v8@@@v8@@@Z@4HA 000000018002fb60 f   paste_worker.obj
 0001:0002eb70       ?dtor$0@?0???0AsyncWorker@Nan@@QEAA@PEAVCallback@1@PEBD@Z@4HA 000000018002fb70 f   resize_worker.obj
 0001:0002eb83       ?dtor$1@?0???0AsyncWorker@Nan@@QEAA@PEAVCallback@1@PEBD@Z@4HA 000000018002fb83 f   resize_worker.obj
 0001:0002eb90       ?dtor$0@?0??WorkComplete@AsyncWorker@Nan@@UEAAXXZ@4HA 000000018002fb90 f   resize_worker.obj
 0001:0002eba0       ?catch$1@?0??Execute@ResizeWorker@@UEAAXXZ@4HA 000000018002fba0 f   resize_worker.obj
 0001:0002ebad       __catch$?Execute@ResizeWorker@@UEAAXXZ$0 000000018002fbad f   resize_worker.obj
 0001:0002ebd9       ?dtor$0@?0??Execute@ResizeWorker@@UEAAXXZ@4HA 000000018002fbd9 f   resize_worker.obj
 0001:0002ebf0       ?dtor$0@?0??crop@?$CImg@E@cimg_library@@QEAAAEAU12@HHHHHHHH_N@Z@4HA 000000018002fbf0 f   crop_worker.obj
 0001:0002ebf0       ?dtor$0@?0??resize@?$CImg@E@cimg_library@@QEAAAEAU12@HHHHHIMMMM@Z@4HA 000000018002fbf0 f   resize_worker.obj
 0001:0002ec00       ?catch$0@?0???0?$CImg@K@cimg_library@@QEAA@IIII@Z@4HA 000000018002fc00 f   resize_worker.obj
 0001:0002ec0f       __catch$??0?$CImg@K@cimg_library@@QEAA@IIII@Z$0 000000018002fc0f f   resize_worker.obj
 0001:0002ecd0       ?dtor$1@?0??get_resize@?$CImg@E@cimg_library@@QEBA?AU12@HHHHHIMMMM@Z@4HA 000000018002fcd0 f   resize_worker.obj
 0001:0002ecdc       ?dtor$11@?0??get_resize@?$CImg@E@cimg_library@@QEBA?AU12@HHHHHIMMMM@Z@4HA 000000018002fcdc f   resize_worker.obj
 0001:0002ece8       ?dtor$12@?0??get_resize@?$CImg@E@cimg_library@@QEBA?AU12@HHHHHIMMMM@Z@4HA 000000018002fce8 f   resize_worker.obj
 0001:0002ecf4       ?dtor$13@?0??get_resize@?$CImg@E@cimg_library@@QEBA?AU12@HHHHHIMMMM@Z@4HA 000000018002fcf4 f   resize_worker.obj
 0001:0002ed00       ?dtor$15@?0??get_resize@?$CImg@E@cimg_library@@QEBA?AU12@HHHHHIMMMM@Z@4HA 000000018002fd00 f   resize_worker.obj
 0001:0002ed0c       ?dtor$16@?0??get_resize@?$CImg@E@cimg_library@@QEBA?AU12@HHHHHIMMMM@Z@4HA 000000018002fd0c f   resize_worker.obj
 0001:0002ed18       ?dtor$17@?0??get_resize@?$CImg@E@cimg_library@@QEBA?AU12@HHHHHIMMMM@Z@4HA 000000018002fd18 f   resize_worker.obj
 0001:0002ed24       ?dtor$18@?0??get_resize@?$CImg@E@cimg_library@@QEBA?AU12@HHHHHIMMMM@Z@4HA 000000018002fd24 f   resize_worker.obj
 0001:0002ed30       ?dtor$19@?0??get_resize@?$CImg@E@cimg_library@@QEBA?AU12@HHHHHIMMMM@Z@4HA 000000018002fd30 f   resize_worker.obj
 0001:0002ed3c       ?dtor$20@?0??get_resize@?$CImg@E@cimg_library@@QEBA?AU12@HHHHHIMMMM@Z@4HA 000000018002fd3c f   resize_worker.obj
 0001:0002ed48       ?dtor$21@?0??get_resize@?$CImg@E@cimg_library@@QEBA?AU12@HHHHHIMMMM@Z@4HA 000000018002fd48 f   resize_worker.obj
 0001:0002ed54       ?dtor$22@?0??get_resize@?$CImg@E@cimg_library@@QEBA?AU12@HHHHHIMMMM@Z@4HA 000000018002fd54 f   resize_worker.obj
 0001:0002ed60       ?dtor$23@?0??get_resize@?$CImg@E@cimg_library@@QEBA?AU12@HHHHHIMMMM@Z@4HA 000000018002fd60 f   resize_worker.obj
 0001:0002ed6c       ?dtor$24@?0??get_resize@?$CImg@E@cimg_library@@QEBA?AU12@HHHHHIMMMM@Z@4HA 000000018002fd6c f   resize_worker.obj
 0001:0002ed78       ?dtor$25@?0??get_resize@?$CImg@E@cimg_library@@QEBA?AU12@HHHHHIMMMM@Z@4HA 000000018002fd78 f   resize_worker.obj
 0001:0002ed84       ?dtor$26@?0??get_resize@?$CImg@E@cimg_library@@QEBA?AU12@HHHHHIMMMM@Z@4HA 000000018002fd84 f   resize_worker.obj
 0001:0002ed90       ?dtor$27@?0??get_resize@?$CImg@E@cimg_library@@QEBA?AU12@HHHHHIMMMM@Z@4HA 000000018002fd90 f   resize_worker.obj
 0001:0002ed9c       ?dtor$28@?0??get_resize@?$CImg@E@cimg_library@@QEBA?AU12@HHHHHIMMMM@Z@4HA 000000018002fd9c f   resize_worker.obj
 0001:0002eda8       ?dtor$29@?0??get_resize@?$CImg@E@cimg_library@@QEBA?AU12@HHHHHIMMMM@Z@4HA 000000018002fda8 f   resize_worker.obj
 0001:0002edb4       ?dtor$30@?0??get_resize@?$CImg@E@cimg_library@@QEBA?AU12@HHHHHIMMMM@Z@4HA 000000018002fdb4 f   resize_worker.obj
 0001:0002edc0       ?dtor$31@?0??get_resize@?$CImg@E@cimg_library@@QEBA?AU12@HHHHHIMMMM@Z@4HA 000000018002fdc0 f   resize_worker.obj
 0001:0002edcc       ?dtor$32@?0??get_resize@?$CImg@E@cimg_library@@QEBA?AU12@HHHHHIMMMM@Z@4HA 000000018002fdcc f   resize_worker.obj
 0001:0002edd8       ?dtor$33@?0??get_resize@?$CImg@E@cimg_library@@QEBA?AU12@HHHHHIMMMM@Z@4HA 000000018002fdd8 f   resize_worker.obj
 0001:0002ee07       ?dtor$34@?0??get_resize@?$CImg@E@cimg_library@@QEBA?AU12@HHHHHIMMMM@Z@4HA 000000018002fe07 f   resize_worker.obj
 0001:0002ee36       ?dtor$35@?0??get_resize@?$CImg@E@cimg_library@@QEBA?AU12@HHHHHIMMMM@Z@4HA 000000018002fe36 f   resize_worker.obj
 0001:0002ee65       ?dtor$36@?0??get_resize@?$CImg@E@cimg_library@@QEBA?AU12@HHHHHIMMMM@Z@4HA 000000018002fe65 f   resize_worker.obj
 0001:0002ee94       ?dtor$37@?0??get_resize@?$CImg@E@cimg_library@@QEBA?AU12@HHHHHIMMMM@Z@4HA 000000018002fe94 f   resize_worker.obj
 0001:0002eec3       ?dtor$38@?0??get_resize@?$CImg@E@cimg_library@@QEBA?AU12@HHHHHIMMMM@Z@4HA 000000018002fec3 f   resize_worker.obj
 0001:0002eef2       ?dtor$39@?0??get_resize@?$CImg@E@cimg_library@@QEBA?AU12@HHHHHIMMMM@Z@4HA 000000018002fef2 f   resize_worker.obj
 0001:0002ef26       ?dtor$40@?0??get_resize@?$CImg@E@cimg_library@@QEBA?AU12@HHHHHIMMMM@Z@4HA 000000018002ff26 f   resize_worker.obj
 0001:0002ef5a       ?dtor$41@?0??get_resize@?$CImg@E@cimg_library@@QEBA?AU12@HHHHHIMMMM@Z@4HA 000000018002ff5a f   resize_worker.obj
 0001:0002ef66       ?dtor$42@?0??get_resize@?$CImg@E@cimg_library@@QEBA?AU12@HHHHHIMMMM@Z@4HA 000000018002ff66 f   resize_worker.obj
 0001:0002ef72       ?dtor$43@?0??get_resize@?$CImg@E@cimg_library@@QEBA?AU12@HHHHHIMMMM@Z@4HA 000000018002ff72 f   resize_worker.obj
 0001:0002ef7e       ?dtor$44@?0??get_resize@?$CImg@E@cimg_library@@QEBA?AU12@HHHHHIMMMM@Z@4HA 000000018002ff7e f   resize_worker.obj
 0001:0002ef8a       ?dtor$45@?0??get_resize@?$CImg@E@cimg_library@@QEBA?AU12@HHHHHIMMMM@Z@4HA 000000018002ff8a f   resize_worker.obj
 0001:0002ef96       ?dtor$46@?0??get_resize@?$CImg@E@cimg_library@@QEBA?AU12@HHHHHIMMMM@Z@4HA 000000018002ff96 f   resize_worker.obj
 0001:0002efa2       ?dtor$47@?0??get_resize@?$CImg@E@cimg_library@@QEBA?AU12@HHHHHIMMMM@Z@4HA 000000018002ffa2 f   resize_worker.obj
 0001:0002efae       ?dtor$48@?0??get_resize@?$CImg@E@cimg_library@@QEBA?AU12@HHHHHIMMMM@Z@4HA 000000018002ffae f   resize_worker.obj
 0001:0002efba       ?dtor$49@?0??get_resize@?$CImg@E@cimg_library@@QEBA?AU12@HHHHHIMMMM@Z@4HA 000000018002ffba f   resize_worker.obj
 0001:0002efee       ?dtor$50@?0??get_resize@?$CImg@E@cimg_library@@QEBA?AU12@HHHHHIMMMM@Z@4HA 000000018002ffee f   resize_worker.obj
 0001:0002f022       ?dtor$51@?0??get_resize@?$CImg@E@cimg_library@@QEBA?AU12@HHHHHIMMMM@Z@4HA 0000000180030022 f   resize_worker.obj
 0001:0002f056       ?dtor$52@?0??get_resize@?$CImg@E@cimg_library@@QEBA?AU12@HHHHHIMMMM@Z@4HA 0000000180030056 f   resize_worker.obj
 0001:0002f08a       ?dtor$53@?0??get_resize@?$CImg@E@cimg_library@@QEBA?AU12@HHHHHIMMMM@Z@4HA 000000018003008a f   resize_worker.obj
 0001:0002f0be       ?dtor$54@?0??get_resize@?$CImg@E@cimg_library@@QEBA?AU12@HHHHHIMMMM@Z@4HA 00000001800300be f   resize_worker.obj
 0001:0002f0f2       ?dtor$55@?0??get_resize@?$CImg@E@cimg_library@@QEBA?AU12@HHHHHIMMMM@Z@4HA 00000001800300f2 f   resize_worker.obj
 0001:0002f126       ?dtor$56@?0??get_resize@?$CImg@E@cimg_library@@QEBA?AU12@HHHHHIMMMM@Z@4HA 0000000180030126 f   resize_worker.obj
 0001:0002f15a       ?dtor$57@?0??get_resize@?$CImg@E@cimg_library@@QEBA?AU12@HHHHHIMMMM@Z@4HA 000000018003015a f   resize_worker.obj
 0001:0002f166       ?dtor$58@?0??get_resize@?$CImg@E@cimg_library@@QEBA?AU12@HHHHHIMMMM@Z@4HA 0000000180030166 f   resize_worker.obj
 0001:0002f172       ?dtor$59@?0??get_resize@?$CImg@E@cimg_library@@QEBA?AU12@HHHHHIMMMM@Z@4HA 0000000180030172 f   resize_worker.obj
 0001:0002f17e       ?dtor$60@?0??get_resize@?$CImg@E@cimg_library@@QEBA?AU12@HHHHHIMMMM@Z@4HA 000000018003017e f   resize_worker.obj
 0001:0002f18a       ?dtor$61@?0??get_resize@?$CImg@E@cimg_library@@QEBA?AU12@HHHHHIMMMM@Z@4HA 000000018003018a f   resize_worker.obj
 0001:0002f196       ?dtor$62@?0??get_resize@?$CImg@E@cimg_library@@QEBA?AU12@HHHHHIMMMM@Z@4HA 0000000180030196 f   resize_worker.obj
 0001:0002f1a2       ?dtor$63@?0??get_resize@?$CImg@E@cimg_library@@QEBA?AU12@HHHHHIMMMM@Z@4HA 00000001800301a2 f   resize_worker.obj
 0001:0002f1ae       ?dtor$64@?0??get_resize@?$CImg@E@cimg_library@@QEBA?AU12@HHHHHIMMMM@Z@4HA 00000001800301ae f   resize_worker.obj
 0001:0002f1ba       ?dtor$65@?0??get_resize@?$CImg@E@cimg_library@@QEBA?AU12@HHHHHIMMMM@Z@4HA 00000001800301ba f   resize_worker.obj
 0001:0002f1c6       ?dtor$66@?0??get_resize@?$CImg@E@cimg_library@@QEBA?AU12@HHHHHIMMMM@Z@4HA 00000001800301c6 f   resize_worker.obj
 0001:0002f1d2       ?dtor$67@?0??get_resize@?$CImg@E@cimg_library@@QEBA?AU12@HHHHHIMMMM@Z@4HA 00000001800301d2 f   resize_worker.obj
 0001:0002f1de       ?dtor$68@?0??get_resize@?$CImg@E@cimg_library@@QEBA?AU12@HHHHHIMMMM@Z@4HA 00000001800301de f   resize_worker.obj
 0001:0002f1ea       ?dtor$69@?0??get_resize@?$CImg@E@cimg_library@@QEBA?AU12@HHHHHIMMMM@Z@4HA 00000001800301ea f   resize_worker.obj
 0001:0002f1f6       ?dtor$70@?0??get_resize@?$CImg@E@cimg_library@@QEBA?AU12@HHHHHIMMMM@Z@4HA 00000001800301f6 f   resize_worker.obj
 0001:0002f202       ?dtor$71@?0??get_resize@?$CImg@E@cimg_library@@QEBA?AU12@HHHHHIMMMM@Z@4HA 0000000180030202 f   resize_worker.obj
 0001:0002f236       ?dtor$72@?0??get_resize@?$CImg@E@cimg_library@@QEBA?AU12@HHHHHIMMMM@Z@4HA 0000000180030236 f   resize_worker.obj
 0001:0002f26a       ?dtor$73@?0??get_resize@?$CImg@E@cimg_library@@QEBA?AU12@HHHHHIMMMM@Z@4HA 000000018003026a f   resize_worker.obj
 0001:0002f29e       ?dtor$74@?0??get_resize@?$CImg@E@cimg_library@@QEBA?AU12@HHHHHIMMMM@Z@4HA 000000018003029e f   resize_worker.obj
 0001:0002f2d2       ?dtor$75@?0??get_resize@?$CImg@E@cimg_library@@QEBA?AU12@HHHHHIMMMM@Z@4HA 00000001800302d2 f   resize_worker.obj
 0001:0002f306       ?dtor$76@?0??get_resize@?$CImg@E@cimg_library@@QEBA?AU12@HHHHHIMMMM@Z@4HA 0000000180030306 f   resize_worker.obj
 0001:0002f33a       ?dtor$77@?0??get_resize@?$CImg@E@cimg_library@@QEBA?AU12@HHHHHIMMMM@Z@4HA 000000018003033a f   resize_worker.obj
 0001:0002f36e       ?dtor$78@?0??get_resize@?$CImg@E@cimg_library@@QEBA?AU12@HHHHHIMMMM@Z@4HA 000000018003036e f   resize_worker.obj
 0001:0002f3a2       ?dtor$79@?0??get_resize@?$CImg@E@cimg_library@@QEBA?AU12@HHHHHIMMMM@Z@4HA 00000001800303a2 f   resize_worker.obj
 0001:0002f3ae       ?dtor$80@?0??get_resize@?$CImg@E@cimg_library@@QEBA?AU12@HHHHHIMMMM@Z@4HA 00000001800303ae f   resize_worker.obj
 0001:0002f3ba       ?dtor$81@?0??get_resize@?$CImg@E@cimg_library@@QEBA?AU12@HHHHHIMMMM@Z@4HA 00000001800303ba f   resize_worker.obj
 0001:0002f3c6       ?dtor$82@?0??get_resize@?$CImg@E@cimg_library@@QEBA?AU12@HHHHHIMMMM@Z@4HA 00000001800303c6 f   resize_worker.obj
 0001:0002f3d2       ?dtor$83@?0??get_resize@?$CImg@E@cimg_library@@QEBA?AU12@HHHHHIMMMM@Z@4HA 00000001800303d2 f   resize_worker.obj
 0001:0002f3de       ?dtor$84@?0??get_resize@?$CImg@E@cimg_library@@QEBA?AU12@HHHHHIMMMM@Z@4HA 00000001800303de f   resize_worker.obj
 0001:0002f3ea       ?dtor$85@?0??get_resize@?$CImg@E@cimg_library@@QEBA?AU12@HHHHHIMMMM@Z@4HA 00000001800303ea f   resize_worker.obj
 0001:0002f3f6       ?dtor$86@?0??get_resize@?$CImg@E@cimg_library@@QEBA?AU12@HHHHHIMMMM@Z@4HA 00000001800303f6 f   resize_worker.obj
 0001:0002f402       ?dtor$87@?0??get_resize@?$CImg@E@cimg_library@@QEBA?AU12@HHHHHIMMMM@Z@4HA 0000000180030402 f   resize_worker.obj
 0001:0002f40e       ?dtor$88@?0??get_resize@?$CImg@E@cimg_library@@QEBA?AU12@HHHHHIMMMM@Z@4HA 000000018003040e f   resize_worker.obj
 0001:0002f41a       ?dtor$89@?0??get_resize@?$CImg@E@cimg_library@@QEBA?AU12@HHHHHIMMMM@Z@4HA 000000018003041a f   resize_worker.obj
 0001:0002f426       ?dtor$90@?0??get_resize@?$CImg@E@cimg_library@@QEBA?AU12@HHHHHIMMMM@Z@4HA 0000000180030426 f   resize_worker.obj
 0001:0002f432       ?dtor$91@?0??get_resize@?$CImg@E@cimg_library@@QEBA?AU12@HHHHHIMMMM@Z@4HA 0000000180030432 f   resize_worker.obj
 0001:0002f43e       ?dtor$92@?0??get_resize@?$CImg@E@cimg_library@@QEBA?AU12@HHHHHIMMMM@Z@4HA 000000018003043e f   resize_worker.obj
 0001:0002f44a       ?dtor$93@?0??get_resize@?$CImg@E@cimg_library@@QEBA?AU12@HHHHHIMMMM@Z@4HA 000000018003044a f   resize_worker.obj
 0001:0002f47e       ?dtor$94@?0??get_resize@?$CImg@E@cimg_library@@QEBA?AU12@HHHHHIMMMM@Z@4HA 000000018003047e f   resize_worker.obj
 0001:0002f4b2       ?dtor$95@?0??get_resize@?$CImg@E@cimg_library@@QEBA?AU12@HHHHHIMMMM@Z@4HA 00000001800304b2 f   resize_worker.obj
 0001:0002f4e6       ?dtor$96@?0??get_resize@?$CImg@E@cimg_library@@QEBA?AU12@HHHHHIMMMM@Z@4HA 00000001800304e6 f   resize_worker.obj
 0001:0002f51a       ?dtor$97@?0??get_resize@?$CImg@E@cimg_library@@QEBA?AU12@HHHHHIMMMM@Z@4HA 000000018003051a f   resize_worker.obj
 0001:0002f54e       ?dtor$98@?0??get_resize@?$CImg@E@cimg_library@@QEBA?AU12@HHHHHIMMMM@Z@4HA 000000018003054e f   resize_worker.obj
 0001:0002f582       ?dtor$99@?0??get_resize@?$CImg@E@cimg_library@@QEBA?AU12@HHHHHIMMMM@Z@4HA 0000000180030582 f   resize_worker.obj
 0001:0002f5b6       ?dtor$100@?0??get_resize@?$CImg@E@cimg_library@@QEBA?AU12@HHHHHIMMMM@Z@4HA 00000001800305b6 f   resize_worker.obj
 0001:0002f5f0       ?catch$0@?0???0?$CImg@I@cimg_library@@QEAA@IIII@Z@4HA 00000001800305f0 f   resize_worker.obj
 0001:0002f5ff       __catch$??0?$CImg@I@cimg_library@@QEAA@IIII@Z$0 00000001800305ff f   resize_worker.obj
 0001:0002f6c0       ?dtor$0@?0??draw_image@?$CImg@E@cimg_library@@QEAAAEAU12@HHHHAEBU12@M@Z@4HA 00000001800306c0 f   resize_worker.obj
 0001:0002f6d0       ?dtor$0@?0??get_crop@?$CImg@E@cimg_library@@QEBA?AU12@HHHHHHHH_N@Z@4HA 00000001800306d0 f   resize_worker.obj
 0001:0002f700       ?catch$0@?0??assign@?$CImg@E@cimg_library@@QEAAAEAU12@IIII@Z@4HA 0000000180030700 f   resize_worker.obj
 0001:0002f714       __catch$?assign@?$CImg@E@cimg_library@@QEAAAEAU12@IIII@Z$0 0000000180030714 f   resize_worker.obj
 0001:0002f7f0       ?catch$0@?0???0?$CImg@E@cimg_library@@QEAA@IIIIAEBE@Z@4HA 00000001800307f0 f   resize_worker.obj
 0001:0002f804       __catch$??0?$CImg@E@cimg_library@@QEAA@IIIIAEBE@Z$0 0000000180030804 f   resize_worker.obj
 0001:0002f8d0       ?catch$0@?0???0?$CImg@M@cimg_library@@QEAA@IIIIAEBM@Z@4HA 00000001800308d0 f   resize_worker.obj
 0001:0002f8e4       __catch$??0?$CImg@M@cimg_library@@QEAA@IIIIAEBM@Z$0 00000001800308e4 f   resize_worker.obj
 0001:0002f9b0       ?catch$0@?0???0?$CImg@M@cimg_library@@QEAA@IIII@Z@4HA 00000001800309b0 f   resize_worker.obj
 0001:0002f9c4       __catch$??0?$CImg@M@cimg_library@@QEAA@IIII@Z$0 00000001800309c4 f   resize_worker.obj
 0001:0002fa90       ?catch$0@?0???0?$CImg@E@cimg_library@@QEAA@AEBU01@_N@Z@4HA 0000000180030a90 f   resize_worker.obj
 0001:0002faa4       __catch$??0?$CImg@E@cimg_library@@QEAA@AEBU01@_N@Z$0 0000000180030aa4 f   resize_worker.obj
 0001:0002fb70       ?catch$0@?0??assign@?$CImg@E@cimg_library@@QEAAAEAU12@QEBEIIII@Z@4HA 0000000180030b70 f   resize_worker.obj
 0001:0002fb84       __catch$?assign@?$CImg@E@cimg_library@@QEAAAEAU12@QEBEIIII@Z$0 0000000180030b84 f   resize_worker.obj
 0001:0002fc50       ?dtor$0@?0??Execute@RotateWorker@@UEAAXXZ@4HA 0000000180030c50 f   rotate_worker.obj
 0001:0002fc70       ?catch$8@?0??Execute@RotateWorker@@UEAAXXZ@4HA 0000000180030c70 f   rotate_worker.obj
 0001:0002fc7d       __catch$?Execute@RotateWorker@@UEAAXXZ$0 0000000180030c7d f   rotate_worker.obj
 0001:0002fca9       ?dtor$1@?0??Execute@RotateWorker@@UEAAXXZ@4HA 0000000180030ca9 f   rotate_worker.obj
 0001:0002fcb5       ?dtor$5@?0??Execute@RotateWorker@@UEAAXXZ@4HA 0000000180030cb5 f   rotate_worker.obj
 0001:0002fcc1       ?catch$7@?0??Execute@RotateWorker@@UEAAXXZ@4HA 0000000180030cc1 f   rotate_worker.obj
 0001:0002fcce       __catch$?Execute@RotateWorker@@UEAAXXZ$2 0000000180030cce f   rotate_worker.obj
 0001:0002fcfa       ?dtor$2@?0??Execute@RotateWorker@@UEAAXXZ@4HA 0000000180030cfa f   rotate_worker.obj
 0001:0002fd10       ?dtor$1@?0??get_rotate@?$CImg@E@cimg_library@@QEBA?AU12@MII@Z@4HA 0000000180030d10 f   rotate_worker.obj
 0001:0002fd20       ?catch$1@?0??Execute@CropWorker@@UEAAXXZ@4HA 0000000180030d20 f   crop_worker.obj
 0001:0002fd2d       __catch$?Execute@CropWorker@@UEAAXXZ$0 0000000180030d2d f   crop_worker.obj
 0001:0002fd59       ?dtor$0@?0??Execute@CropWorker@@UEAAXXZ@4HA 0000000180030d59 f   crop_worker.obj
 0001:0002fd70       ?dtor$0@?0??Execute@MirrorWorker@@UEAAXXZ@4HA 0000000180030d70 f   mirror_worker.obj
 0001:0002fd7c       ?catch$2@?0??Execute@MirrorWorker@@UEAAXXZ@4HA 0000000180030d7c f   mirror_worker.obj
 0001:0002fd89       __catch$?Execute@MirrorWorker@@UEAAXXZ$0 0000000180030d89 f   mirror_worker.obj
 0001:0002fdb2       ?dtor$1@?0??Execute@MirrorWorker@@UEAAXXZ@4HA 0000000180030db2 f   mirror_worker.obj
 0001:0002fdc0       ?dtor$0@?0??Execute@PadWorker@@UEAAXXZ@4HA 0000000180030dc0 f   pad_worker.obj
 0001:0002fde0       ?catch$4@?0??Execute@PadWorker@@UEAAXXZ@4HA 0000000180030de0 f   pad_worker.obj
 0001:0002fded       __catch$?Execute@PadWorker@@UEAAXXZ$0 0000000180030ded f   pad_worker.obj
 0001:0002fe19       ?dtor$1@?0??Execute@PadWorker@@UEAAXXZ@4HA 0000000180030e19 f   pad_worker.obj
 0001:0002fe30       ?catch$1@?0??Execute@SharpenWorker@@UEAAXXZ@4HA 0000000180030e30 f   sharpen_worker.obj
 0001:0002fe3d       __catch$?Execute@SharpenWorker@@UEAAXXZ$0 0000000180030e3d f   sharpen_worker.obj
 0001:0002fe66       ?dtor$0@?0??Execute@SharpenWorker@@UEAAXXZ@4HA 0000000180030e66 f   sharpen_worker.obj
 0001:0002fe80       ?dtor$0@?0??sharpen@?$CImg@E@cimg_library@@QEAAAEAU12@M_NMMM@Z@4HA 0000000180030e80 f   sharpen_worker.obj
 0001:0002fe8c       ?dtor$1@?0??sharpen@?$CImg@E@cimg_library@@QEAAAEAU12@M_NMMM@Z@4HA 0000000180030e8c f   sharpen_worker.obj
 0001:0002fea0       ?dtor$0@?0???$?YE@?$CImg@M@cimg_library@@QEAAAEAU01@AEBU?$CImg@E@1@@Z@4HA 0000000180030ea0 f   sharpen_worker.obj
 0001:0002feb0       ?catch$3@?0??Execute@PasteWorker@@UEAAXXZ@4HA 0000000180030eb0 f   paste_worker.obj
 0001:0002febd       __catch$?Execute@PasteWorker@@UEAAXXZ$0 0000000180030ebd f   paste_worker.obj
 0001:0002fee9       ?dtor$1@?0??Execute@PasteWorker@@UEAAXXZ@4HA 0000000180030ee9 f   paste_worker.obj
 0001:0002fef5       __scrt_is_nonwritable_in_current_image$filt$0 0000000180030ef5 f   LIBCMT:utility.obj
 0001:0002ff0d       ?fin$0@?0??dllmain_crt_process_attach@@YAHQEAUHINSTANCE__@@QEAX@Z@4HA 0000000180030f0d f   LIBCMT:dll_dllmain.obj
 0001:0002ff24       ?fin$0@?0??dllmain_crt_process_detach@@YAH_N@Z@4HA 0000000180030f24 f   LIBCMT:dll_dllmain.obj
 0001:0002ff40       ?filt$0@?0??dllmain_dispatch@@YAHQEAUHINSTANCE__@@KQEAX@Z@4HA 0000000180030f40 f   LIBCMT:dll_dllmain.obj
 0001:0002ff76       __CxxCallCatchBlock$filt$0 0000000180030f76 f   libvcruntime:frame.obj
 0001:0002ff9b       __CxxCallCatchBlock$fin$1  0000000180030f9b f   libvcruntime:frame.obj
 0001:00030013       __DestructExceptionObject$filt$0 0000000180031013 f   libvcruntime:frame.obj
 0001:0003002b       __FrameUnwindToState$filt$0 000000018003102b f   libvcruntime:frame.obj
 0001:00030041       __FrameUnwindToState$fin$1 0000000180031041 f   libvcruntime:frame.obj
 0001:00030064       _CallSETranslator$filt$0   0000000180031064 f   libvcruntime:trnsctrl.obj
 0001:000300b0       ?fin$0@?0???$common_fsopen@D@@YAPEAU_iobuf@@QEBD0H@Z@4HA 00000001800310b0 f   libucrt:fopen.obj
 0001:000300db       ?fin$0@?0???$?RV<lambda_7b91131dde12e1c3dfc74ff76b3f2eac>@@AEAV<lambda_dd75445284c072d0bd3768540cc698fa>@@V<lambda_16bc4ecb55b4718497c16bceaea2ceaf>@@@?$__crt_seh_guarded_call@H@@QEAAH$$QEAV<lambda_7b91131dde12e1c3dfc74ff76b3f2eac>@@AEAV<lambda_dd75445284c072d0bd3768540cc698fa>@@$$QEAV<lambda_16bc4ecb55b4718497c16bceaea2ceaf>@@@Z@4HA 00000001800310db f   libucrt:output.obj
 0001:000300db       ?fin$0@?0???$?RV<lambda_aa279a7bcb127014629d5b1d62c7325d>@@AEAV<lambda_0a64b6a4deda75c01876f29c44fc5eb3>@@V<lambda_3323e69fbefe9d1a11713e670d47cdfa>@@@?$__crt_seh_guarded_call@H@@QEAAH$$QEAV<lambda_aa279a7bcb127014629d5b1d62c7325d>@@AEAV<lambda_0a64b6a4deda75c01876f29c44fc5eb3>@@$$QEAV<lambda_3323e69fbefe9d1a11713e670d47cdfa>@@@Z@4HA 00000001800310db f   libucrt:output.obj
 0001:000300db       ?fin$0@?0???$?RV<lambda_7a5ef57ff966f610505f1d28a3d40618>@@AEAV<lambda_b721fa326cdb32351d23dfa67958c160>@@V<lambda_5e0fb27672408a07956fe59e48ccb2aa>@@@?$__crt_seh_guarded_call@H@@QEAAH$$QEAV<lambda_7a5ef57ff966f610505f1d28a3d40618>@@AEAV<lambda_b721fa326cdb32351d23dfa67958c160>@@$$QEAV<lambda_5e0fb27672408a07956fe59e48ccb2aa>@@@Z@4HA 00000001800310db f   libucrt:setvbuf.obj
 0001:000300f6       ?fin$0@?0???$common_getenv@D@@YAPEADQEBD@Z@4HA 00000001800310f6 f   libucrt:getenv.obj
 0001:0003010f       _query_new_handler$fin$0   000000018003110f f   libucrt:new_handler.obj
 0001:00030125       ?filt$0@?0??common_exit@@YAXHW4_crt_exit_cleanup_mode@@W4_crt_exit_return_mode@@@Z@4HA 0000000180031125 f   libucrt:exit.obj
 0001:00030140       ?fin$1@?0??common_exit@@YAXHW4_crt_exit_cleanup_mode@@W4_crt_exit_return_mode@@@Z@4HA 0000000180031140 f   libucrt:exit.obj
 0001:00030159       ?fin$0@?0???$?RV<lambda_e24bbb7b643b32fcea6fa61b31d4c984>@@AEAV<lambda_275893d493268fdec8709772e3fcec0e>@@V<lambda_9d71df4d7cf3f480f8d633942495c3b0>@@@?$__crt_seh_guarded_call@H@@QEAAH$$QEAV<lambda_e24bbb7b643b32fcea6fa61b31d4c984>@@AEAV<lambda_275893d493268fdec8709772e3fcec0e>@@$$QEAV<lambda_9d71df4d7cf3f480f8d633942495c3b0>@@@Z@4HA 0000000180031159 f   libucrt:onexit.obj
 0001:00030176       _fcloseall$fin$0           0000000180031176 f   libucrt:closeall.obj
 0001:00030176       ?fin$0@?0??__acrt_stdio_allocate_stream@@YA?AV__crt_stdio_stream@@XZ@4HA 0000000180031176 f   libucrt:stream.obj
 0001:0003018f       common_flush_all$fin$0     000000018003118f f   libucrt:fflush.obj
 0001:000301a9       common_flush_all$fin$1     00000001800311a9 f   libucrt:fflush.obj
 0001:000301c2       fflush$fin$0               00000001800311c2 f   libucrt:fflush.obj
 0001:000301c2       fclose$fin$0               00000001800311c2 f   libucrt:fclose.obj
 0001:000301da       ?fin$0@?0???$?RV<lambda_c36588078e9f5dfd39652860aa6b3aaf>@@AEAV<lambda_ec61778202f4f5fc7e7711acc23c3bca>@@V<lambda_dc9d2797ccde5d239b4a0efae8ebd7db>@@@?$__crt_seh_guarded_call@P6AXH@Z@@QEAAP6AXH@Z$$QEAV<lambda_c36588078e9f5dfd39652860aa6b3aaf>@@AEAV<lambda_ec61778202f4f5fc7e7711acc23c3bca>@@$$QEAV<lambda_dc9d2797ccde5d239b4a0efae8ebd7db>@@@Z@4HA 00000001800311da f   libucrt:signal.obj
 0001:000301da       ?fin$0@?0???$?RV<lambda_b8c45f8f788dd370798f47cfe8ac3a86>@@AEAV<lambda_4e60a939b0d047cfe11ddc22648dfba9>@@V<lambda_332c3edc96d0294ec56c57d38c1cdfd5>@@@?$__crt_seh_guarded_call@H@@QEAAH$$QEAV<lambda_b8c45f8f788dd370798f47cfe8ac3a86>@@AEAV<lambda_4e60a939b0d047cfe11ddc22648dfba9>@@$$QEAV<lambda_332c3edc96d0294ec56c57d38c1cdfd5>@@@Z@4HA 00000001800311da f   libucrt:onexit.obj
 0001:000301da       ?fin$0@?0???$?RV<lambda_46352004c1216016012b18bd6f87e700>@@AEAV<lambda_3bd07e1a1191394380780325891bf33f>@@V<lambda_334532d3f185bcaa59b5be82d7d22bff>@@@?$__crt_seh_guarded_call@X@@QEAAX$$QEAV<lambda_46352004c1216016012b18bd6f87e700>@@AEAV<lambda_3bd07e1a1191394380780325891bf33f>@@$$QEAV<lambda_334532d3f185bcaa59b5be82d7d22bff>@@@Z@4HA 00000001800311da f   libucrt:per_thread_data.obj
 0001:000301da       ?fin$0@?0???$?RV<lambda_72d1df2b273a38828b1ce30cbf4cdab5>@@AEAV<lambda_876a65b173b8412d3a47c70a915b0cf4>@@V<lambda_41932305e351933ebe8f8be3ed8bb5dc>@@@?$__crt_seh_guarded_call@X@@QEAAX$$QEAV<lambda_72d1df2b273a38828b1ce30cbf4cdab5>@@AEAV<lambda_876a65b173b8412d3a47c70a915b0cf4>@@$$QEAV<lambda_41932305e351933ebe8f8be3ed8bb5dc>@@@Z@4HA 00000001800311da f   libucrt:per_thread_data.obj
 0001:000301da       ?fin$0@?0???$?RV<lambda_fb3a7dec4e47f37f22dae91bb15c9095>@@AEAV<lambda_698284760c8add0bfb0756c19673e34b>@@V<lambda_dfb8eca1e75fef3034a8fb18dd509707>@@@?$__crt_seh_guarded_call@X@@QEAAX$$QEAV<lambda_fb3a7dec4e47f37f22dae91bb15c9095>@@AEAV<lambda_698284760c8add0bfb0756c19673e34b>@@$$QEAV<lambda_dfb8eca1e75fef3034a8fb18dd509707>@@@Z@4HA 00000001800311da f   libucrt:per_thread_data.obj
 0001:000301da       ?fin$0@?0???$?RV<lambda_5e887d1dcbef67a5eb4283622ba103bf>@@AEAV<lambda_4466841279450cc726390878d4a41900>@@V<lambda_341c25c0346d94847f1f3c463c57e077>@@@?$__crt_seh_guarded_call@X@@QEAAX$$QEAV<lambda_5e887d1dcbef67a5eb4283622ba103bf>@@AEAV<lambda_4466841279450cc726390878d4a41900>@@$$QEAV<lambda_341c25c0346d94847f1f3c463c57e077>@@@Z@4HA 00000001800311da f   libucrt:per_thread_data.obj
 0001:000301da       ?fin$0@?0???$?RV<lambda_99476a1ad63dd22509b5d3e65b0ffc95>@@AEAV<lambda_ad1ced32f4ac17aa236e5ef05d6b3b7c>@@V<lambda_f7424dd8d45958661754dc4f2697e9c3>@@@?$__crt_seh_guarded_call@X@@QEAAX$$QEAV<lambda_99476a1ad63dd22509b5d3e65b0ffc95>@@AEAV<lambda_ad1ced32f4ac17aa236e5ef05d6b3b7c>@@$$QEAV<lambda_f7424dd8d45958661754dc4f2697e9c3>@@@Z@4HA 00000001800311da f   libucrt:mbctype.obj
 0001:000301f4       raise$fin$0                00000001800311f4 f   libucrt:signal.obj
 0001:00030218       __acrt_update_thread_multibyte_data$fin$0 0000000180031218 f   libucrt:mbctype.obj
 0001:00030231       __acrt_uninitialize_locale$fin$0 0000000180031231 f   libucrt:wsetlocale.obj
 0001:00030231       __acrt_update_thread_locale_data$fin$0 0000000180031231 f   libucrt:locale_refcounting.obj
 0001:0003024a       ?fin$0@?0???$common_sopen_dispatch@D@@YAHQEBDHHHQEAHH@Z@4HA 000000018003124a f   libucrt:open.obj
 0001:0003029d       ?fin$0@?0???$?RV<lambda_b521505b218e5242e90febf6bfebc422>@@AEAV<lambda_6978c1fb23f02e42e1d9e99668cc68aa>@@V<lambda_314360699dd331753a4119843814e9a7>@@@?$__crt_seh_guarded_call@H@@QEAAH$$QEAV<lambda_b521505b218e5242e90febf6bfebc422>@@AEAV<lambda_6978c1fb23f02e42e1d9e99668cc68aa>@@$$QEAV<lambda_314360699dd331753a4119843814e9a7>@@@Z@4HA 000000018003129d f   libucrt:commit.obj
 0001:0003029d       ?fin$0@?0???$?RV<lambda_bfedae4ebbf01fab1bb6dcc6a9e276e0>@@AEAV<lambda_2fe9b910cf3cbf4a0ab98a02ba45b3ec>@@V<lambda_237c231691f317818eb88cc1d5d642d6>@@@?$__crt_seh_guarded_call@H@@QEAAH$$QEAV<lambda_bfedae4ebbf01fab1bb6dcc6a9e276e0>@@AEAV<lambda_2fe9b910cf3cbf4a0ab98a02ba45b3ec>@@$$QEAV<lambda_237c231691f317818eb88cc1d5d642d6>@@@Z@4HA 000000018003129d f   libucrt:close.obj
 0001:000302b7       ?fin$0@?0???$common_lseek@_J@@YA_JH_JH@Z@4HA 00000001800312b7 f   libucrt:lseek.obj
 0001:000302b7       _write$fin$0               00000001800312b7 f   libucrt:write.obj
 0001:000302ce       __acrt_initialize_lowio$fin$0 00000001800312ce f   libucrt:ioinit.obj
 0001:000302ce       __acrt_lowio_ensure_fh_exists$fin$0 00000001800312ce f   libucrt:osfinfo.obj
 0001:000302ce       _alloc_osfhnd$fin$0        00000001800312ce f   libucrt:osfinfo.obj
 0001:000302e7       _ctrlfp$filt$0             00000001800312e7 f   libucrt:fpctrl.obj
 0001:000302e7       common_control87$filt$0    00000001800312e7 f   libucrt:ieee.obj
 0001:00030320       _IsNonwritableInCurrentImage$filt$0 0000000180031320 f   LIBCMT:pesect.obj
 0001:00030400       ??__F?constructor@LwipImage@@0V?$Persistent@VFunctionTemplate@v8@@V?$NonCopyablePersistentTraits@VFunctionTemplate@v8@@@2@@Nan@@A@@YAXXZ 0000000180031400 f   image.obj
 0002:00000308       ??constructor$initializer$@LwipImage@@0P6AXXZEA@@3P6AXXZEA 0000000180032308     image.obj
 0002:00000328       ?__scrt_initialize_tss_var@@3P6AHXZEA 0000000180032328     LIBCMT:thread_safe_statics.obj
 0002:000004e8       GS_ExceptionPointers       00000001800324e8     LIBCMT:gs_report.obj
 0002:00000560       ?ExceptionTemplate@?1??_CxxThrowException@@9@4UEHExceptionRecord@@B 0000000180032560     libvcruntime:throw.obj
 0002:000005a0       ?module_names@?A0x679b24ab@@3QBQEB_WB 00000001800325a0     libvcruntime:winapi_downlevel.obj
 0002:00000670       ?candidate_modules@?1??try_get_FlsAlloc@@YAP6AKP6AXPEAX@Z@ZXZ@4QBW4module_id@?A0x679b24ab@@B 0000000180032670     libvcruntime:winapi_downlevel.obj
 0002:00000688       ?candidate_modules@?1??try_get_FlsFree@@YAP6AHK@ZXZ@4QBW4module_id@?A0x679b24ab@@B 0000000180032688     libvcruntime:winapi_downlevel.obj
 0002:00000698       ?candidate_modules@?1??try_get_FlsGetValue@@YAP6APEAXK@ZXZ@4QBW4module_id@?A0x679b24ab@@B 0000000180032698     libvcruntime:winapi_downlevel.obj
 0002:000006b0       ?candidate_modules@?1??try_get_FlsSetValue@@YAP6AHKPEAX@ZXZ@4QBW4module_id@?A0x679b24ab@@B 00000001800326b0     libvcruntime:winapi_downlevel.obj
 0002:000006c8       ?candidate_modules@?1??try_get_InitializeCriticalSectionEx@@YAP6AHPEAU_RTL_CRITICAL_SECTION@@KK@ZXZ@4QBW4module_id@?A0x679b24ab@@B 00000001800326c8     libvcruntime:winapi_downlevel.obj
 0002:000006f0       ?ExceptionTemplate@?1??_UnwindNestedFrames@@9@4U_EXCEPTION_RECORD@@B 00000001800326f0     libvcruntime:trnsctrl.obj
 0002:00000790       ?tokenTable@@3QBQEBDB      0000000180032790     libvcruntime:undname.obj
 0002:00000800       ?nameTable@@3QBQEBDB       0000000180032800     libvcruntime:undname.obj
 0002:00000a88       ?rttiTable@@3QBQEBDB       0000000180032a88     libvcruntime:undname.obj
 0002:000015d0       __acrt_initializers        00000001800335d0     libucrt:initialization.obj
 0002:000016c0       errtable                   00000001800336c0     libucrt:errno.obj
 0002:00001850       module_names               0000000180033850     libucrt:winapi_thunks.obj
 0002:00001d80       ?candidate_modules@?1??try_get_AreFileApisANSI@@YAP6AHXZXZ@4QBW4module_id@?A0x63058377@@B 0000000180033d80     libucrt:winapi_thunks.obj
 0002:00001d98       ?candidate_modules@?1??try_get_CompareStringEx@@YAP6AHPEB_WK0H0HPEAU_nlsversioninfo@@PEAX_J@ZXZ@4QBW4module_id@?A0x63058377@@B 0000000180033d98     libucrt:winapi_thunks.obj
 0002:00001db0       ?candidate_modules@?1??try_get_FlsAlloc@@YAP6AKP6AXPEAX@Z@ZXZ@4QBW4module_id@?A0x63058377@@B 0000000180033db0     libucrt:winapi_thunks.obj
 0002:00001db8       ?candidate_modules@?1??try_get_FlsFree@@YAP6AHK@ZXZ@4QBW4module_id@?A0x63058377@@B 0000000180033db8     libucrt:winapi_thunks.obj
 0002:00001dc0       ?candidate_modules@?1??try_get_FlsGetValue@@YAP6APEAXK@ZXZ@4QBW4module_id@?A0x63058377@@B 0000000180033dc0     libucrt:winapi_thunks.obj
 0002:00001dc8       ?candidate_modules@?1??try_get_FlsSetValue@@YAP6AHKPEAX@ZXZ@4QBW4module_id@?A0x63058377@@B 0000000180033dc8     libucrt:winapi_thunks.obj
 0002:00001dd0       ?candidate_modules@?1??try_get_GetActiveWindow@@YAP6APEAUHWND__@@XZXZ@4QBW4module_id@?A0x63058377@@B 0000000180033dd0     libucrt:winapi_thunks.obj
 0002:00001de8       ?candidate_modules@?1??try_get_GetCurrentPackageId@@YAP6AJPEAIPEAE@ZXZ@4QBW4module_id@?A0x63058377@@B 0000000180033de8     libucrt:winapi_thunks.obj
 0002:00001e08       ?candidate_modules@?1??try_get_GetLastActivePopup@@YAP6APEAUHWND__@@PEAU2@@ZXZ@4QBW4module_id@?A0x63058377@@B 0000000180033e08     libucrt:winapi_thunks.obj
 0002:00001e28       ?candidate_modules@?1??try_get_GetProcessWindowStation@@YAP6APEAUHWINSTA__@@XZXZ@4QBW4module_id@?A0x63058377@@B 0000000180033e28     libucrt:winapi_thunks.obj
 0002:00001e48       ?candidate_modules@?1??try_get_GetUserObjectInformationW@@YAP6AHPEAXH0KPEAK@ZXZ@4QBW4module_id@?A0x63058377@@B 0000000180033e48     libucrt:winapi_thunks.obj
 0002:00001e70       ?candidate_modules@?1??try_get_InitializeCriticalSectionEx@@YAP6AHPEAU_RTL_CRITICAL_SECTION@@KK@ZXZ@4QBW4module_id@?A0x63058377@@B 0000000180033e70     libucrt:winapi_thunks.obj
 0002:00001e78       ?candidate_modules@?1??try_get_LCMapStringEx@@YAP6AHPEB_WK0HPEA_WHPEAU_nlsversioninfo@@PEAX_J@ZXZ@4QBW4module_id@?A0x63058377@@B 0000000180033e78     libucrt:winapi_thunks.obj
 0002:00001e90       ?candidate_modules@?1??try_get_LocaleNameToLCID@@YAP6AKPEB_WK@ZXZ@4QBW4module_id@?A0x63058377@@B 0000000180033e90     libucrt:winapi_thunks.obj
 0002:00001eb0       ?candidate_modules@?1??try_get_MessageBoxA@@YAP6AHPEAUHWND__@@PEBD1I@ZXZ@4QBW4module_id@?A0x63058377@@B 0000000180033eb0     libucrt:winapi_thunks.obj
 0002:00001ec8       ?candidate_modules@?1??try_get_MessageBoxW@@YAP6AHPEAUHWND__@@PEB_W1I@ZXZ@4QBW4module_id@?A0x63058377@@B 0000000180033ec8     libucrt:winapi_thunks.obj
 0002:000025c0       _mb_locale_names           00000001800345c0     libucrt:mbctype.obj
 0002:00002e30       LcidToLocaleNameTable      0000000180034e30     libucrt:lcidtoname_downlevel.obj
 0002:00004890       LocaleNameToIndexTable     0000000180036890     libucrt:lcidtoname_downlevel.obj
 0002:00006b20       __real_ninf                0000000180038b20     libucrt:log10.obj
 0002:00006b30       __real_inf                 0000000180038b30     libucrt:log10.obj
 0002:00006b40       __real_neg_qnan            0000000180038b40     libucrt:log10.obj
 0002:00006b50       __real_qnanbit             0000000180038b50     libucrt:log10.obj
 0002:00006b60       __int_1023                 0000000180038b60     libucrt:log10.obj
 0002:00006b70       __mask_001                 0000000180038b70     libucrt:log10.obj
 0002:00006b80       __mask_mant                0000000180038b80     libucrt:log10.obj
 0002:00006b90       __mask_mant_top8           0000000180038b90     libucrt:log10.obj
 0002:00006ba0       __mask_mant9               0000000180038ba0     libucrt:log10.obj
 0002:00006bb0       __real_log10_e             0000000180038bb0     libucrt:log10.obj
 0002:00006bc0       __real_log10_e_lead        0000000180038bc0     libucrt:log10.obj
 0002:00006bd0       __real_log10_e_tail        0000000180038bd0     libucrt:log10.obj
 0002:00006be0       __real_log10_2_lead        0000000180038be0     libucrt:log10.obj
 0002:00006bf0       __real_log10_2_tail        0000000180038bf0     libucrt:log10.obj
 0002:00006c00       __real_two                 0000000180038c00     libucrt:log10.obj
 0002:00006c10       __real_one                 0000000180038c10     libucrt:log10.obj
 0002:00006c20       __real_half                0000000180038c20     libucrt:log10.obj
 0002:00006c30       __mask_100                 0000000180038c30     libucrt:log10.obj
 0002:00006c40       __real_1_over_512          0000000180038c40     libucrt:log10.obj
 0002:00006c50       __real_1_over_2            0000000180038c50     libucrt:log10.obj
 0002:00006c60       __real_1_over_3            0000000180038c60     libucrt:log10.obj
 0002:00006c70       __real_1_over_4            0000000180038c70     libucrt:log10.obj
 0002:00006c80       __real_1_over_5            0000000180038c80     libucrt:log10.obj
 0002:00006c90       __real_1_over_6            0000000180038c90     libucrt:log10.obj
 0002:00006ca0       __real_neg_1023            0000000180038ca0     libucrt:log10.obj
 0002:00006cb0       __mask_2045                0000000180038cb0     libucrt:log10.obj
 0002:00006cc0       __real_threshold           0000000180038cc0     libucrt:log10.obj
 0002:00006cd0       __real_near_one_lt         0000000180038cd0     libucrt:log10.obj
 0002:00006ce0       __real_near_one_gt         0000000180038ce0     libucrt:log10.obj
 0002:00006cf0       __real_min_norm            0000000180038cf0     libucrt:log10.obj
 0002:00006d00       __real_notsign             0000000180038d00     libucrt:log10.obj
 0002:00006d10       __real_ca1                 0000000180038d10     libucrt:log10.obj
 0002:00006d20       __real_ca2                 0000000180038d20     libucrt:log10.obj
 0002:00006d30       __real_ca3                 0000000180038d30     libucrt:log10.obj
 0002:00006d40       __real_ca4                 0000000180038d40     libucrt:log10.obj
 0002:00006d50       __mask_lower               0000000180038d50     libucrt:log10.obj
 0002:00006d60       __flag_x_zero              0000000180038d60     libucrt:log10.obj
 0002:00006d64       __flag_x_neg               0000000180038d64     libucrt:log10.obj
 0002:00006d68       __flag_x_nan               0000000180038d68     libucrt:log10.obj
 0002:000085c0       __real@433fffffffffffff    000000018003a5c0     libucrt:fpsr.obj
 0002:000085c8       __real@c33fffffffffffff    000000018003a5c8     libucrt:fpsr.obj
 0002:000086f0       ?logo40x38@cimg@cimg_library@@3QBEB 000000018003a6f0     init.obj
 0002:000098d0       ?t_normal@cimg@cimg_library@@3QBDB 000000018003b8d0     init.obj
 0002:000098d1       ?t_normal@cimg@cimg_library@@3QBDB 000000018003b8d1     image.obj
 0002:000098d2       ?t_normal@cimg@cimg_library@@3QBDB 000000018003b8d2     resize_worker.obj
 0002:000098d3       ?t_normal@cimg@cimg_library@@3QBDB 000000018003b8d3     rotate_worker.obj
 0002:000098d4       ?t_normal@cimg@cimg_library@@3QBDB 000000018003b8d4     blur_worker.obj
 0002:000098d5       ?t_normal@cimg@cimg_library@@3QBDB 000000018003b8d5     crop_worker.obj
 0002:000098d6       ?t_normal@cimg@cimg_library@@3QBDB 000000018003b8d6     mirror_worker.obj
 0002:000098d7       ?t_normal@cimg@cimg_library@@3QBDB 000000018003b8d7     pad_worker.obj
 0002:000098d8       ?t_red@cimg@cimg_library@@3QEBDEB 000000018003b8d8     image.obj
 0002:000098e0       ?logo40x38@cimg@cimg_library@@3QBEB 000000018003b8e0     image.obj
 0002:0000aac0       ?t_bold@cimg@cimg_library@@3QEBDEB 000000018003cac0     image.obj
 0002:0000aac8       ?t_green@cimg@cimg_library@@3QEBDEB 000000018003cac8     image.obj
 0002:0000aad0       ?logo40x38@cimg@cimg_library@@3QBEB 000000018003cad0     resize_worker.obj
 0002:0000bcb0       ?t_red@cimg@cimg_library@@3QEBDEB 000000018003dcb0     resize_worker.obj
 0002:0000bcb8       ?t_bold@cimg@cimg_library@@3QEBDEB 000000018003dcb8     resize_worker.obj
 0002:0000bcc0       ?t_green@cimg@cimg_library@@3QEBDEB 000000018003dcc0     resize_worker.obj
 0002:0000bcc8       ?t_red@cimg@cimg_library@@3QEBDEB 000000018003dcc8     rotate_worker.obj
 0002:0000bcd0       ?logo40x38@cimg@cimg_library@@3QBEB 000000018003dcd0     rotate_worker.obj
 0002:0000ceb0       ?t_bold@cimg@cimg_library@@3QEBDEB 000000018003eeb0     rotate_worker.obj
 0002:0000ceb8       ?t_green@cimg@cimg_library@@3QEBDEB 000000018003eeb8     rotate_worker.obj
 0002:0000cec0       ?logo40x38@cimg@cimg_library@@3QBEB 000000018003eec0     blur_worker.obj
 0002:0000e0a0       ?logo40x38@cimg@cimg_library@@3QBEB 00000001800400a0     crop_worker.obj
 0002:0000f280       ?t_red@cimg@cimg_library@@3QEBDEB 0000000180041280     crop_worker.obj
 0002:0000f288       ?t_bold@cimg@cimg_library@@3QEBDEB 0000000180041288     crop_worker.obj
 0002:0000f290       ?t_green@cimg@cimg_library@@3QEBDEB 0000000180041290     crop_worker.obj
 0002:0000f298       ?t_red@cimg@cimg_library@@3QEBDEB 0000000180041298     mirror_worker.obj
 0002:0000f2a0       ?logo40x38@cimg@cimg_library@@3QBEB 00000001800412a0     mirror_worker.obj
 0002:00010480       ?t_bold@cimg@cimg_library@@3QEBDEB 0000000180042480     mirror_worker.obj
 0002:00010488       ?t_green@cimg@cimg_library@@3QEBDEB 0000000180042488     mirror_worker.obj
 0002:00010490       ?logo40x38@cimg@cimg_library@@3QBEB 0000000180042490     pad_worker.obj
 0002:00011670       ?t_red@cimg@cimg_library@@3QEBDEB 0000000180043670     pad_worker.obj
 0002:00011678       ?t_green@cimg@cimg_library@@3QEBDEB 0000000180043678     pad_worker.obj
 0002:00011680       ?t_bold@cimg@cimg_library@@3QEBDEB 0000000180043680     pad_worker.obj
 0002:00011688       ?t_red@cimg@cimg_library@@3QEBDEB 0000000180043688     sharpen_worker.obj
 0002:00011690       ?logo40x38@cimg@cimg_library@@3QBEB 0000000180043690     sharpen_worker.obj
 0002:00012870       ?t_normal@cimg@cimg_library@@3QBDB 0000000180044870     sharpen_worker.obj
 0002:00012871       ?t_normal@cimg@cimg_library@@3QBDB 0000000180044871     hsla_worker.obj
 0002:00012872       ?t_normal@cimg@cimg_library@@3QBDB 0000000180044872     opacify_worker.obj
 0002:00012873       ?t_normal@cimg@cimg_library@@3QBDB 0000000180044873     paste_worker.obj
 0002:00012874       ?t_normal@cimg@cimg_library@@3QBDB 0000000180044874     setpixel_worker.obj
 0002:00012878       ?t_green@cimg@cimg_library@@3QEBDEB 0000000180044878     sharpen_worker.obj
 0002:00012880       ?t_bold@cimg@cimg_library@@3QEBDEB 0000000180044880     sharpen_worker.obj
 0002:00012888       ?t_red@cimg@cimg_library@@3QEBDEB 0000000180044888     paste_worker.obj
 0002:00012890       ?logo40x38@cimg@cimg_library@@3QBEB 0000000180044890     hsla_worker.obj
 0002:00013a70       ?logo40x38@cimg@cimg_library@@3QBEB 0000000180045a70     opacify_worker.obj
 0002:00014c50       ?logo40x38@cimg@cimg_library@@3QBEB 0000000180046c50     paste_worker.obj
 0002:00015e30       ?t_green@cimg@cimg_library@@3QEBDEB 0000000180047e30     paste_worker.obj
 0002:00015e38       ?t_bold@cimg@cimg_library@@3QEBDEB 0000000180047e38     paste_worker.obj
 0002:00015e40       ?logo40x38@cimg@cimg_library@@3QBEB 0000000180047e40     setpixel_worker.obj
 0002:00018a10       $cppxdata$??0?$CImg@E@cimg_library@@QEAA@IIII@Z 000000018004aa10     image.obj
 0002:00018a38       $cppxdata$??0?$CImg@E@cimg_library@@QEAA@AEBU01@@Z 000000018004aa38     image.obj
 0002:00018a60       $cppxdata$??0?$CImg@D@cimg_library@@QEAA@IIII@Z 000000018004aa60     image.obj
 0002:00018a88       $cppxdata$?assign@?$CImg@D@cimg_library@@QEAAAEAU12@IIII@Z 000000018004aa88     image.obj
 0002:00018ab0       $cppxdata$??0?$CImg@E@cimg_library@@QEAA@QEBEIIII_N@Z 000000018004aab0     image.obj
 0002:00018ad8       $cppxdata$?setPixel@LwipImage@@SAXAEBV?$FunctionCallbackInfo@VValue@v8@@@Nan@@@Z 000000018004aad8     image.obj
 0002:00018b00       $cppxdata$?paste@LwipImage@@SAXAEBV?$FunctionCallbackInfo@VValue@v8@@@Nan@@@Z 000000018004ab00     image.obj
 0002:00018b28       $cppxdata$?opacify@LwipImage@@SAXAEBV?$FunctionCallbackInfo@VValue@v8@@@Nan@@@Z 000000018004ab28     image.obj
 0002:00018b50       $cppxdata$?hslaAdj@LwipImage@@SAXAEBV?$FunctionCallbackInfo@VValue@v8@@@Nan@@@Z 000000018004ab50     image.obj
 0002:00018b78       $cppxdata$?sharpen@LwipImage@@SAXAEBV?$FunctionCallbackInfo@VValue@v8@@@Nan@@@Z 000000018004ab78     image.obj
 0002:00018ba0       $cppxdata$?pad@LwipImage@@SAXAEBV?$FunctionCallbackInfo@VValue@v8@@@Nan@@@Z 000000018004aba0     image.obj
 0002:00018bc8       $cppxdata$?mirror@LwipImage@@SAXAEBV?$FunctionCallbackInfo@VValue@v8@@@Nan@@@Z 000000018004abc8     image.obj
 0002:00018bf0       $cppxdata$?crop@LwipImage@@SAXAEBV?$FunctionCallbackInfo@VValue@v8@@@Nan@@@Z 000000018004abf0     image.obj
 0002:00018c18       $cppxdata$?blur@LwipImage@@SAXAEBV?$FunctionCallbackInfo@VValue@v8@@@Nan@@@Z 000000018004ac18     image.obj
 0002:00018c40       $cppxdata$?rotate@LwipImage@@SAXAEBV?$FunctionCallbackInfo@VValue@v8@@@Nan@@@Z 000000018004ac40     image.obj
 0002:00018c68       $cppxdata$?resize@LwipImage@@SAXAEBV?$FunctionCallbackInfo@VValue@v8@@@Nan@@@Z 000000018004ac68     image.obj
 0002:00018c90       $cppxdata$?New@LwipImage@@SAXAEBV?$FunctionCallbackInfo@VValue@v8@@@Nan@@@Z 000000018004ac90     image.obj
 0002:00018cb8       $cppxdata$??0LwipImage@@QEAA@PEAE_K1@Z 000000018004acb8     image.obj
 0002:00018ce0       $cppxdata$??__F?constructor@LwipImage@@0V?$Persistent@VFunctionTemplate@v8@@V?$NonCopyablePersistentTraits@VFunctionTemplate@v8@@@2@@Nan@@A@@YAXXZ 000000018004ace0     image.obj
 0002:00018d08       $cppxdata$?strbuffersize@cimg@cimg_library@@YAPEBDK@Z 000000018004ad08     image.obj
 0002:00018d30       $cppxdata$?temporary_path@cimg@cimg_library@@YAPEBDQEBD_N@Z 000000018004ad30     image.obj
 0002:00018d58       $cppxdata$??0CImgIOException@cimg_library@@QEAA@AEBU01@@Z 000000018004ad58     image.obj
 0002:00018d58       $cppxdata$??0CImgArgumentException@cimg_library@@QEAA@AEBU01@@Z 000000018004ad58     image.obj
 0002:00018d58       $cppxdata$??0CImgInstanceException@cimg_library@@QEAA@AEBU01@@Z 000000018004ad58     image.obj
 0002:00018d80       $cppxdata$??0CImgIOException@cimg_library@@QEAA@QEBDZZ 000000018004ad80     image.obj
 0002:00018da8       $cppxdata$??0CImgInstanceException@cimg_library@@QEAA@QEBDZZ 000000018004ada8     image.obj
 0002:00018dd0       $cppxdata$??0CImgArgumentException@cimg_library@@QEAA@QEBDZZ 000000018004add0     image.obj
 0002:00018df8       $cppxdata$??0CImgException@cimg_library@@QEAA@AEBU01@@Z 000000018004adf8     image.obj
 0002:00018e20       $cppxdata$?SetPrototypeMethod@Nan@@YAXV?$Local@VFunctionTemplate@v8@@@v8@@PEBDP6AXAEBV?$FunctionCallbackInfo@VValue@v8@@@1@@Z@Z 000000018004ae20     image.obj
 0002:00018e48       $cppxdata$?New@?$Factory@VFunctionTemplate@v8@@@imp@Nan@@SA?AV?$Local@VFunctionTemplate@v8@@@v8@@P6AXAEBV?$FunctionCallbackInfo@VValue@v8@@@3@@ZV?$Local@VValue@v8@@@5@V?$Local@VSignature@v8@@@5@@Z 000000018004ae48     image.obj
 0002:00018e70       $cppxdata$?convert@?$ToFactory@VInt32@v8@@@imp@Nan@@SA?AV?$MaybeLocal@VInt32@v8@@@v8@@V?$Local@VValue@v8@@@5@@Z 000000018004ae70     image.obj
 0002:00018e98       $cppxdata$?NewInstance@Nan@@YA?AV?$MaybeLocal@VObject@v8@@@v8@@V?$Local@VObjectTemplate@v8@@@3@@Z 000000018004ae98     image.obj
 0002:00018ec0       $cppxdata$??1ObjectWrap@node@@UEAA@XZ 000000018004aec0     image.obj
 0002:00018ee8       $cppxdata$?assign@?$CImg@E@cimg_library@@QEAAAEAU12@QEBEIIII@Z 000000018004aee8     resize_worker.obj
 0002:00018f10       $cppxdata$??0?$CImg@E@cimg_library@@QEAA@AEBU01@_N@Z 000000018004af10     resize_worker.obj
 0002:00018f38       $cppxdata$??0?$CImg@M@cimg_library@@QEAA@IIII@Z 000000018004af38     resize_worker.obj
 0002:00018f60       $cppxdata$??0?$CImg@M@cimg_library@@QEAA@IIIIAEBM@Z 000000018004af60     resize_worker.obj
 0002:00018f88       $cppxdata$??0?$CImg@E@cimg_library@@QEAA@IIIIAEBE@Z 000000018004af88     resize_worker.obj
 0002:00018fb0       $cppxdata$?assign@?$CImg@E@cimg_library@@QEAAAEAU12@IIII@Z 000000018004afb0     resize_worker.obj
 0002:00018fd8       $cppxdata$?get_crop@?$CImg@E@cimg_library@@QEBA?AU12@HHHHHHHH_N@Z 000000018004afd8     resize_worker.obj
 0002:00019000       $cppxdata$?draw_image@?$CImg@E@cimg_library@@QEAAAEAU12@HHHHAEBU12@M@Z 000000018004b000     resize_worker.obj
 0002:00019028       $cppxdata$??0?$CImg@I@cimg_library@@QEAA@IIII@Z 000000018004b028     resize_worker.obj
 0002:00019050       $cppxdata$?get_resize@?$CImg@E@cimg_library@@QEBA?AU12@HHHHHIMMMM@Z 000000018004b050     resize_worker.obj
 0002:00019078       $cppxdata$??0?$CImg@K@cimg_library@@QEAA@IIII@Z 000000018004b078     resize_worker.obj
 0002:000190a0       $cppxdata$?resize@?$CImg@E@cimg_library@@QEAAAEAU12@HHHHHIMMMM@Z 000000018004b0a0     resize_worker.obj
 0002:000190c8       $cppxdata$?Execute@ResizeWorker@@UEAAXXZ 000000018004b0c8     resize_worker.obj
 0002:000190f0       $cppxdata$??1?$Persistent@VObject@v8@@V?$NonCopyablePersistentTraits@VObject@v8@@@2@@Nan@@QEAA@XZ 000000018004b0f0     resize_worker.obj
 0002:00019118       $cppxdata$?HandleErrorCallback@AsyncWorker@Nan@@MEAAXXZ 000000018004b118     resize_worker.obj
 0002:00019140       $cppxdata$?HandleOKCallback@AsyncWorker@Nan@@MEAAXXZ 000000018004b140     resize_worker.obj
 0002:00019168       $cppxdata$?WorkComplete@AsyncWorker@Nan@@UEAAXXZ 000000018004b168     resize_worker.obj
 0002:00019190       $cppxdata$??1AsyncWorker@Nan@@UEAA@XZ 000000018004b190     resize_worker.obj
 0002:000191b8       $cppxdata$??0AsyncWorker@Nan@@QEAA@PEAVCallback@1@PEBD@Z 000000018004b1b8     resize_worker.obj
 0002:000191e0       $cppxdata$?Call_@Callback@Nan@@AEBA?AV?$Local@VValue@v8@@@v8@@PEAVIsolate@4@V?$Local@VObject@v8@@@4@HQEAV34@@Z 000000018004b1e0     resize_worker.obj
 0002:00019208       $cppxdata$?Call@Callback@Nan@@QEBA?AV?$MaybeLocal@VValue@v8@@@v8@@HQEAV?$Local@VValue@v8@@@4@PEAVAsyncResource@2@@Z 000000018004b208     resize_worker.obj
 0002:00019230       $cppxdata$?Call@Callback@Nan@@QEBA?AV?$Local@VValue@v8@@@v8@@HQEAV34@@Z 000000018004b230     resize_worker.obj
 0002:00019258       $cppxdata$?get_rotate@?$CImg@E@cimg_library@@QEBA?AU12@MII@Z 000000018004b258     rotate_worker.obj
 0002:00019280       $cppxdata$?Execute@RotateWorker@@UEAAXXZ 000000018004b280     rotate_worker.obj
 0002:000192a8       $cppxdata$?crop@?$CImg@E@cimg_library@@QEAAAEAU12@HHHHHHHH_N@Z 000000018004b2a8     crop_worker.obj
 0002:000192d0       $cppxdata$?Execute@CropWorker@@UEAAXXZ 000000018004b2d0     crop_worker.obj
 0002:000192f8       $cppxdata$?Execute@MirrorWorker@@UEAAXXZ 000000018004b2f8     mirror_worker.obj
 0002:00019320       $cppxdata$?Execute@PadWorker@@UEAAXXZ 000000018004b320     pad_worker.obj
 0002:00019348       $cppxdata$??$?YE@?$CImg@M@cimg_library@@QEAAAEAU01@AEBU?$CImg@E@1@@Z 000000018004b348     sharpen_worker.obj
 0002:00019370       $cppxdata$?sharpen@?$CImg@E@cimg_library@@QEAAAEAU12@M_NMMM@Z 000000018004b370     sharpen_worker.obj
 0002:00019398       $cppxdata$?Execute@SharpenWorker@@UEAAXXZ 000000018004b398     sharpen_worker.obj
 0002:000193c0       $cppxdata$?Execute@PasteWorker@@UEAAXXZ 000000018004b3c0     paste_worker.obj
 0002:000193e8       $cppxdata$?SaveToPersistent@AsyncWorker@Nan@@QEAAXPEBDAEBV?$Local@VValue@v8@@@v8@@@Z 000000018004b3e8     paste_worker.obj
 0002:00019410       L_real_piby2_1             000000018004b410     libucrt:cos.obj
 0002:00019420       L_real_piby2_1tail         000000018004b420     libucrt:cos.obj
 0002:00019430       L_real_piby2_2             000000018004b430     libucrt:cos.obj
 0002:00019440       L_real_piby2_2tail         000000018004b440     libucrt:cos.obj
 0002:00019450       L_one                      000000018004b450     libucrt:cos.obj
 0002:00019460       L_signbit                  000000018004b460     libucrt:cos.obj
 0002:00019470       L_int_one                  000000018004b470     libucrt:cos.obj
 0002:00019480       L_int_two                  000000018004b480     libucrt:cos.obj
 0002:00019490       L_2_by_pi                  000000018004b490     libucrt:cos.obj
 0002:00019498       L_one_half                 000000018004b498     libucrt:cos.obj
 0002:000194a0       L_neg_one_half             000000018004b4a0     libucrt:cos.obj
 0002:000194a8       L_two_to_neg_27            000000018004b4a8     libucrt:cos.obj
 0002:000194b0       L_two_to_neg_13            000000018004b4b0     libucrt:cos.obj
 0002:000194b8       L_piby4                    000000018004b4b8     libucrt:cos.obj
 0002:000194c0       L_small_arg_cw             000000018004b4c0     libucrt:cos.obj
 0002:000194c8       L_small_arg_bdl            000000018004b4c8     libucrt:cos.obj
 0002:000194d0       L_sign_mask                000000018004b4d0     libucrt:cos.obj
 0002:000194d8       L__inf_mask_64             000000018004b4d8     libucrt:cos.obj
 0002:000194e0       L_2_to_32                  000000018004b4e0     libucrt:cos.obj
 0002:000194f0       L_real_one                 000000018004b4f0     libucrt:cosf.obj
 0002:00019500       L_one_half                 000000018004b500     libucrt:cosf.obj
 0002:00019510       L_2bypi                    000000018004b510     libucrt:cosf.obj
 0002:00019520       L_one_sixth                000000018004b520     libucrt:cosf.obj
 0002:00019530       L_piby2                    000000018004b530     libucrt:cosf.obj
 0002:00019540       L_piby2_1                  000000018004b540     libucrt:cosf.obj
 0002:00019550       L_piby2_1tail              000000018004b550     libucrt:cosf.obj
 0002:00019560       L_piby2_2                  000000018004b560     libucrt:cosf.obj
 0002:00019570       L_piby2_2tail              000000018004b570     libucrt:cosf.obj
 0002:00019580       L_large_x_sse2             000000018004b580     libucrt:cosf.obj
 0002:00019590       L_large_x_fma3             000000018004b590     libucrt:cosf.obj
 0002:000195a0       L_sign_mask                000000018004b5a0     libucrt:cosf.obj
 0002:000195b0       L__int_three               000000018004b5b0     libucrt:cosf.obj
 0002:000195c0       L__min_norm_double         000000018004b5c0     libucrt:cosf.obj
 0002:000195d0       L_two_to_neg_7             000000018004b5d0     libucrt:cosf.obj
 0002:000195e0       L_two_to_neg_13            000000018004b5e0     libucrt:cosf.obj
 0002:000195f0       L_two_to_32_float          000000018004b5f0     libucrt:cosf.obj
 0002:000195f8       L_one_float                000000018004b5f8     libucrt:cosf.obj
 0002:00019600       L_inf_mask_32              000000018004b600     libucrt:cosf.obj
 0002:00019610       __real_inf                 000000018004b610     libucrt:expf.obj
 0002:00019620       __real_p8192               000000018004b620     libucrt:expf.obj
 0002:00019630       __real_m9600               000000018004b630     libucrt:expf.obj
 0002:00019640       __real_64_by_log2          000000018004b640     libucrt:expf.obj
 0002:00019650       __real_log2_by_64          000000018004b650     libucrt:expf.obj
 0002:00019660       __real_1_by_6              000000018004b660     libucrt:expf.obj
 0002:00019670       __real_1_by_2              000000018004b670     libucrt:expf.obj
 0002:00019680       __real_ninf                000000018004b680     libucrt:expf.obj
 0002:00019684       __real_qnanbit             000000018004b684     libucrt:expf.obj
 0002:00019688       __max_exp_arg              000000018004b688     libucrt:expf.obj
 0002:0001968c       __flag_x_nan               000000018004b68c     libucrt:expf.obj
 0002:00019690       __flag_y_zero              000000018004b690     libucrt:expf.obj
 0002:00019694       __flag_y_inf               000000018004b694     libucrt:expf.obj
 0002:000196a0       __flag_x_one_y_snan        000000018004b6a0     libucrt:powf.obj
 0002:000196a4       __flag_x_zero_z_inf        000000018004b6a4     libucrt:powf.obj
 0002:000196a8       __flag_x_nan               000000018004b6a8     libucrt:powf.obj
 0002:000196ac       __flag_y_nan               000000018004b6ac     libucrt:powf.obj
 0002:000196b0       __flag_x_nan_y_nan         000000018004b6b0     libucrt:powf.obj
 0002:000196b4       __flag_x_neg_y_notint      000000018004b6b4     libucrt:powf.obj
 0002:000196b8       __flag_z_zero              000000018004b6b8     libucrt:powf.obj
 0002:000196bc       __flag_z_denormal          000000018004b6bc     libucrt:powf.obj
 0002:000196c0       __flag_z_inf               000000018004b6c0     libucrt:powf.obj
 0002:000196c4       L__1_by_3                  000000018004b6c4     libucrt:powf.obj
 0002:000196cc       L__log2                    000000018004b6cc     libucrt:powf.obj
 0002:000196d4       L__max_exp_arg             000000018004b6d4     libucrt:powf.obj
 0002:000196dc       L__min_exp_arg             000000018004b6dc     libucrt:powf.obj
 0002:000196e4       L__real_log2_by_64         000000018004b6e4     libucrt:powf.obj
 0002:000196ec       L__1_by_6                  000000018004b6ec     libucrt:powf.obj
 0002:000196f4       L__real_threshold          000000018004b6f4     libucrt:powf.obj
 0002:000196fc       L__real_one                000000018004b6fc     libucrt:powf.obj
 0002:00019704       L__real_two                000000018004b704     libucrt:powf.obj
 0002:0001970c       L__neg_zero                000000018004b70c     libucrt:powf.obj
 0002:00019720       L__real_ca42               000000018004b720     libucrt:powf.obj
 0002:00019728       L__real_ca4                000000018004b728     libucrt:powf.obj
 0002:00019730       L__real_ca31               000000018004b730     libucrt:powf.obj
 0002:00019738       L__real_ca3                000000018004b738     libucrt:powf.obj
 0002:00019740       L__clear_sign              000000018004b740     libucrt:powf.obj
 0002:00019750       L__real_64_by_log2         000000018004b750     libucrt:powf.obj
 0002:00019760       L__1_by_2                  000000018004b760     libucrt:powf.obj
 0002:00019770       L__1023                    000000018004b770     libucrt:powf.obj
 0002:00019780       L__xexp_bits_xmantissa_bits 000000018004b780     libucrt:powf.obj
 0002:00019fa0       L_real_piby2_1             000000018004bfa0     libucrt:sin.obj
 0002:00019fb0       L_real_piby2_1tail         000000018004bfb0     libucrt:sin.obj
 0002:00019fc0       L_real_piby2_2             000000018004bfc0     libucrt:sin.obj
 0002:00019fd0       L_real_piby2_2tail         000000018004bfd0     libucrt:sin.obj
 0002:00019fe0       L_one                      000000018004bfe0     libucrt:sin.obj
 0002:00019ff0       L_signbit                  000000018004bff0     libucrt:sin.obj
 0002:0001a000       L_int_one                  000000018004c000     libucrt:sin.obj
 0002:0001a010       L_int_two                  000000018004c010     libucrt:sin.obj
 0002:0001a020       L_int_three                000000018004c020     libucrt:sin.obj
 0002:0001a030       L_2_by_pi                  000000018004c030     libucrt:sin.obj
 0002:0001a038       L_one_half                 000000018004c038     libucrt:sin.obj
 0002:0001a040       L_one_sixth                000000018004c040     libucrt:sin.obj
 0002:0001a048       L_two_to_neg_27            000000018004c048     libucrt:sin.obj
 0002:0001a050       L_two_to_neg_13            000000018004c050     libucrt:sin.obj
 0002:0001a058       L_piby4                    000000018004c058     libucrt:sin.obj
 0002:0001a060       L_small_arg_cw             000000018004c060     libucrt:sin.obj
 0002:0001a068       L_small_arg_bdl            000000018004c068     libucrt:sin.obj
 0002:0001a070       L__inf_mask_64             000000018004c070     libucrt:sin.obj
 0002:0001a078       L_near_one                 000000018004c078     libucrt:sin.obj
 0002:0001a080       L_signbit                  000000018004c080     libucrt:sinf.obj
 0002:0001a090       L_sign_mask                000000018004c090     libucrt:sinf.obj
 0002:0001a0a0       L_one                      000000018004c0a0     libucrt:sinf.obj
 0002:0001a0b0       L_int_three                000000018004c0b0     libucrt:sinf.obj
 0002:0001a0c0       L_one_half                 000000018004c0c0     libucrt:sinf.obj
 0002:0001a0d0       L_twobypi                  000000018004c0d0     libucrt:sinf.obj
 0002:0001a0e0       L_piby2_1                  000000018004c0e0     libucrt:sinf.obj
 0002:0001a0f0       L_one_sixth                000000018004c0f0     libucrt:sinf.obj
 0002:0001a100       L_piby2_1tail              000000018004c100     libucrt:sinf.obj
 0002:0001a110       L_piby2_2                  000000018004c110     libucrt:sinf.obj
 0002:0001a120       L_piby2_2tail              000000018004c120     libucrt:sinf.obj
 0002:0001a130       L_inf_mask_32              000000018004c130     libucrt:sinf.obj
 0002:0001a140       L_int_two                  000000018004c140     libucrt:sinf.obj
 0002:0001a150       L_piby2_lead               000000018004c150     libucrt:sinf.obj
 0002:0001a160       L_piby4                    000000018004c160     libucrt:sinf.obj
 0002:0001a170       L_mask_3f2                 000000018004c170     libucrt:sinf.obj
 0002:0001a180       L_mask_3f8                 000000018004c180     libucrt:sinf.obj
 0002:0001a190       L_large_x_fma3             000000018004c190     libucrt:sinf.obj
 0002:0001a198       L_large_x_sse2             000000018004c198     libucrt:sinf.obj
 0002:0001a1a0       L_near_one                 000000018004c1a0     libucrt:sinf.obj
 0002:0001a1a8       L_two_to_32                000000018004c1a8     libucrt:sinf.obj
 0002:0001a270       L__piby2_part3_piby2_lead  000000018004c270     libucrt:remainder_piby2_forasm.obj
 0002:0001a280       L__piby2_part1             000000018004c280     libucrt:remainder_piby2_forasm.obj
 0002:0001a290       L__piby2_part2             000000018004c290     libucrt:remainder_piby2_forasm.obj
 0002:0001a2a0       L_piby2_1                  000000018004c2a0     libucrt:remainder_piby2_forasm.obj
 0002:0001a2b0       L_piby2_2                  000000018004c2b0     libucrt:remainder_piby2_forasm.obj
 0002:0001a2c0       L_piby2_3                  000000018004c2c0     libucrt:remainder_piby2_forasm.obj
 0002:0001a2d0       L_piby2_1tail              000000018004c2d0     libucrt:remainder_piby2_forasm.obj
 0002:0001a2e0       L_piby2_2tail              000000018004c2e0     libucrt:remainder_piby2_forasm.obj
 0002:0001a2f0       L_piby2_3tail              000000018004c2f0     libucrt:remainder_piby2_forasm.obj
 0002:0001a300       L_twobypi                  000000018004c300     libucrt:remainder_piby2_forasm.obj
 0002:0001a310       L_point_five               000000018004c310     libucrt:remainder_piby2_forasm.obj
 0002:0001a320       L_int_three                000000018004c320     libucrt:remainder_piby2_forasm.obj
 0002:0001a330       L_inf_mask_64              000000018004c330     libucrt:remainder_piby2_forasm.obj
 0002:0001a340       L_signbit                  000000018004c340     libucrt:remainder_piby2_forasm.obj
 0002:0001a350       L_int_1                    000000018004c350     libucrt:remainder_piby2_forasm.obj
 0002:0001a360       L_int_15                   000000018004c360     libucrt:remainder_piby2_forasm.obj
 0002:0001a368       L_int_48                   000000018004c368     libucrt:remainder_piby2_forasm.obj
 0002:0001a370       L_3pio4                    000000018004c370     libucrt:remainder_piby2_forasm.obj
 0002:0001a378       L_5pio4                    000000018004c378     libucrt:remainder_piby2_forasm.obj
 0002:0001a380       L_7pio4                    000000018004c380     libucrt:remainder_piby2_forasm.obj
 0002:0001a388       L_9pio4                    000000018004c388     libucrt:remainder_piby2_forasm.obj
 0002:0001a390       L__2_by_pi_bits            000000018004c390     libucrt:remainder_piby2_forasm.obj
 0002:0001a430       L_piby2_lead               000000018004c430     libucrt:remainder_piby2_forfma3.obj
 0002:0001a440       L_fff800                   000000018004c440     libucrt:remainder_piby2_forfma3.obj
 0002:0001a450       L_piby2_part1              000000018004c450     libucrt:remainder_piby2_forfma3.obj
 0002:0001a460       L_piby2_part2              000000018004c460     libucrt:remainder_piby2_forfma3.obj
 0002:0001a470       L_piby2_part3              000000018004c470     libucrt:remainder_piby2_forfma3.obj
 0002:0001a480       L_piby2_1                  000000018004c480     libucrt:remainder_piby2_forfma3.obj
 0002:0001a490       L_piby2_2                  000000018004c490     libucrt:remainder_piby2_forfma3.obj
 0002:0001a4a0       L_piby2_3                  000000018004c4a0     libucrt:remainder_piby2_forfma3.obj
 0002:0001a4b0       L_piby2_1tail              000000018004c4b0     libucrt:remainder_piby2_forfma3.obj
 0002:0001a4c0       L_piby2_2tail              000000018004c4c0     libucrt:remainder_piby2_forfma3.obj
 0002:0001a4d0       L_piby2_3tail              000000018004c4d0     libucrt:remainder_piby2_forfma3.obj
 0002:0001a4e0       L_sign_mask                000000018004c4e0     libucrt:remainder_piby2_forfma3.obj
 0002:0001a4f0       L_twobypi                  000000018004c4f0     libucrt:remainder_piby2_forfma3.obj
 0002:0001a500       L_point_five               000000018004c500     libucrt:remainder_piby2_forfma3.obj
 0002:0001a510       L_int_three                000000018004c510     libucrt:remainder_piby2_forfma3.obj
 0002:0001a520       L_inf_mask_64              000000018004c520     libucrt:remainder_piby2_forfma3.obj
 0002:0001a530       L_signbit                  000000018004c530     libucrt:remainder_piby2_forfma3.obj
 0002:0001a540       L_r                        000000018004c540     libucrt:remainder_piby2_forfma3.obj
 0002:0001a550       L_xc1                      000000018004c550     libucrt:remainder_piby2_forfma3.obj
 0002:0001a560       L_xc2                      000000018004c560     libucrt:remainder_piby2_forfma3.obj
 0002:0001a570       L_xc3                      000000018004c570     libucrt:remainder_piby2_forfma3.obj
 0002:0001a580       L_sigma                    000000018004c580     libucrt:remainder_piby2_forfma3.obj
 0002:0001a5a0       L__piby2                   000000018004c5a0     libucrt:remainder_piby2f_forasm.obj
 0002:0001a8b0       L__piby2                   000000018004c8b0     libucrt:remainder_piby2f_forc.obj
 0002:0001a8c0       L__2_by_pi_bits            000000018004c8c0     libucrt:remainder_piby2f_forc.obj
 0002:0001b290       $unwind$_set_errno_from_matherr 000000018004d290     libucrt:fpexcept.obj
 0002:0001b290       $unwind$__acrt_thread_attach 000000018004d290     libucrt:initialization.obj
 0002:0001b290       $unwind$__acrt_thread_detach 000000018004d290     libucrt:initialization.obj
 0002:0001b290       $unwind$_fileno            000000018004d290     libucrt:fileno.obj
 0002:0001b290       $unwind$_get_osfhandle     000000018004d290     libucrt:osfinfo.obj
 0002:0001b290       $unwind$__acrt_initialize_multibyte 000000018004d290     libucrt:mbctype.obj
 0002:0001b290       $unwind$tolower            000000018004d290     libucrt:tolower_toupper.obj
 0002:0001b290       $unwind$initialize_c       000000018004d290     libucrt:initialization.obj
 0002:0001b290       $unwind$_getfpstatusword   000000018004d290     libucrt:_fenvutils.obj
 0002:0001b290       $unwind$uninitialize_environment 000000018004d290     libucrt:initialization.obj
 0002:0001b290       $unwind$_getfpcontrolword  000000018004d290     libucrt:_fenvutils.obj
 0002:0001b290       $unwind$_get_fmode         000000018004d290     libucrt:setmode.obj
 0002:0001b290       $unwind$?InitAll@@YAXV?$Local@VObject@v8@@@v8@@@Z 000000018004d290     init.obj
 0002:0001b290       $unwind$__doserrno         000000018004d290     libucrt:errno.obj
 0002:0001b290       $unwind$__dcrt_terminate_console_output 000000018004d290     libucrt:initcon.obj
 0002:0001b290       $unwind$??$uninitialize_environment_internal@_W@@YAXAEAPEAPEA_W@Z 000000018004d290     libucrt:environment_initialization.obj
 0002:0001b290       $unwind$_errno             000000018004d290     libucrt:errno.obj
 0002:0001b290       $unwind$??$uninitialize_environment_internal@D@@YAXAEAPEAPEAD@Z 000000018004d290     libucrt:environment_initialization.obj
 0002:0001b290       $unwind$?state_case_size@?$output_processor@DV?$string_output_adapter@D@__crt_stdio_output@@V?$standard_base@DV?$string_output_adapter@D@__crt_stdio_output@@@2@@__crt_stdio_output@@AEAA_NXZ 000000018004d290     libucrt:output.obj
 0002:0001b290       $unwind$?state_case_normal_tchar@?$output_processor@DV?$string_output_adapter@D@__crt_stdio_output@@V?$standard_base@DV?$string_output_adapter@D@__crt_stdio_output@@@2@@__crt_stdio_output@@AEAA_ND@Z 000000018004d290     libucrt:output.obj
 0002:0001b290       $unwind$?state_case_size@?$output_processor@DV?$string_output_adapter@D@__crt_stdio_output@@V?$format_validation_base@DV?$string_output_adapter@D@__crt_stdio_output@@@2@@__crt_stdio_output@@AEAA_NXZ 000000018004d290     libucrt:output.obj
 0002:0001b290       $unwind$__dcrt_uninitialize_environments_nolock 000000018004d290     libucrt:environment_initialization.obj
 0002:0001b290       $unwind$?state_case_size@?$output_processor@_WV?$stream_output_adapter@_W@__crt_stdio_output@@V?$standard_base@_WV?$stream_output_adapter@_W@__crt_stdio_output@@@2@@__crt_stdio_output@@AEAA_NXZ 000000018004d290     libucrt:output.obj
 0002:0001b290       $unwind$_invoke_watson     000000018004d290     libucrt:invalid_parameter.obj
 0002:0001b290       $unwind$?initialize_multibyte@@YAHXZ 000000018004d290     libucrt:multibyte_initializer.obj
 0002:0001b290       $unwind$__GSHandlerCheck   000000018004d290     LIBCMT:_gshandler_.obj
 0002:0001b290       $unwind$_set_error_mode    000000018004d290     libucrt:set_error_mode.obj
 0002:0001b290       $unwind$__report_rangecheckfailure 000000018004d290     LIBCMT:gs_report.obj
 0002:0001b290       $unwind$__scrt_initialize_default_local_stdio_options 000000018004d290     LIBCMT:default_local_stdio_options.obj
 0002:0001b290       $unwind$?state_case_normal_tchar@?$output_processor@DV?$string_output_adapter@D@__crt_stdio_output@@V?$format_validation_base@DV?$string_output_adapter@D@__crt_stdio_output@@@2@@__crt_stdio_output@@AEAA_ND@Z 000000018004d290     libucrt:output.obj
 0002:0001b290       $unwind$?state_case_size@?$output_processor@DV?$stream_output_adapter@D@__crt_stdio_output@@V?$standard_base@DV?$stream_output_adapter@D@__crt_stdio_output@@@2@@__crt_stdio_output@@AEAA_NXZ 000000018004d290     libucrt:output.obj
 0002:0001b290       $unwind$?output@cimg@cimg_library@@YAPEAU_iobuf@@PEAU3@@Z 000000018004d290     image.obj
 0002:0001b290       $unwind$?validate_stream_is_ansi_if_required@?$__acrt_stdio_char_traits@D@@SA_NQEAU_iobuf@@@Z 000000018004d290     libucrt:output.obj
 0002:0001b290       $unwind$?__scrt_uninitialize_thread_safe_statics@@YAXXZ 000000018004d290     LIBCMT:thread_safe_statics.obj
 0002:0001b290       $unwind$_isatty            000000018004d290     libucrt:isatty.obj
 0002:0001b290       $unwind$_msize             000000018004d290     libucrt:msize.obj
 0002:0001b290       $unwind$_statfp            000000018004d290     libucrt:fpctrl.obj
 0002:0001b290       $unwind$abort              000000018004d290     libucrt:abort.obj
 0002:0001b290       $unwind$__acrt_initialize_heap 000000018004d290     libucrt:heap_handle.obj
 0002:0001b290       $unwind$__acrt_initialize_command_line 000000018004d290     libucrt:argv_data.obj
 0002:0001b290       $unwind$?dllmain_crt_dispatch@@YAHQEAUHINSTANCE__@@KQEAX@Z 000000018004d290     LIBCMT:dll_dllmain.obj
 0002:0001b290       $unwind$_wremove           000000018004d290     libucrt:wunlink.obj
 0002:0001b290       $unwind$atexit             000000018004d290     LIBCMT:utility.obj
 0002:0001b290       $unwind$__acrt_uninitialize_ptd 000000018004d290     libucrt:per_thread_data.obj
 0002:0001b290       $unwind$__scrt_acquire_startup_lock 000000018004d290     LIBCMT:utility.obj
 0002:0001b290       $unwind$__acrt_release_locale_ref 000000018004d290     libucrt:locale_refcounting.obj
 0002:0001b290       $unwind$__acrt_uninitialize_critical 000000018004d290     libucrt:initialization.obj
 0002:0001b290       $unwind$__scrt_dllmain_before_initialize_c 000000018004d290     LIBCMT:utility.obj
 0002:0001b290       $unwind$__scrt_dllmain_after_initialize_c 000000018004d290     LIBCMT:utility.obj
 0002:0001b290       $unwind$__scrt_dllmain_uninitialize_c 000000018004d290     LIBCMT:utility.obj
 0002:0001b290       $unwind$__scrt_dllmain_uninitialize_critical 000000018004d290     LIBCMT:utility.obj
 0002:0001b290       $unwind$__scrt_dllmain_crt_thread_attach 000000018004d290     LIBCMT:utility.obj
 0002:0001b290       $unwind$__scrt_dllmain_crt_thread_detach 000000018004d290     LIBCMT:utility.obj
 0002:0001b290       $unwind$_GetThrowImageBase 000000018004d290     libvcruntime:trnsctrl.obj
 0002:0001b290       $unwind$__acrt_initialize_ptd 000000018004d290     libucrt:per_thread_data.obj
 0002:0001b290       $unwind$_GetImageBase      000000018004d290     libvcruntime:trnsctrl.obj
 0002:0001b290       $unwind$?__GetCurrentState@@YAHPEA_KPEAU_xDISPATCHER_CONTEXT@@PEBU_s_FuncInfo@@@Z 000000018004d290     libvcruntime:ehstate.obj
 0002:0001b290       $unwind$__std_terminate    000000018004d290     libvcruntime:frame.obj
 0002:0001b290       $unwind$__acrt_DownlevelLocaleNameToLCID 000000018004d290     libucrt:lcidtoname_downlevel.obj
 0002:0001b290       $unwind$__FrameUnwindFilter 000000018004d290     libvcruntime:frame.obj
 0002:0001b290       $unwind$?state_case_size@?$output_processor@_WV?$string_output_adapter@_W@__crt_stdio_output@@V?$standard_base@_WV?$string_output_adapter@_W@__crt_stdio_output@@@2@@__crt_stdio_output@@AEAA_NXZ 000000018004d290     libucrt:output.obj
 0002:0001b290       $unwind$rand               000000018004d290     libucrt:rand.obj
 0002:0001b290       $unwind$__vcrt_freefls     000000018004d290     libvcruntime:per_thread_data.obj
 0002:0001b290       $unwind$_stricmp           000000018004d290     libucrt:stricmp.obj
 0002:0001b290       $unwind$__vcrt_getptd      000000018004d290     libvcruntime:per_thread_data.obj
 0002:0001b290       $unwind$__vcrt_uninitialize_ptd 000000018004d290     libvcruntime:per_thread_data.obj
 0002:0001b290       $unwind$__vcrt_initialize  000000018004d290     libvcruntime:initialization.obj
 0002:0001b290       $unwind$__vcrt_uninitialize 000000018004d290     libvcruntime:initialization.obj
 0002:0001b290       $unwind$__vcrt_uninitialize_critical 000000018004d290     libvcruntime:initialization.obj
 0002:0001b290       $unwind$__vcrt_initialize_ptd 000000018004d290     libvcruntime:per_thread_data.obj
 0002:0001b290       $unwind$__vcrt_thread_attach 000000018004d290     libvcruntime:initialization.obj
 0002:0001b290       $unwind$__vcrt_thread_detach 000000018004d290     libvcruntime:initialization.obj
 0002:0001b290       $unwind$_strnicmp          000000018004d290     libucrt:strnicmp.obj
 0002:0001b290       $unwind$__pctype_func      000000018004d290     libucrt:ctype.obj
 0002:0001b298       $unwind$fwprintf           000000018004d298     libucrt:assert.obj
 0002:0001b298       $unwind$fprintf            000000018004d298     image.obj
 0002:0001b2a4       $unwind$??$message_box_wait_thread@_W@@YAKQEAX@Z 000000018004d2a4     libucrt:crtmbox.obj
 0002:0001b2a4       $unwind$__acrt_AreFileApisANSI 000000018004d2a4     libucrt:winapi_thunks.obj
 0002:0001b2a4       $unwind$_setfpstatusword   000000018004d2a4     libucrt:_fenvutils.obj
 0002:0001b2a4       $unwind$??$common_get_or_create_environment_nolock@D@@YAPEAPEADXZ 000000018004d2a4     libucrt:environment_initialization.obj
 0002:0001b2a4       $unwind$fesetenv           000000018004d2a4     libucrt:fesetenv.obj
 0002:0001b2a4       $unwind$feholdexcept       000000018004d2a4     libucrt:feholdexcept.obj
 0002:0001b2a4       $unwind$fegetenv           000000018004d2a4     libucrt:fegetenv.obj
 0002:0001b2a4       $unwind$?fclose@cimg@cimg_library@@YAHPEAU_iobuf@@@Z 000000018004d2a4     image.obj
 0002:0001b2a4       $unwind$__acrt_can_show_message_box 000000018004d2a4     libucrt:winapi_thunks.obj
 0002:0001b2a4       $unwind$??1CImgIOException@cimg_library@@UEAA@XZ 000000018004d2a4     image.obj
 0002:0001b2a4       $unwind$??1CImgInstanceException@cimg_library@@UEAA@XZ 000000018004d2a4     image.obj
 0002:0001b2a4       $unwind$_set_statfp        000000018004d2a4     libucrt:fpctrl.obj
 0002:0001b2a4       $unwind$_clrfp             000000018004d2a4     libucrt:fpctrl.obj
 0002:0001b2a4       $unwind$__acrt_uninitialize_winapi_thunks 000000018004d2a4     libucrt:winapi_thunks.obj
 0002:0001b2a4       $unwind$_clearfp           000000018004d2a4     libucrt:ieee.obj
 0002:0001b2a4       $unwind$??1CImgException@cimg_library@@UEAA@XZ 000000018004d2a4     image.obj
 0002:0001b2a4       $unwind$__acrt_allocate_buffer_for_argv 000000018004d2a4     libucrt:argv_parsing.obj
 0002:0001b2a4       $unwind$?AsyncExecuteComplete@Nan@@YAXPEAUuv_work_s@@@Z 000000018004d2a4     image.obj
 0002:0001b2a4       $unwind$_IsExceptionObjectToBeDestroyed 000000018004d2a4     libvcruntime:trnsctrl.obj
 0002:0001b2a4       $unwind$_CreateFrameInfo   000000018004d2a4     libvcruntime:trnsctrl.obj
 0002:0001b2a4       $unwind$_SetThrowImageBase 000000018004d2a4     libvcruntime:trnsctrl.obj
 0002:0001b2a4       $unwind$_SetImageBase      000000018004d2a4     libvcruntime:trnsctrl.obj
 0002:0001b2a4       $unwind$?WeakCallback@ObjectWrap@node@@CAXAEBV?$WeakCallbackInfo@VObjectWrap@node@@@v8@@@Z 000000018004d2a4     image.obj
 0002:0001b2a4       $unwind$?Unref@ObjectWrap@node@@MEAAXXZ 000000018004d2a4     image.obj
 0002:0001b2a4       $unwind$?__StateFromIp@@YAHPEBU_s_FuncInfo@@PEAU_xDISPATCHER_CONTEXT@@_J@Z 000000018004d2a4     libvcruntime:ehstate.obj
 0002:0001b2a4       $unwind$?__GetUnwindTryBlock@@YAHPEA_KPEAU_xDISPATCHER_CONTEXT@@PEBU_s_FuncInfo@@@Z 000000018004d2a4     libvcruntime:ehstate.obj
 0002:0001b2a4       $unwind$?Ref@ObjectWrap@node@@MEAAXXZ 000000018004d2a4     image.obj
 0002:0001b2a4       $unwind$??_Gexception@stdext@@UEAAPEAXI@Z 000000018004d2a4     image.obj
 0002:0001b2a4       $unwind$??1CImgArgumentException@cimg_library@@UEAA@XZ 000000018004d2a4     image.obj
 0002:0001b2a4       $unwind$_purecall          000000018004d2a4     libvcruntime:purevirt.obj
 0002:0001b2a4       $unwind$?fill@?$CImg@M@cimg_library@@QEAAAEAU12@AEBM@Z 000000018004d2a4     resize_worker.obj
 0002:0001b2a4       $unwind$__acrt_stdio_free_buffer_nolock 000000018004d2a4     libucrt:_freebuf.obj
 0002:0001b2a4       $unwind$__vcrt_freeptd     000000018004d2a4     libvcruntime:per_thread_data.obj
 0002:0001b2a4       $unwind$wcscpy_s           000000018004d2a4     libucrt:wcscpy_s.obj
 0002:0001b2a4       $unwind$wcscat_s           000000018004d2a4     libucrt:wcscat_s.obj
 0002:0001b2a4       $unwind$__vcrt_uninitialize_locks 000000018004d2a4     libvcruntime:locks.obj
 0002:0001b2a4       $unwind$__vcrt_initialize_locks 000000018004d2a4     libvcruntime:locks.obj
 0002:0001b2a4       $unwind$__std_type_info_destroy_list 000000018004d2a4     libvcruntime:std_type_info.obj
 0002:0001b2a4       $unwind$__std_exception_destroy 000000018004d2a4     libvcruntime:std_exception.obj
 0002:0001b2a4       $unwind$strcpy_s           000000018004d2a4     libucrt:strcpy_s.obj
 0002:0001b2a4       $unwind$srand              000000018004d2a4     libucrt:rand.obj
 0002:0001b2a4       $unwind$??0bad_exception@std@@QEAA@AEBV01@@Z 000000018004d2a4     libvcruntime:frame.obj
 0002:0001b2a4       $unwind$__acrt_stdio_allocate_buffer_nolock 000000018004d2a4     libucrt:_getbuf.obj
 0002:0001b2a4       $unwind$?exit_or_terminate_process@@YAXI@Z 000000018004d2a4     libucrt:exit.obj
 0002:0001b2a4       $unwind$??0bad_alloc@std@@QEAA@AEBV01@@Z 000000018004d2a4     libcpmt:xthrow.obj
 0002:0001b2a4       $unwind$?assign@?$CImg@E@cimg_library@@QEAAAEAU12@XZ 000000018004d2a4     resize_worker.obj
 0002:0001b2a4       $unwind$__acrt_uninitialize_stdio 000000018004d2a4     libucrt:_file.obj
 0002:0001b2a4       $unwind$__acrt_fp_strflt_to_string 000000018004d2a4     libucrt:_fptostr.obj
 0002:0001b2a4       $unwind$__scrt_uninitialize_crt 000000018004d2a4     LIBCMT:utility.obj
 0002:0001b2a4       $unwind$?type_case_integer@?$output_processor@_WV?$string_output_adapter@_W@__crt_stdio_output@@V?$standard_base@_WV?$string_output_adapter@_W@__crt_stdio_output@@@2@@__crt_stdio_output@@AEAA_NI_N@Z 000000018004d2a4     libucrt:output.obj
 0002:0001b2a4       $unwind$__scrt_initialize_crt 000000018004d2a4     LIBCMT:utility.obj
 0002:0001b2a4       $unwind$__scrt_release_startup_lock 000000018004d2a4     LIBCMT:utility.obj
 0002:0001b2a4       $unwind$__acrt_update_multibyte_info 000000018004d2a4     libucrt:locale_update.obj
 0002:0001b2a4       $unwind$_onexit            000000018004d2a4     LIBCMT:utility.obj
 0002:0001b2a4       $unwind$remove             000000018004d2a4     libucrt:unlink.obj
 0002:0001b2a4       $unwind$?load_exe_hook@@YAP6A_JXZIPEAUDelayLoadInfo@@@Z 000000018004d2a4     win_delay_load_hook.obj
 0002:0001b2a4       $unwind$__acrt_update_locale_info 000000018004d2a4     libucrt:locale_update.obj
 0002:0001b2a4       $unwind$__acrt_freeptd     000000018004d2a4     libucrt:per_thread_data.obj
 0002:0001b2a4       $unwind$_calloc_base       000000018004d2a4     libucrt:calloc_base.obj
 0002:0001b2a4       $unwind$_malloc_base       000000018004d2a4     libucrt:malloc_base.obj
 0002:0001b2a4       $unwind$_Init_thread_notify 000000018004d2a4     LIBCMT:thread_safe_statics.obj
 0002:0001b2a4       $unwind$_Init_thread_footer 000000018004d2a4     LIBCMT:thread_safe_statics.obj
 0002:0001b2a4       $unwind$_Init_thread_abort 000000018004d2a4     LIBCMT:thread_safe_statics.obj
 0002:0001b2a4       $unwind$_Init_thread_header 000000018004d2a4     LIBCMT:thread_safe_statics.obj
 0002:0001b2a4       $unwind$??0?$output_processor@_WV?$string_output_adapter@_W@__crt_stdio_output@@V?$standard_base@_WV?$string_output_adapter@_W@__crt_stdio_output@@@2@@__crt_stdio_output@@QEAA@AEBV?$string_output_adapter@_W@1@_KQEB_WQEAU__crt_locale_pointers@@QEAD@Z 000000018004d2a4     libucrt:output.obj
 0002:0001b2a4       $unwind$??0?$output_processor@DV?$stream_output_adapter@D@__crt_stdio_output@@V?$standard_base@DV?$stream_output_adapter@D@__crt_stdio_output@@@2@@__crt_stdio_output@@QEAA@AEBV?$stream_output_adapter@D@1@_KQEBDQEAU__crt_locale_pointers@@QEAD@Z 000000018004d2a4     libucrt:output.obj
 0002:0001b2a4       $unwind$?state_case_normal@?$output_processor@DV?$stream_output_adapter@D@__crt_stdio_output@@V?$standard_base@DV?$stream_output_adapter@D@__crt_stdio_output@@@2@@__crt_stdio_output@@AEAA_NXZ 000000018004d2a4     libucrt:output.obj
 0002:0001b2a4       $unwind$?state_case_normal_tchar@?$output_processor@DV?$stream_output_adapter@D@__crt_stdio_output@@V?$standard_base@DV?$stream_output_adapter@D@__crt_stdio_output@@@2@@__crt_stdio_output@@AEAA_ND@Z 000000018004d2a4     libucrt:output.obj
 0002:0001b2a4       $unwind$??0bad_array_new_length@std@@QEAA@AEBV01@@Z 000000018004d2a4     LIBCMT:throw_bad_alloc.obj
 0002:0001b2a4       $unwind$??2@YAPEAX_K@Z     000000018004d2a4     LIBCMT:new_scalar.obj
 0002:0001b2a4       $unwind$??_Gtype_info@@UEAAPEAXI@Z 000000018004d2a4     LIBCMT:std_type_info_static.obj
 0002:0001b2a4       $unwind$__raise_securityfailure 000000018004d2a4     LIBCMT:gs_report.obj
 0002:0001b2a4       $unwind$?type_case_integer@?$output_processor@DV?$stream_output_adapter@D@__crt_stdio_output@@V?$standard_base@DV?$stream_output_adapter@D@__crt_stdio_output@@@2@@__crt_stdio_output@@AEAA_NI_N@Z 000000018004d2a4     libucrt:output.obj
 0002:0001b2a4       $unwind$??0?$output_processor@_WV?$stream_output_adapter@_W@__crt_stdio_output@@V?$standard_base@_WV?$stream_output_adapter@_W@__crt_stdio_output@@@2@@__crt_stdio_output@@QEAA@AEBV?$stream_output_adapter@_W@1@_KQEB_WQEAU__crt_locale_pointers@@QEAD@Z 000000018004d2a4     libucrt:output.obj
 0002:0001b2a4       $unwind$__acrt_initialize_locks 000000018004d2a4     libucrt:locks.obj
 0002:0001b2a4       $unwind$??0?$output_processor@DV?$string_output_adapter@D@__crt_stdio_output@@V?$format_validation_base@DV?$string_output_adapter@D@__crt_stdio_output@@@2@@__crt_stdio_output@@QEAA@AEBV?$string_output_adapter@D@1@_KQEBDQEAU__crt_locale_pointers@@QEAD@Z 000000018004d2a4     libucrt:output.obj
 0002:0001b2a4       $unwind$__acrt_uninitialize_locks 000000018004d2a4     libucrt:locks.obj
 0002:0001b2a4       $unwind$?type_case_integer@?$output_processor@_WV?$stream_output_adapter@_W@__crt_stdio_output@@V?$standard_base@_WV?$stream_output_adapter@_W@__crt_stdio_output@@@2@@__crt_stdio_output@@AEAA_NI_N@Z 000000018004d2a4     libucrt:output.obj
 0002:0001b2a4       $unwind$??0out_of_range@std@@QEAA@AEBV01@@Z 000000018004d2a4     libcpmt:xthrow.obj
 0002:0001b2a4       $unwind$?state_case_normal@?$output_processor@DV?$string_output_adapter@D@__crt_stdio_output@@V?$format_validation_base@DV?$string_output_adapter@D@__crt_stdio_output@@@2@@__crt_stdio_output@@AEAA_NXZ 000000018004d2a4     libucrt:output.obj
 0002:0001b2a4       $unwind$??0length_error@std@@QEAA@AEBV01@@Z 000000018004d2a4     libcpmt:xthrow.obj
 0002:0001b2a4       $unwind$??0?$output_processor@DV?$string_output_adapter@D@__crt_stdio_output@@V?$standard_base@DV?$string_output_adapter@D@__crt_stdio_output@@@2@@__crt_stdio_output@@QEAA@AEBV?$string_output_adapter@D@1@_KQEBDQEAU__crt_locale_pointers@@QEAD@Z 000000018004d2a4     libucrt:output.obj
 0002:0001b2a4       $unwind$??0logic_error@std@@QEAA@AEBV01@@Z 000000018004d2a4     libcpmt:xthrow.obj
 0002:0001b2a4       $unwind$?state_case_normal@?$output_processor@DV?$string_output_adapter@D@__crt_stdio_output@@V?$standard_base@DV?$string_output_adapter@D@__crt_stdio_output@@@2@@__crt_stdio_output@@AEAA_NXZ 000000018004d2a4     libucrt:output.obj
 0002:0001b2a4       $unwind$uninitialize_allocated_memory 000000018004d2a4     libucrt:initialization.obj
 0002:0001b2a4       $unwind$??0exception@std@@QEAA@AEBV01@@Z 000000018004d2a4     libcpmt:xthrow.obj
 0002:0001b2a4       $unwind$initialize_pointers 000000018004d2a4     libucrt:initialization.obj
 0002:0001b2a4       $unwind$?DloadReleaseSectionWriteAccess@@YAXXZ 000000018004d2a4     DelayImp:delayhlp.obj
 0002:0001b2a4       $unwind$?type_case_integer@?$output_processor@DV?$string_output_adapter@D@__crt_stdio_output@@V?$standard_base@DV?$string_output_adapter@D@__crt_stdio_output@@@2@@__crt_stdio_output@@AEAA_NI_N@Z 000000018004d2a4     libucrt:output.obj
 0002:0001b2a4       $unwind$_fflush_nolock     000000018004d2a4     libucrt:fflush.obj
 0002:0001b2a4       $unwind$??1?$basic_string@DU?$char_traits@D@std@@V?$allocator@D@2@@std@@QEAA@XZ 000000018004d2a4     mirror_worker.obj
 0002:0001b2a4       $unwind$?type_case_integer@?$output_processor@DV?$string_output_adapter@D@__crt_stdio_output@@V?$format_validation_base@DV?$string_output_adapter@D@__crt_stdio_output@@@2@@__crt_stdio_output@@AEAA_NI_N@Z 000000018004d2a4     libucrt:output.obj
 0002:0001b2ac       $unwind$??1ObjectWrap@node@@UEAA@XZ 000000018004d2ac     image.obj
 0002:0001b2bc       $stateUnwindMap$??1?$Persistent@VObject@v8@@V?$NonCopyablePersistentTraits@VObject@v8@@@2@@Nan@@QEAA@XZ 000000018004d2bc     resize_worker.obj
 0002:0001b2bc       $stateUnwindMap$??__F?constructor@LwipImage@@0V?$Persistent@VFunctionTemplate@v8@@V?$NonCopyablePersistentTraits@VFunctionTemplate@v8@@@2@@Nan@@A@@YAXXZ 000000018004d2bc     image.obj
 0002:0001b2bc       $stateUnwindMap$??1ObjectWrap@node@@UEAA@XZ 000000018004d2bc     image.obj
 0002:0001b2c8       $ip2state$??1ObjectWrap@node@@UEAA@XZ 000000018004d2c8     image.obj
 0002:0001b2d0       $unwind$?Wrap@ObjectWrap@node@@IEAAXV?$Local@VObject@v8@@@v8@@@Z 000000018004d2d0     image.obj
 0002:0001b2d0       $unwind$??$free_environment@_W@@YAXQEAPEA_W@Z 000000018004d2d0     libucrt:environment_initialization.obj
 0002:0001b2d0       $unwind$??$free_environment@D@@YAXQEAPEAD@Z 000000018004d2d0     libucrt:environment_initialization.obj
 0002:0001b2dc       $unwind$_realloc_base      000000018004d2dc     libucrt:realloc_base.obj
 0002:0001b2dc       $unwind$__acrt_getptd      000000018004d2dc     libucrt:per_thread_data.obj
 0002:0001b2dc       $unwind$??_GSetPixelWorker@@UEAAPEAXI@Z 000000018004d2dc     setpixel_worker.obj
 0002:0001b2dc       $unwind$?internal_isupper_l@@YA_NHQEAU__crt_locale_pointers@@@Z 000000018004d2dc     libucrt:tolower_toupper.obj
 0002:0001b2dc       $unwind$??_Gout_of_range@std@@UEAAPEAXI@Z 000000018004d2dc     libcpmt:xthrow.obj
 0002:0001b2dc       $unwind$??_GCImgArgumentException@cimg_library@@UEAAPEAXI@Z 000000018004d2dc     image.obj
 0002:0001b2dc       $unwind$??_Glength_error@std@@UEAAPEAXI@Z 000000018004d2dc     libcpmt:xthrow.obj
 0002:0001b2dc       $unwind$??_GMirrorWorker@@UEAAPEAXI@Z 000000018004d2dc     mirror_worker.obj
 0002:0001b2dc       $unwind$_FindAndUnlinkFrame 000000018004d2dc     libvcruntime:trnsctrl.obj
 0002:0001b2dc       $unwind$?type_case_c_tchar@?$output_processor@DV?$stream_output_adapter@D@__crt_stdio_output@@V?$standard_base@DV?$stream_output_adapter@D@__crt_stdio_output@@@2@@__crt_stdio_output@@AEAA_ND@Z 000000018004d2dc     libucrt:output.obj
 0002:0001b2dc       $unwind$??_GHSLAWorker@@UEAAPEAXI@Z 000000018004d2dc     hsla_worker.obj
 0002:0001b2dc       $unwind$??_Glogic_error@std@@UEAAPEAXI@Z 000000018004d2dc     libcpmt:xthrow.obj
 0002:0001b2dc       $unwind$??_Gbad_alloc@std@@UEAAPEAXI@Z 000000018004d2dc     libcpmt:xthrow.obj
 0002:0001b2dc       $unwind$?type_case_c_tchar@?$output_processor@DV?$string_output_adapter@D@__crt_stdio_output@@V?$standard_base@DV?$string_output_adapter@D@__crt_stdio_output@@@2@@__crt_stdio_output@@AEAA_ND@Z 000000018004d2dc     libucrt:output.obj
 0002:0001b2dc       $unwind$??_Gexception@std@@UEAAPEAXI@Z 000000018004d2dc     libcpmt:xthrow.obj
 0002:0001b2dc       $unwind$_close_nolock      000000018004d2dc     libucrt:close.obj
 0002:0001b2dc       $unwind$?try_cor_exit_process@@YAXI@Z 000000018004d2dc     libucrt:exit.obj
 0002:0001b2dc       $unwind$_updatetlocinfoEx_nolock 000000018004d2dc     libucrt:locale_refcounting.obj
 0002:0001b2dc       $unwind$??_GPasteWorker@@UEAAPEAXI@Z 000000018004d2dc     paste_worker.obj
 0002:0001b2dc       $unwind$??_GCImgInstanceException@cimg_library@@UEAAPEAXI@Z 000000018004d2dc     image.obj
 0002:0001b2dc       $unwind$?type_case_c_tchar@?$output_processor@DV?$string_output_adapter@D@__crt_stdio_output@@V?$format_validation_base@DV?$string_output_adapter@D@__crt_stdio_output@@@2@@__crt_stdio_output@@AEAA_ND@Z 000000018004d2dc     libucrt:output.obj
 0002:0001b2dc       $unwind$??_Gbad_exception@std@@UEAAPEAXI@Z 000000018004d2dc     libvcruntime:frame.obj
 0002:0001b2dc       $unwind$??_GCropWorker@@UEAAPEAXI@Z 000000018004d2dc     crop_worker.obj
 0002:0001b2dc       $unwind$__acrt_stdio_begin_temporary_buffering_nolock 000000018004d2dc     libucrt:_sftbuf.obj
 0002:0001b2dc       $unwind$??_GPadWorker@@UEAAPEAXI@Z 000000018004d2dc     pad_worker.obj
 0002:0001b2dc       $unwind$??_GResizeWorker@@UEAAPEAXI@Z 000000018004d2dc     resize_worker.obj
 0002:0001b2dc       $unwind$??_Gbad_array_new_length@std@@UEAAPEAXI@Z 000000018004d2dc     LIBCMT:throw_bad_alloc.obj
 0002:0001b2dc       $unwind$??_GAsyncWorker@Nan@@UEAAPEAXI@Z 000000018004d2dc     resize_worker.obj
 0002:0001b2dc       $unwind$__acrt_invoke_user_matherr 000000018004d2dc     libucrt:matherr.obj
 0002:0001b2dc       $unwind$??_GCImgIOException@cimg_library@@UEAAPEAXI@Z 000000018004d2dc     image.obj
 0002:0001b2dc       $unwind$_fclose_nolock     000000018004d2dc     libucrt:fclose.obj
 0002:0001b2dc       $unwind$?ExFilterRethrow@@YAHPEAU_EXCEPTION_POINTERS@@PEAUEHExceptionRecord@@PEAH@Z 000000018004d2dc     libvcruntime:frame.obj
 0002:0001b2dc       $unwind$__acrt_errno_map_os_error 000000018004d2dc     libucrt:errno.obj
 0002:0001b2dc       $unwind$??$common_xtox@K_W@@YAHKQEA_W_KI_N@Z 000000018004d2dc     libucrt:xtoa.obj
 0002:0001b2dc       $unwind$__acrt_FlsGetValue 000000018004d2dc     libucrt:winapi_thunks.obj
 0002:0001b2dc       $unwind$??_GBlurWorker@@UEAAPEAXI@Z 000000018004d2dc     blur_worker.obj
 0002:0001b2dc       $unwind$__acrt_FlsFree     000000018004d2dc     libucrt:winapi_thunks.obj
 0002:0001b2dc       $unwind$??_GSharpenWorker@@UEAAPEAXI@Z 000000018004d2dc     sharpen_worker.obj
 0002:0001b2dc       $unwind$?replace_current_thread_locale_nolock@@YAXQEAU__acrt_ptd@@QEAU__crt_locale_data@@@Z 000000018004d2dc     libucrt:per_thread_data.obj
 0002:0001b2dc       $unwind$__acrt_FlsAlloc    000000018004d2dc     libucrt:winapi_thunks.obj
 0002:0001b2dc       $unwind$??_GObjectWrap@node@@UEAAPEAXI@Z 000000018004d2dc     image.obj
 0002:0001b2dc       $unwind$strncpy_s          000000018004d2dc     libucrt:strncpy_s.obj
 0002:0001b2dc       $unwind$?erase@?$basic_string@DU?$char_traits@D@std@@V?$allocator@D@2@@std@@QEAAAEAV12@_K0@Z 000000018004d2dc     mirror_worker.obj
 0002:0001b2dc       $unwind$??$common_initialize_environment_nolock@D@@YAHXZ 000000018004d2dc     libucrt:environment_initialization.obj
 0002:0001b2dc       $unwind$?DloadAcquireSectionWriteAccess@@YAXXZ 000000018004d2dc     DelayImp:delayhlp.obj
 0002:0001b2dc       $unwind$??_GOpacifyWorker@@UEAAPEAXI@Z 000000018004d2dc     opacify_worker.obj
 0002:0001b2dc       $unwind$wcsncat_s          000000018004d2dc     libucrt:wcsncat_s.obj
 0002:0001b2dc       $unwind$??_GRotateWorker@@UEAAPEAXI@Z 000000018004d2dc     rotate_worker.obj
 0002:0001b2dc       $unwind$__acrt_uninitialize_lowio 000000018004d2dc     libucrt:ioinit.obj
 0002:0001b2dc       $unwind$?DloadGetSRWLockFunctionPointers@@YAEXZ 000000018004d2dc     DelayImp:delayhlp.obj
 0002:0001b2dc       $unwind$__vcrt_FlsAlloc    000000018004d2dc     libvcruntime:winapi_downlevel.obj
 0002:0001b2dc       $unwind$?__SetUnwindTryBlock@@YAXPEA_KPEAU_xDISPATCHER_CONTEXT@@PEBU_s_FuncInfo@@H@Z 000000018004d2dc     libvcruntime:ehstate.obj
 0002:0001b2dc       $unwind$__vcrt_FlsFree     000000018004d2dc     libvcruntime:winapi_downlevel.obj
 0002:0001b2dc       $unwind$_callnewh          000000018004d2dc     libucrt:new_handler.obj
 0002:0001b2dc       $unwind$?force_decimal_point@__crt_stdio_output@@YAXPEADQEAU__crt_locale_pointers@@@Z 000000018004d2dc     libucrt:output.obj
 0002:0001b2dc       $unwind$??0_LocaleUpdate@@QEAA@QEAU__crt_locale_pointers@@@Z 000000018004d2dc     libucrt:output.obj
 0002:0001b2dc       $unwind$??_GCImgException@cimg_library@@UEAAPEAXI@Z 000000018004d2dc     image.obj
 0002:0001b2dc       $unwind$__vcrt_FlsGetValue 000000018004d2dc     libvcruntime:winapi_downlevel.obj
 0002:0001b2dc       $unwind$__acrt_get_parent_window 000000018004d2dc     libucrt:winapi_thunks.obj
 0002:0001b2e8       $unwind$?FunctionCallbackWrapper@imp@Nan@@YAXAEBV?$FunctionCallbackInfo@VValue@v8@@@v8@@@Z 000000018004d2e8     image.obj
 0002:0001b2f8       $unwind$?NewInstance@Nan@@YA?AV?$MaybeLocal@VObject@v8@@@v8@@V?$Local@VObjectTemplate@v8@@@3@@Z 000000018004d2f8     image.obj
 0002:0001b30c       $stateUnwindMap$?NewInstance@Nan@@YA?AV?$MaybeLocal@VObject@v8@@@v8@@V?$Local@VObjectTemplate@v8@@@3@@Z 000000018004d30c     image.obj
 0002:0001b30c       $stateUnwindMap$?convert@?$ToFactory@VInt32@v8@@@imp@Nan@@SA?AV?$MaybeLocal@VInt32@v8@@@v8@@V?$Local@VValue@v8@@@5@@Z 000000018004d30c     image.obj
 0002:0001b318       $ip2state$?NewInstance@Nan@@YA?AV?$MaybeLocal@VObject@v8@@@v8@@V?$Local@VObjectTemplate@v8@@@3@@Z 000000018004d318     image.obj
 0002:0001b330       $unwind$?convert@?$ToFactory@VInt32@v8@@@imp@Nan@@SA?AV?$MaybeLocal@VInt32@v8@@@v8@@V?$Local@VValue@v8@@@5@@Z 000000018004d330     image.obj
 0002:0001b348       $ip2state$?convert@?$ToFactory@VInt32@v8@@@imp@Nan@@SA?AV?$MaybeLocal@VInt32@v8@@@v8@@V?$Local@VValue@v8@@@5@@Z 000000018004d348     image.obj
 0002:0001b360       $unwind$?New@?$Factory@VFunctionTemplate@v8@@@imp@Nan@@SA?AV?$Local@VFunctionTemplate@v8@@@v8@@P6AXAEBV?$FunctionCallbackInfo@VValue@v8@@@3@@ZV?$Local@VValue@v8@@@5@V?$Local@VSignature@v8@@@5@@Z 000000018004d360     image.obj
 0002:0001b378       $stateUnwindMap$?New@?$Factory@VFunctionTemplate@v8@@@imp@Nan@@SA?AV?$Local@VFunctionTemplate@v8@@@v8@@P6AXAEBV?$FunctionCallbackInfo@VValue@v8@@@3@@ZV?$Local@VValue@v8@@@5@V?$Local@VSignature@v8@@@5@@Z 000000018004d378     image.obj
 0002:0001b380       $ip2state$?New@?$Factory@VFunctionTemplate@v8@@@imp@Nan@@SA?AV?$Local@VFunctionTemplate@v8@@@v8@@P6AXAEBV?$FunctionCallbackInfo@VValue@v8@@@3@@ZV?$Local@VValue@v8@@@5@V?$Local@VSignature@v8@@@5@@Z 000000018004d380     image.obj
 0002:0001b398       $unwind$?SetPrototypeMethod@Nan@@YAXV?$Local@VFunctionTemplate@v8@@@v8@@PEBDP6AXAEBV?$FunctionCallbackInfo@VValue@v8@@@1@@Z@Z 000000018004d398     image.obj
 0002:0001b3b0       $stateUnwindMap$?SetPrototypeMethod@Nan@@YAXV?$Local@VFunctionTemplate@v8@@@v8@@PEBDP6AXAEBV?$FunctionCallbackInfo@VValue@v8@@@1@@Z@Z 000000018004d3b0     image.obj
 0002:0001b3b8       $ip2state$?SetPrototypeMethod@Nan@@YAXV?$Local@VFunctionTemplate@v8@@@v8@@PEBDP6AXAEBV?$FunctionCallbackInfo@VValue@v8@@@1@@Z@Z 000000018004d3b8     image.obj
 0002:0001b3d0       $unwind$?_snprintf@cimg@cimg_library@@YAHQEAD_KQEBDZZ 000000018004d3d0     image.obj
 0002:0001b3d0       $unwind$swprintf           000000018004d3d0     libucrt:assert.obj
 0002:0001b3e0       $unwind$?_vsnprintf@cimg@cimg_library@@YAHQEAD_KQEBDPEAD@Z 000000018004d3e0     image.obj
 0002:0001b3f8       $unwind$??0CImgException@cimg_library@@QEAA@AEBU01@@Z 000000018004d3f8     image.obj
 0002:0001b40c       $stateUnwindMap$??0CImgException@cimg_library@@QEAA@AEBU01@@Z 000000018004d40c     image.obj
 0002:0001b40c       $stateUnwindMap$??0CImgIOException@cimg_library@@QEAA@AEBU01@@Z 000000018004d40c     image.obj
 0002:0001b40c       $stateUnwindMap$??0CImgArgumentException@cimg_library@@QEAA@AEBU01@@Z 000000018004d40c     image.obj
 0002:0001b40c       $stateUnwindMap$??0CImgInstanceException@cimg_library@@QEAA@AEBU01@@Z 000000018004d40c     image.obj
 0002:0001b418       $ip2state$??0CImgException@cimg_library@@QEAA@AEBU01@@Z 000000018004d418     image.obj
 0002:0001b430       $unwind$??0CImgArgumentException@cimg_library@@QEAA@QEBDZZ 000000018004d430     image.obj
 0002:0001b440       $stateUnwindMap$??0CImgIOException@cimg_library@@QEAA@QEBDZZ 000000018004d440     image.obj
 0002:0001b440       $stateUnwindMap$??0CImgInstanceException@cimg_library@@QEAA@QEBDZZ 000000018004d440     image.obj
 0002:0001b440       $stateUnwindMap$??0CImgArgumentException@cimg_library@@QEAA@QEBDZZ 000000018004d440     image.obj
 0002:0001b468       $ip2state$??0CImgArgumentException@cimg_library@@QEAA@QEBDZZ 000000018004d468     image.obj
 0002:0001b488       $unwind$??0CImgInstanceException@cimg_library@@QEAA@QEBDZZ 000000018004d488     image.obj
 0002:0001b498       $ip2state$??0CImgInstanceException@cimg_library@@QEAA@QEBDZZ 000000018004d498     image.obj
 0002:0001b4b8       $unwind$??0CImgIOException@cimg_library@@QEAA@QEBDZZ 000000018004d4b8     image.obj
 0002:0001b4c8       $ip2state$??0CImgIOException@cimg_library@@QEAA@QEBDZZ 000000018004d4c8     image.obj
 0002:0001b4e8       $unwind$?Mutex_attr@cimg@cimg_library@@YAAEAUMutex_info@12@XZ 000000018004d4e8     image.obj
 0002:0001b4f8       $unwind$?warn@cimg@cimg_library@@YAXQEBDZZ 000000018004d4f8     image.obj
 0002:0001b500       $chain$0$?warn@cimg@cimg_library@@YAXQEBDZZ 000000018004d500     image.obj
 0002:0001b514       $chain$1$?warn@cimg@cimg_library@@YAXQEBDZZ 000000018004d514     image.obj
 0002:0001b524       $unwind$?filenamerand@cimg@cimg_library@@YAPEBDXZ 000000018004d524     image.obj
 0002:0001b538       $unwind$?destroy_fls@@YAXPEAX@Z 000000018004d538     libucrt:per_thread_data.obj
 0002:0001b538       $unwind$_free_base         000000018004d538     libucrt:free_base.obj
 0002:0001b538       $unwind$__acrt_locale_free_lc_time_if_unreferenced 000000018004d538     libucrt:locale_refcounting.obj
 0002:0001b538       $unwind$__acrt_locale_free_numeric 000000018004d538     libucrt:initnum.obj
 0002:0001b538       $unwind$?winformat_string@cimg@cimg_library@@YAXQEAD@Z 000000018004d538     image.obj
 0002:0001b540       $chain$0$?winformat_string@cimg@cimg_library@@YAXQEAD@Z 000000018004d540     image.obj
 0002:0001b554       $chain$1$?winformat_string@cimg@cimg_library@@YAXQEAD@Z 000000018004d554     image.obj
 0002:0001b564       $unwind$??0CImgArgumentException@cimg_library@@QEAA@AEBU01@@Z 000000018004d564     image.obj
 0002:0001b564       $unwind$??0CImgIOException@cimg_library@@QEAA@AEBU01@@Z 000000018004d564     image.obj
 0002:0001b564       $unwind$??0CImgInstanceException@cimg_library@@QEAA@AEBU01@@Z 000000018004d564     image.obj
 0002:0001b578       $ip2state$??0CImgIOException@cimg_library@@QEAA@AEBU01@@Z 000000018004d578     image.obj
 0002:0001b578       $ip2state$??0CImgInstanceException@cimg_library@@QEAA@AEBU01@@Z 000000018004d578     image.obj
 0002:0001b578       $ip2state$??0CImgArgumentException@cimg_library@@QEAA@AEBU01@@Z 000000018004d578     image.obj
 0002:0001b590       $unwind$?info@cimg@cimg_library@@YAXXZ 000000018004d590     image.obj
 0002:0001b5a0       $unwind$?temporary_path@cimg@cimg_library@@YAPEBDQEBD_N@Z 000000018004d5a0     image.obj
 0002:0001b5c0       $stateUnwindMap$?temporary_path@cimg@cimg_library@@YAPEBDQEBD_N@Z 000000018004d5c0     image.obj
 0002:0001b5d0       $ip2state$?temporary_path@cimg@cimg_library@@YAPEBDQEBD_N@Z 000000018004d5d0     image.obj
 0002:0001b608       $unwind$_log10_special     000000018004d608     libucrt:log_special.obj
 0002:0001b608       $unwind$_invalid_parameter_noinfo 000000018004d608     libucrt:invalid_parameter.obj
 0002:0001b608       $unwind$?programfiles_path@cimg@cimg_library@@YAPEBDQEBD_N@Z 000000018004d608     image.obj
 0002:0001b608       $unwind$_sopen_s           000000018004d608     libucrt:open.obj
 0002:0001b608       $unwind$_itow_s            000000018004d608     libucrt:xtoa.obj
 0002:0001b608       $unwind$wctomb_s           000000018004d608     libucrt:wctomb.obj
 0002:0001b608       $unwind$_invalid_parameter_noinfo_noreturn 000000018004d608     libucrt:invalid_parameter.obj
 0002:0001b608       $unwind$?medcon_path@cimg@cimg_library@@YAPEBDQEBD_N@Z 000000018004d608     image.obj
 0002:0001b610       $unwind$?imagemagick_path@cimg@cimg_library@@YAPEBDQEBD_N@Z 000000018004d610     image.obj
 0002:0001b610       $unwind$__dcrt_lowio_initialize_console_output 000000018004d610     libucrt:initcon.obj
 0002:0001b610       $unwind$_raise_exc         000000018004d610     libucrt:fpexcept.obj
 0002:0001b610       $unwind$?__scrt_throw_std_bad_alloc@@YAXXZ 000000018004d610     LIBCMT:throw_bad_alloc.obj
 0002:0001b610       $unwind$?_Xlength_error@std@@YAXPEBD@Z 000000018004d610     libcpmt:xthrow.obj
 0002:0001b610       $unwind$_raise_excf        000000018004d610     libucrt:fpexcept.obj
 0002:0001b610       $unwind$?graphicsmagick_path@cimg@cimg_library@@YAPEBDQEBD_N@Z 000000018004d610     image.obj
 0002:0001b610       $unwind$?__scrt_throw_std_bad_array_new_length@@YAXXZ 000000018004d610     LIBCMT:throw_bad_alloc.obj
 0002:0001b610       $unwind$?_Xbad_alloc@std@@YAXXZ 000000018004d610     libcpmt:xthrow.obj
 0002:0001b610       $unwind$?_Xout_of_range@std@@YAXPEBD@Z 000000018004d610     libcpmt:xthrow.obj
 0002:0001b618       $chain$0$?imagemagick_path@cimg@cimg_library@@YAPEBDQEBD_N@Z 000000018004d618     image.obj
 0002:0001b62c       $chain$5$?imagemagick_path@cimg@cimg_library@@YAPEBDQEBD_N@Z 000000018004d62c     image.obj
 0002:0001b650       $chain$6$?imagemagick_path@cimg@cimg_library@@YAPEBDQEBD_N@Z 000000018004d650     image.obj
 0002:0001b670       $chain$7$?imagemagick_path@cimg@cimg_library@@YAPEBDQEBD_N@Z 000000018004d670     image.obj
 0002:0001b68c       $chain$8$?imagemagick_path@cimg@cimg_library@@YAPEBDQEBD_N@Z 000000018004d68c     image.obj
 0002:0001b6a4       $chain$9$?imagemagick_path@cimg@cimg_library@@YAPEBDQEBD_N@Z 000000018004d6a4     image.obj
 0002:0001b6b8       $chain$10$?imagemagick_path@cimg@cimg_library@@YAPEBDQEBD_N@Z 000000018004d6b8     image.obj
 0002:0001b6c8       $chain$0$?graphicsmagick_path@cimg@cimg_library@@YAPEBDQEBD_N@Z 000000018004d6c8     image.obj
 0002:0001b6dc       $chain$5$?graphicsmagick_path@cimg@cimg_library@@YAPEBDQEBD_N@Z 000000018004d6dc     image.obj
 0002:0001b700       $chain$6$?graphicsmagick_path@cimg@cimg_library@@YAPEBDQEBD_N@Z 000000018004d700     image.obj
 0002:0001b720       $chain$7$?graphicsmagick_path@cimg@cimg_library@@YAPEBDQEBD_N@Z 000000018004d720     image.obj
 0002:0001b73c       $chain$8$?graphicsmagick_path@cimg@cimg_library@@YAPEBDQEBD_N@Z 000000018004d73c     image.obj
 0002:0001b754       $chain$9$?graphicsmagick_path@cimg@cimg_library@@YAPEBDQEBD_N@Z 000000018004d754     image.obj
 0002:0001b768       $chain$10$?graphicsmagick_path@cimg@cimg_library@@YAPEBDQEBD_N@Z 000000018004d768     image.obj
 0002:0001b778       $chain$0$?medcon_path@cimg@cimg_library@@YAPEBDQEBD_N@Z 000000018004d778     image.obj
 0002:0001b78c       $chain$1$?medcon_path@cimg@cimg_library@@YAPEBDQEBD_N@Z 000000018004d78c     image.obj
 0002:0001b79c       $unwind$?strbuffersize@cimg@cimg_library@@YAPEBDK@Z 000000018004d79c     image.obj
 0002:0001b7ac       $stateUnwindMap$?strbuffersize@cimg@cimg_library@@YAPEBDK@Z 000000018004d7ac     image.obj
 0002:0001b7b8       $ip2state$?strbuffersize@cimg@cimg_library@@YAPEBDK@Z 000000018004d7b8     image.obj
 0002:0001b7d0       $unwind$??__F?constructor@LwipImage@@0V?$Persistent@VFunctionTemplate@v8@@V?$NonCopyablePersistentTraits@VFunctionTemplate@v8@@@2@@Nan@@A@@YAXXZ 000000018004d7d0     image.obj
 0002:0001b7e0       $ip2state$??__F?constructor@LwipImage@@0V?$Persistent@VFunctionTemplate@v8@@V?$NonCopyablePersistentTraits@VFunctionTemplate@v8@@@2@@Nan@@A@@YAXXZ 000000018004d7e0     image.obj
 0002:0001b7e8       $unwind$?Init@LwipImage@@SAXV?$Local@VObject@v8@@@v8@@@Z 000000018004d7e8     image.obj
 0002:0001b7f4       $unwind$??0LwipImage@@QEAA@PEAE_K1@Z 000000018004d7f4     image.obj
 0002:0001b810       $stateUnwindMap$??0LwipImage@@QEAA@PEAE_K1@Z 000000018004d810     image.obj
 0002:0001b820       $ip2state$??0LwipImage@@QEAA@PEAE_K1@Z 000000018004d820     image.obj
 0002:0001b848       $unwind$?filt$0@?0??common_exit@@YAXHW4_crt_exit_cleanup_mode@@W4_crt_exit_return_mode@@@Z@4HA 000000018004d848     libucrt:exit.obj
 0002:0001b848       $unwind$?fin$1@?0??common_exit@@YAXHW4_crt_exit_cleanup_mode@@W4_crt_exit_return_mode@@@Z@4HA 000000018004d848     libucrt:exit.obj
 0002:0001b848       $unwind$?dtor$96@?0??get_resize@?$CImg@E@cimg_library@@QEBA?AU12@HHHHHIMMMM@Z@4HA 000000018004d848     resize_worker.obj
 0002:0001b848       $unwind$__CxxCallCatchBlock$filt$0 000000018004d848     libvcruntime:frame.obj
 0002:0001b848       $unwind$?dtor$1@?0??setPixel@LwipImage@@SAXAEBV?$FunctionCallbackInfo@VValue@v8@@@Nan@@@Z@4HA 000000018004d848     image.obj
 0002:0001b848       $unwind$__acrt_lowio_ensure_fh_exists$fin$0 000000018004d848     libucrt:osfinfo.obj
 0002:0001b848       $unwind$__acrt_update_thread_locale_data$fin$0 000000018004d848     libucrt:locale_refcounting.obj
 0002:0001b848       $unwind$?dtor$0@?0??get_crop@?$CImg@E@cimg_library@@QEBA?AU12@HHHHHHHH_N@Z@4HA 000000018004d848     resize_worker.obj
 0002:0001b848       $unwind$__FrameUnwindToState$fin$1 000000018004d848     libvcruntime:frame.obj
 0002:0001b848       $unwind$?dtor$33@?0??get_resize@?$CImg@E@cimg_library@@QEBA?AU12@HHHHHIMMMM@Z@4HA 000000018004d848     resize_worker.obj
 0002:0001b848       $unwind$?fin$0@?0???$?RV<lambda_99476a1ad63dd22509b5d3e65b0ffc95>@@AEAV<lambda_ad1ced32f4ac17aa236e5ef05d6b3b7c>@@V<lambda_f7424dd8d45958661754dc4f2697e9c3>@@@?$__crt_seh_guarded_call@X@@QEAAX$$QEAV<lambda_99476a1ad63dd22509b5d3e65b0ffc95>@@AEAV<lambda_ad1ced32f4ac17aa236e5ef05d6b3b7c>@@$$QEAV<lambda_f7424dd8d45958661754dc4f2697e9c3>@@@Z@4HA 000000018004d848     libucrt:mbctype.obj
 0002:0001b848       $unwind$_fcloseall$fin$0   000000018004d848     libucrt:closeall.obj
 0002:0001b848       $unwind$?dtor$34@?0??get_resize@?$CImg@E@cimg_library@@QEBA?AU12@HHHHHIMMMM@Z@4HA 000000018004d848     resize_worker.obj
 0002:0001b848       $unwind$_ctrlfp$filt$0     000000018004d848     libucrt:fpctrl.obj
 0002:0001b848       $unwind$?dtor$97@?0??get_resize@?$CImg@E@cimg_library@@QEBA?AU12@HHHHHIMMMM@Z@4HA 000000018004d848     resize_worker.obj
 0002:0001b848       $unwind$?dtor$1@?0???0LwipImage@@QEAA@PEAE_K1@Z@4HA 000000018004d848     image.obj
 0002:0001b848       $unwind$?dtor$99@?0??get_resize@?$CImg@E@cimg_library@@QEBA?AU12@HHHHHIMMMM@Z@4HA 000000018004d848     resize_worker.obj
 0002:0001b848       $unwind$?dtor$100@?0??get_resize@?$CImg@E@cimg_library@@QEBA?AU12@HHHHHIMMMM@Z@4HA 000000018004d848     resize_worker.obj
 0002:0001b848       $unwind$?dtor$1@?0??paste@LwipImage@@SAXAEBV?$FunctionCallbackInfo@VValue@v8@@@Nan@@@Z@4HA 000000018004d848     image.obj
 0002:0001b848       $unwind$?fin$0@?0???$common_lseek@_J@@YA_JH_JH@Z@4HA 000000018004d848     libucrt:lseek.obj
 0002:0001b848       $unwind$?fin$0@?0??__acrt_stdio_allocate_stream@@YA?AV__crt_stdio_stream@@XZ@4HA 000000018004d848     libucrt:stream.obj
 0002:0001b848       $unwind$?fin$0@?0???$?RV<lambda_b8c45f8f788dd370798f47cfe8ac3a86>@@AEAV<lambda_4e60a939b0d047cfe11ddc22648dfba9>@@V<lambda_332c3edc96d0294ec56c57d38c1cdfd5>@@@?$__crt_seh_guarded_call@H@@QEAAH$$QEAV<lambda_b8c45f8f788dd370798f47cfe8ac3a86>@@AEAV<lambda_4e60a939b0d047cfe11ddc22648dfba9>@@$$QEAV<lambda_332c3edc96d0294ec56c57d38c1cdfd5>@@@Z@4HA 000000018004d848     libucrt:onexit.obj
 0002:0001b848       $unwind$__acrt_update_thread_multibyte_data$fin$0 000000018004d848     libucrt:mbctype.obj
 0002:0001b848       $unwind$?dtor$35@?0??get_resize@?$CImg@E@cimg_library@@QEBA?AU12@HHHHHIMMMM@Z@4HA 000000018004d848     resize_worker.obj
 0002:0001b848       $unwind$?dtor$2@?0??paste@LwipImage@@SAXAEBV?$FunctionCallbackInfo@VValue@v8@@@Nan@@@Z@4HA 000000018004d848     image.obj
 0002:0001b848       $unwind$__FrameUnwindToState$filt$0 000000018004d848     libvcruntime:frame.obj
 0002:0001b848       $unwind$?dtor$36@?0??get_resize@?$CImg@E@cimg_library@@QEBA?AU12@HHHHHIMMMM@Z@4HA 000000018004d848     resize_worker.obj
 0002:0001b848       $unwind$common_control87$filt$0 000000018004d848     libucrt:ieee.obj
 0002:0001b848       $unwind$?fin$0@?0???$common_fsopen@D@@YAPEAU_iobuf@@QEBD0H@Z@4HA 000000018004d848     libucrt:fopen.obj
 0002:0001b848       $unwind$?dtor$1@?0??opacify@LwipImage@@SAXAEBV?$FunctionCallbackInfo@VValue@v8@@@Nan@@@Z@4HA 000000018004d848     image.obj
 0002:0001b848       $unwind$?dtor$1@?0??New@LwipImage@@SAXAEBV?$FunctionCallbackInfo@VValue@v8@@@Nan@@@Z@4HA 000000018004d848     image.obj
 0002:0001b848       $unwind$?dtor$95@?0??get_resize@?$CImg@E@cimg_library@@QEBA?AU12@HHHHHIMMMM@Z@4HA 000000018004d848     resize_worker.obj
 0002:0001b848       $unwind$?dtor$2@?0??opacify@LwipImage@@SAXAEBV?$FunctionCallbackInfo@VValue@v8@@@Nan@@@Z@4HA 000000018004d848     image.obj
 0002:0001b848       $unwind$?dtor$94@?0??get_resize@?$CImg@E@cimg_library@@QEBA?AU12@HHHHHIMMMM@Z@4HA 000000018004d848     resize_worker.obj
 0002:0001b848       $unwind$?dtor$37@?0??get_resize@?$CImg@E@cimg_library@@QEBA?AU12@HHHHHIMMMM@Z@4HA 000000018004d848     resize_worker.obj
 0002:0001b848       $unwind$?dtor$93@?0??get_resize@?$CImg@E@cimg_library@@QEBA?AU12@HHHHHIMMMM@Z@4HA 000000018004d848     resize_worker.obj
 0002:0001b848       $unwind$?dtor$38@?0??get_resize@?$CImg@E@cimg_library@@QEBA?AU12@HHHHHIMMMM@Z@4HA 000000018004d848     resize_worker.obj
 0002:0001b848       $unwind$?dtor$39@?0??get_resize@?$CImg@E@cimg_library@@QEBA?AU12@HHHHHIMMMM@Z@4HA 000000018004d848     resize_worker.obj
 0002:0001b848       $unwind$?dtor$1@?0??hslaAdj@LwipImage@@SAXAEBV?$FunctionCallbackInfo@VValue@v8@@@Nan@@@Z@4HA 000000018004d848     image.obj
 0002:0001b848       $unwind$?fin$0@?0???$?RV<lambda_fb3a7dec4e47f37f22dae91bb15c9095>@@AEAV<lambda_698284760c8add0bfb0756c19673e34b>@@V<lambda_dfb8eca1e75fef3034a8fb18dd509707>@@@?$__crt_seh_guarded_call@X@@QEAAX$$QEAV<lambda_fb3a7dec4e47f37f22dae91bb15c9095>@@AEAV<lambda_698284760c8add0bfb0756c19673e34b>@@$$QEAV<lambda_dfb8eca1e75fef3034a8fb18dd509707>@@@Z@4HA 000000018004d848     libucrt:per_thread_data.obj
 0002:0001b848       $unwind$?dtor$78@?0??get_resize@?$CImg@E@cimg_library@@QEBA?AU12@HHHHHIMMMM@Z@4HA 000000018004d848     resize_worker.obj
 0002:0001b848       $unwind$?dtor$2@?0??hslaAdj@LwipImage@@SAXAEBV?$FunctionCallbackInfo@VValue@v8@@@Nan@@@Z@4HA 000000018004d848     image.obj
 0002:0001b848       $unwind$raise$fin$0        000000018004d848     libucrt:signal.obj
 0002:0001b848       $unwind$?fin$0@?0???$?RV<lambda_aa279a7bcb127014629d5b1d62c7325d>@@AEAV<lambda_0a64b6a4deda75c01876f29c44fc5eb3>@@V<lambda_3323e69fbefe9d1a11713e670d47cdfa>@@@?$__crt_seh_guarded_call@H@@QEAAH$$QEAV<lambda_aa279a7bcb127014629d5b1d62c7325d>@@AEAV<lambda_0a64b6a4deda75c01876f29c44fc5eb3>@@$$QEAV<lambda_3323e69fbefe9d1a11713e670d47cdfa>@@@Z@4HA 000000018004d848     libucrt:output.obj
 0002:0001b848       $unwind$fclose$fin$0       000000018004d848     libucrt:fclose.obj
 0002:0001b848       $unwind$?dtor$77@?0??get_resize@?$CImg@E@cimg_library@@QEBA?AU12@HHHHHIMMMM@Z@4HA 000000018004d848     resize_worker.obj
 0002:0001b848       $unwind$?dtor$76@?0??get_resize@?$CImg@E@cimg_library@@QEBA?AU12@HHHHHIMMMM@Z@4HA 000000018004d848     resize_worker.obj
 0002:0001b848       $unwind$__acrt_uninitialize_locale$fin$0 000000018004d848     libucrt:wsetlocale.obj
 0002:0001b848       $unwind$?dtor$1@?0??sharpen@LwipImage@@SAXAEBV?$FunctionCallbackInfo@VValue@v8@@@Nan@@@Z@4HA 000000018004d848     image.obj
 0002:0001b848       $unwind$?dtor$75@?0??get_resize@?$CImg@E@cimg_library@@QEBA?AU12@HHHHHIMMMM@Z@4HA 000000018004d848     resize_worker.obj
 0002:0001b848       $unwind$?dtor$2@?0??sharpen@LwipImage@@SAXAEBV?$FunctionCallbackInfo@VValue@v8@@@Nan@@@Z@4HA 000000018004d848     image.obj
 0002:0001b848       $unwind$?dtor$40@?0??get_resize@?$CImg@E@cimg_library@@QEBA?AU12@HHHHHIMMMM@Z@4HA 000000018004d848     resize_worker.obj
 0002:0001b848       $unwind$?fin$0@?0??dllmain_crt_process_detach@@YAH_N@Z@4HA 000000018004d848     LIBCMT:dll_dllmain.obj
 0002:0001b848       $unwind$?fin$0@?0???$?RV<lambda_7a5ef57ff966f610505f1d28a3d40618>@@AEAV<lambda_b721fa326cdb32351d23dfa67958c160>@@V<lambda_5e0fb27672408a07956fe59e48ccb2aa>@@@?$__crt_seh_guarded_call@H@@QEAAH$$QEAV<lambda_7a5ef57ff966f610505f1d28a3d40618>@@AEAV<lambda_b721fa326cdb32351d23dfa67958c160>@@$$QEAV<lambda_5e0fb27672408a07956fe59e48ccb2aa>@@@Z@4HA 000000018004d848     libucrt:setvbuf.obj
 0002:0001b848       $unwind$?fin$0@?0???$?RV<lambda_b521505b218e5242e90febf6bfebc422>@@AEAV<lambda_6978c1fb23f02e42e1d9e99668cc68aa>@@V<lambda_314360699dd331753a4119843814e9a7>@@@?$__crt_seh_guarded_call@H@@QEAAH$$QEAV<lambda_b521505b218e5242e90febf6bfebc422>@@AEAV<lambda_6978c1fb23f02e42e1d9e99668cc68aa>@@$$QEAV<lambda_314360699dd331753a4119843814e9a7>@@@Z@4HA 000000018004d848     libucrt:commit.obj
 0002:0001b848       $unwind$?fin$0@?0??dllmain_crt_process_attach@@YAHQEAUHINSTANCE__@@QEAX@Z@4HA 000000018004d848     LIBCMT:dll_dllmain.obj
 0002:0001b848       $unwind$?dtor$1@?0??pad@LwipImage@@SAXAEBV?$FunctionCallbackInfo@VValue@v8@@@Nan@@@Z@4HA 000000018004d848     image.obj
 0002:0001b848       $unwind$?dtor$2@?0??pad@LwipImage@@SAXAEBV?$FunctionCallbackInfo@VValue@v8@@@Nan@@@Z@4HA 000000018004d848     image.obj
 0002:0001b848       $unwind$?dtor$2@?0??resize@LwipImage@@SAXAEBV?$FunctionCallbackInfo@VValue@v8@@@Nan@@@Z@4HA 000000018004d848     image.obj
 0002:0001b848       $unwind$?fin$0@?0???$?RV<lambda_c36588078e9f5dfd39652860aa6b3aaf>@@AEAV<lambda_ec61778202f4f5fc7e7711acc23c3bca>@@V<lambda_dc9d2797ccde5d239b4a0efae8ebd7db>@@@?$__crt_seh_guarded_call@P6AXH@Z@@QEAAP6AXH@Z$$QEAV<lambda_c36588078e9f5dfd39652860aa6b3aaf>@@AEAV<lambda_ec61778202f4f5fc7e7711acc23c3bca>@@$$QEAV<lambda_dc9d2797ccde5d239b4a0efae8ebd7db>@@@Z@4HA 000000018004d848     libucrt:signal.obj
 0002:0001b848       $unwind$?dtor$49@?0??get_resize@?$CImg@E@cimg_library@@QEBA?AU12@HHHHHIMMMM@Z@4HA 000000018004d848     resize_worker.obj
 0002:0001b848       $unwind$?fin$0@?0???$?RV<lambda_46352004c1216016012b18bd6f87e700>@@AEAV<lambda_3bd07e1a1191394380780325891bf33f>@@V<lambda_334532d3f185bcaa59b5be82d7d22bff>@@@?$__crt_seh_guarded_call@X@@QEAAX$$QEAV<lambda_46352004c1216016012b18bd6f87e700>@@AEAV<lambda_3bd07e1a1191394380780325891bf33f>@@$$QEAV<lambda_334532d3f185bcaa59b5be82d7d22bff>@@@Z@4HA 000000018004d848     libucrt:per_thread_data.obj
 0002:0001b848       $unwind$__acrt_initialize_lowio$fin$0 000000018004d848     libucrt:ioinit.obj
 0002:0001b848       $unwind$common_flush_all$fin$1 000000018004d848     libucrt:fflush.obj
 0002:0001b848       $unwind$?dtor$50@?0??get_resize@?$CImg@E@cimg_library@@QEBA?AU12@HHHHHIMMMM@Z@4HA 000000018004d848     resize_worker.obj
 0002:0001b848       $unwind$_IsNonwritableInCurrentImage$filt$0 000000018004d848     LIBCMT:pesect.obj
 0002:0001b848       $unwind$?fin$0@?0???$?RV<lambda_5e887d1dcbef67a5eb4283622ba103bf>@@AEAV<lambda_4466841279450cc726390878d4a41900>@@V<lambda_341c25c0346d94847f1f3c463c57e077>@@@?$__crt_seh_guarded_call@X@@QEAAX$$QEAV<lambda_5e887d1dcbef67a5eb4283622ba103bf>@@AEAV<lambda_4466841279450cc726390878d4a41900>@@$$QEAV<lambda_341c25c0346d94847f1f3c463c57e077>@@@Z@4HA 000000018004d848     libucrt:per_thread_data.obj
 0002:0001b848       $unwind$fflush$fin$0       000000018004d848     libucrt:fflush.obj
 0002:0001b848       $unwind$?dtor$1@?0??mirror@LwipImage@@SAXAEBV?$FunctionCallbackInfo@VValue@v8@@@Nan@@@Z@4HA 000000018004d848     image.obj
 0002:0001b848       $unwind$?dtor$74@?0??get_resize@?$CImg@E@cimg_library@@QEBA?AU12@HHHHHIMMMM@Z@4HA 000000018004d848     resize_worker.obj
 0002:0001b848       $unwind$?dtor$2@?0??mirror@LwipImage@@SAXAEBV?$FunctionCallbackInfo@VValue@v8@@@Nan@@@Z@4HA 000000018004d848     image.obj
 0002:0001b848       $unwind$?dtor$0@?0??Execute@PadWorker@@UEAAXXZ@4HA 000000018004d848     pad_worker.obj
 0002:0001b848       $unwind$?dtor$51@?0??get_resize@?$CImg@E@cimg_library@@QEBA?AU12@HHHHHIMMMM@Z@4HA 000000018004d848     resize_worker.obj
 0002:0001b848       $unwind$?fin$0@?0???$?RV<lambda_72d1df2b273a38828b1ce30cbf4cdab5>@@AEAV<lambda_876a65b173b8412d3a47c70a915b0cf4>@@V<lambda_41932305e351933ebe8f8be3ed8bb5dc>@@@?$__crt_seh_guarded_call@X@@QEAAX$$QEAV<lambda_72d1df2b273a38828b1ce30cbf4cdab5>@@AEAV<lambda_876a65b173b8412d3a47c70a915b0cf4>@@$$QEAV<lambda_41932305e351933ebe8f8be3ed8bb5dc>@@@Z@4HA 000000018004d848     libucrt:per_thread_data.obj
 0002:0001b848       $unwind$?dtor$52@?0??get_resize@?$CImg@E@cimg_library@@QEBA?AU12@HHHHHIMMMM@Z@4HA 000000018004d848     resize_worker.obj
 0002:0001b848       $unwind$?dtor$1@?0??resize@LwipImage@@SAXAEBV?$FunctionCallbackInfo@VValue@v8@@@Nan@@@Z@4HA 000000018004d848     image.obj
 0002:0001b848       $unwind$common_flush_all$fin$0 000000018004d848     libucrt:fflush.obj
 0002:0001b848       $unwind$?fin$0@?0???$?RV<lambda_bfedae4ebbf01fab1bb6dcc6a9e276e0>@@AEAV<lambda_2fe9b910cf3cbf4a0ab98a02ba45b3ec>@@V<lambda_237c231691f317818eb88cc1d5d642d6>@@@?$__crt_seh_guarded_call@H@@QEAAH$$QEAV<lambda_bfedae4ebbf01fab1bb6dcc6a9e276e0>@@AEAV<lambda_2fe9b910cf3cbf4a0ab98a02ba45b3ec>@@$$QEAV<lambda_237c231691f317818eb88cc1d5d642d6>@@@Z@4HA 000000018004d848     libucrt:close.obj
 0002:0001b848       $unwind$?dtor$0@?0??Execute@RotateWorker@@UEAAXXZ@4HA 000000018004d848     rotate_worker.obj
 0002:0001b848       $unwind$?dtor$1@?0??crop@LwipImage@@SAXAEBV?$FunctionCallbackInfo@VValue@v8@@@Nan@@@Z@4HA 000000018004d848     image.obj
 0002:0001b848       $unwind$?fin$0@?0???$common_getenv@D@@YAPEADQEBD@Z@4HA 000000018004d848     libucrt:getenv.obj
 0002:0001b848       $unwind$?dtor$2@?0??crop@LwipImage@@SAXAEBV?$FunctionCallbackInfo@VValue@v8@@@Nan@@@Z@4HA 000000018004d848     image.obj
 0002:0001b848       $unwind$_write$fin$0       000000018004d848     libucrt:write.obj
 0002:0001b848       $unwind$?fin$0@?0???$?RV<lambda_7b91131dde12e1c3dfc74ff76b3f2eac>@@AEAV<lambda_dd75445284c072d0bd3768540cc698fa>@@V<lambda_16bc4ecb55b4718497c16bceaea2ceaf>@@@?$__crt_seh_guarded_call@H@@QEAAH$$QEAV<lambda_7b91131dde12e1c3dfc74ff76b3f2eac>@@AEAV<lambda_dd75445284c072d0bd3768540cc698fa>@@$$QEAV<lambda_16bc4ecb55b4718497c16bceaea2ceaf>@@@Z@4HA 000000018004d848     libucrt:output.obj
 0002:0001b848       $unwind$?dtor$53@?0??get_resize@?$CImg@E@cimg_library@@QEBA?AU12@HHHHHIMMMM@Z@4HA 000000018004d848     resize_worker.obj
 0002:0001b848       $unwind$?dtor$73@?0??get_resize@?$CImg@E@cimg_library@@QEBA?AU12@HHHHHIMMMM@Z@4HA 000000018004d848     resize_worker.obj
 0002:0001b848       $unwind$?dtor$54@?0??get_resize@?$CImg@E@cimg_library@@QEBA?AU12@HHHHHIMMMM@Z@4HA 000000018004d848     resize_worker.obj
 0002:0001b848       $unwind$?dtor$55@?0??get_resize@?$CImg@E@cimg_library@@QEBA?AU12@HHHHHIMMMM@Z@4HA 000000018004d848     resize_worker.obj
 0002:0001b848       $unwind$?dtor$72@?0??get_resize@?$CImg@E@cimg_library@@QEBA?AU12@HHHHHIMMMM@Z@4HA 000000018004d848     resize_worker.obj
 0002:0001b848       $unwind$?dtor$1@?0??blur@LwipImage@@SAXAEBV?$FunctionCallbackInfo@VValue@v8@@@Nan@@@Z@4HA 000000018004d848     image.obj
 0002:0001b848       $unwind$?dtor$98@?0??get_resize@?$CImg@E@cimg_library@@QEBA?AU12@HHHHHIMMMM@Z@4HA 000000018004d848     resize_worker.obj
 0002:0001b848       $unwind$?dtor$2@?0??blur@LwipImage@@SAXAEBV?$FunctionCallbackInfo@VValue@v8@@@Nan@@@Z@4HA 000000018004d848     image.obj
 0002:0001b848       $unwind$?fin$0@?0???$?RV<lambda_e24bbb7b643b32fcea6fa61b31d4c984>@@AEAV<lambda_275893d493268fdec8709772e3fcec0e>@@V<lambda_9d71df4d7cf3f480f8d633942495c3b0>@@@?$__crt_seh_guarded_call@H@@QEAAH$$QEAV<lambda_e24bbb7b643b32fcea6fa61b31d4c984>@@AEAV<lambda_275893d493268fdec8709772e3fcec0e>@@$$QEAV<lambda_9d71df4d7cf3f480f8d633942495c3b0>@@@Z@4HA 000000018004d848     libucrt:onexit.obj
 0002:0001b848       $unwind$?dtor$56@?0??get_resize@?$CImg@E@cimg_library@@QEBA?AU12@HHHHHIMMMM@Z@4HA 000000018004d848     resize_worker.obj
 0002:0001b848       $unwind$_alloc_osfhnd$fin$0 000000018004d848     libucrt:osfinfo.obj
 0002:0001b848       $unwind$_query_new_handler$fin$0 000000018004d848     libucrt:new_handler.obj
 0002:0001b848       $unwind$?dtor$2@?0??setPixel@LwipImage@@SAXAEBV?$FunctionCallbackInfo@VValue@v8@@@Nan@@@Z@4HA 000000018004d848     image.obj
 0002:0001b848       $unwind$?dtor$2@?0??rotate@LwipImage@@SAXAEBV?$FunctionCallbackInfo@VValue@v8@@@Nan@@@Z@4HA 000000018004d848     image.obj
 0002:0001b848       $unwind$?dtor$1@?0??rotate@LwipImage@@SAXAEBV?$FunctionCallbackInfo@VValue@v8@@@Nan@@@Z@4HA 000000018004d848     image.obj
 0002:0001b848       $unwind$?dtor$71@?0??get_resize@?$CImg@E@cimg_library@@QEBA?AU12@HHHHHIMMMM@Z@4HA 000000018004d848     resize_worker.obj
 0002:0001b848       $unwind$__DestructExceptionObject$filt$0 000000018004d848     libvcruntime:frame.obj
 0002:0001b850       $unwind$?type_case_Z@?$output_processor@_WV?$stream_output_adapter@_W@__crt_stdio_output@@V?$standard_base@_WV?$stream_output_adapter@_W@__crt_stdio_output@@@2@@__crt_stdio_output@@AEAA_NXZ 000000018004d850     libucrt:output.obj
 0002:0001b850       $unwind$?__scrt_initialize_thread_safe_statics@@YAHXZ 000000018004d850     LIBCMT:thread_safe_statics.obj
 0002:0001b850       $unwind$memcpy_s           000000018004d850     libucrt:cfout.obj
 0002:0001b850       $unwind$??_GLwipImage@@UEAAPEAXI@Z 000000018004d850     image.obj
 0002:0001b850       $unwind$_Init_thread_wait  000000018004d850     LIBCMT:thread_safe_statics.obj
 0002:0001b850       $unwind$?type_case_n@?$output_processor@_WV?$stream_output_adapter@_W@__crt_stdio_output@@V?$standard_base@_WV?$stream_output_adapter@_W@__crt_stdio_output@@@2@@__crt_stdio_output@@AEAA_NXZ 000000018004d850     libucrt:output.obj
 0002:0001b850       $unwind$?type_case_Z@?$output_processor@DV?$string_output_adapter@D@__crt_stdio_output@@V?$format_validation_base@DV?$string_output_adapter@D@__crt_stdio_output@@@2@@__crt_stdio_output@@AEAA_NXZ 000000018004d850     libucrt:output.obj
 0002:0001b850       $unwind$?type_case_s@?$output_processor@DV?$string_output_adapter@D@__crt_stdio_output@@V?$format_validation_base@DV?$string_output_adapter@D@__crt_stdio_output@@@2@@__crt_stdio_output@@AEAA_NXZ 000000018004d850     libucrt:output.obj
 0002:0001b850       $unwind$__acrt_stdio_flush_and_write_wide_nolock 000000018004d850     libucrt:_flsbuf.obj
 0002:0001b850       $unwind$?assign@?$basic_string@DU?$char_traits@D@std@@V?$allocator@D@2@@std@@QEAAAEAV12@PEBD_K@Z 000000018004d850     mirror_worker.obj
 0002:0001b850       $unwind$__acrt_execute_uninitializers 000000018004d850     libucrt:shared_initialization.obj
 0002:0001b850       $unwind$?type_case_n@?$output_processor@DV?$string_output_adapter@D@__crt_stdio_output@@V?$format_validation_base@DV?$string_output_adapter@D@__crt_stdio_output@@@2@@__crt_stdio_output@@AEAA_NXZ 000000018004d850     libucrt:output.obj
 0002:0001b850       $unwind$__acrt_FlsSetValue 000000018004d850     libucrt:winapi_thunks.obj
 0002:0001b850       $unwind$_exception_enabled 000000018004d850     libucrt:libm_error.obj
 0002:0001b850       $unwind$__acrt_stdio_flush_nolock 000000018004d850     libucrt:fflush.obj
 0002:0001b850       $unwind$_initterm_e        000000018004d850     libucrt:initterm.obj
 0002:0001b850       $unwind$?type_case_Z@?$output_processor@DV?$stream_output_adapter@D@__crt_stdio_output@@V?$standard_base@DV?$stream_output_adapter@D@__crt_stdio_output@@@2@@__crt_stdio_output@@AEAA_NXZ 000000018004d850     libucrt:output.obj
 0002:0001b850       $unwind$??$common_getenv_nolock@D@@YAPEADQEBD@Z 000000018004d850     libucrt:getenv.obj
 0002:0001b850       $unwind$__vcrt_FlsSetValue 000000018004d850     libvcruntime:winapi_downlevel.obj
 0002:0001b850       $unwind$?type_case_s@?$output_processor@DV?$stream_output_adapter@D@__crt_stdio_output@@V?$standard_base@DV?$stream_output_adapter@D@__crt_stdio_output@@@2@@__crt_stdio_output@@AEAA_NXZ 000000018004d850     libucrt:output.obj
 0002:0001b850       $unwind$?type_case_n@?$output_processor@DV?$string_output_adapter@D@__crt_stdio_output@@V?$standard_base@DV?$string_output_adapter@D@__crt_stdio_output@@@2@@__crt_stdio_output@@AEAA_NXZ 000000018004d850     libucrt:output.obj
 0002:0001b850       $unwind$__vcrt_getptd_noexit 000000018004d850     libvcruntime:per_thread_data.obj
 0002:0001b850       $unwind$?type_case_s@?$output_processor@DV?$string_output_adapter@D@__crt_stdio_output@@V?$standard_base@DV?$string_output_adapter@D@__crt_stdio_output@@@2@@__crt_stdio_output@@AEAA_NXZ 000000018004d850     libucrt:output.obj
 0002:0001b850       $unwind$??R<lambda_ad1ced32f4ac17aa236e5ef05d6b3b7c>@@QEBAXXZ 000000018004d850     libucrt:mbctype.obj
 0002:0001b850       $unwind$?type_case_n@?$output_processor@DV?$stream_output_adapter@D@__crt_stdio_output@@V?$standard_base@DV?$stream_output_adapter@D@__crt_stdio_output@@@2@@__crt_stdio_output@@AEAA_NXZ 000000018004d850     libucrt:output.obj
 0002:0001b850       $unwind$_RTC_Initialize    000000018004d850     LIBCMT:_initsect_.obj
 0002:0001b850       $unwind$?free_crt_array_internal@@YAXQEAPEBX_K@Z 000000018004d850     libucrt:inittime.obj
 0002:0001b850       $unwind$_RTC_Terminate     000000018004d850     LIBCMT:_initsect_.obj
 0002:0001b850       $unwind$__acrt_LocaleNameToLCID 000000018004d850     libucrt:winapi_thunks.obj
 0002:0001b850       $unwind$?type_case_Z@?$output_processor@DV?$string_output_adapter@D@__crt_stdio_output@@V?$standard_base@DV?$string_output_adapter@D@__crt_stdio_output@@@2@@__crt_stdio_output@@AEAA_NXZ 000000018004d850     libucrt:output.obj
 0002:0001b850       $unwind$__acrt_getptd_noexit 000000018004d850     libucrt:per_thread_data.obj
 0002:0001b850       $unwind$?type_case_s@?$output_processor@_WV?$string_output_adapter@_W@__crt_stdio_output@@V?$standard_base@_WV?$string_output_adapter@_W@__crt_stdio_output@@@2@@__crt_stdio_output@@AEAA_NXZ 000000018004d850     libucrt:output.obj
 0002:0001b850       $unwind$__acrt_stdio_flush_and_write_narrow_nolock 000000018004d850     libucrt:_flsbuf.obj
 0002:0001b850       $unwind$?type_case_n@?$output_processor@_WV?$string_output_adapter@_W@__crt_stdio_output@@V?$standard_base@_WV?$string_output_adapter@_W@__crt_stdio_output@@@2@@__crt_stdio_output@@AEAA_NXZ 000000018004d850     libucrt:output.obj
 0002:0001b850       $unwind$?SetErrorMessage@AsyncWorker@Nan@@IEAAXPEBD@Z 000000018004d850     resize_worker.obj
 0002:0001b850       $unwind$_DllMainCRTStartup 000000018004d850     LIBCMT:dll_dllmain.obj
 0002:0001b850       $unwind$??$common_lseek_nolock@_J@@YA_JH_JH@Z 000000018004d850     libucrt:lseek.obj
 0002:0001b850       $unwind$?type_case_Z@?$output_processor@_WV?$string_output_adapter@_W@__crt_stdio_output@@V?$standard_base@_WV?$string_output_adapter@_W@__crt_stdio_output@@@2@@__crt_stdio_output@@AEAA_NXZ 000000018004d850     libucrt:output.obj
 0002:0001b850       $unwind$?type_case_s@?$output_processor@_WV?$stream_output_adapter@_W@__crt_stdio_output@@V?$standard_base@_WV?$stream_output_adapter@_W@__crt_stdio_output@@@2@@__crt_stdio_output@@AEAA_NXZ 000000018004d850     libucrt:output.obj
 0002:0001b860       $unwind$?New@LwipImage@@SAXAEBV?$FunctionCallbackInfo@VValue@v8@@@Nan@@@Z 000000018004d860     image.obj
 0002:0001b880       $stateUnwindMap$?New@LwipImage@@SAXAEBV?$FunctionCallbackInfo@VValue@v8@@@Nan@@@Z 000000018004d880     image.obj
 0002:0001b888       $ip2state$?New@LwipImage@@SAXAEBV?$FunctionCallbackInfo@VValue@v8@@@Nan@@@Z 000000018004d888     image.obj
 0002:0001b8a0       $unwind$?height@LwipImage@@SAXAEBV?$FunctionCallbackInfo@VValue@v8@@@Nan@@@Z 000000018004d8a0     image.obj
 0002:0001b8a0       $unwind$?width@LwipImage@@SAXAEBV?$FunctionCallbackInfo@VValue@v8@@@Nan@@@Z 000000018004d8a0     image.obj
 0002:0001b8ac       $unwind$?getPixel@LwipImage@@SAXAEBV?$FunctionCallbackInfo@VValue@v8@@@Nan@@@Z 000000018004d8ac     image.obj
 0002:0001b8c0       $unwind$?buffer@LwipImage@@SAXAEBV?$FunctionCallbackInfo@VValue@v8@@@Nan@@@Z 000000018004d8c0     image.obj
 0002:0001b8c0       $unwind$__CxxFrameHandler3 000000018004d8c0     libvcruntime:trnsctrl.obj
 0002:0001b8d0       $unwind$?resize@LwipImage@@SAXAEBV?$FunctionCallbackInfo@VValue@v8@@@Nan@@@Z 000000018004d8d0     image.obj
 0002:0001b8ec       $stateUnwindMap$?resize@LwipImage@@SAXAEBV?$FunctionCallbackInfo@VValue@v8@@@Nan@@@Z 000000018004d8ec     image.obj
 0002:0001b900       $ip2state$?resize@LwipImage@@SAXAEBV?$FunctionCallbackInfo@VValue@v8@@@Nan@@@Z 000000018004d900     image.obj
 0002:0001b928       $unwind$?rotate@LwipImage@@SAXAEBV?$FunctionCallbackInfo@VValue@v8@@@Nan@@@Z 000000018004d928     image.obj
 0002:0001b94c       $stateUnwindMap$?rotate@LwipImage@@SAXAEBV?$FunctionCallbackInfo@VValue@v8@@@Nan@@@Z 000000018004d94c     image.obj
 0002:0001b960       $ip2state$?rotate@LwipImage@@SAXAEBV?$FunctionCallbackInfo@VValue@v8@@@Nan@@@Z 000000018004d960     image.obj
 0002:0001b988       $unwind$?blur@LwipImage@@SAXAEBV?$FunctionCallbackInfo@VValue@v8@@@Nan@@@Z 000000018004d988     image.obj
 0002:0001b9a4       $stateUnwindMap$?blur@LwipImage@@SAXAEBV?$FunctionCallbackInfo@VValue@v8@@@Nan@@@Z 000000018004d9a4     image.obj
 0002:0001b9a4       $stateUnwindMap$?mirror@LwipImage@@SAXAEBV?$FunctionCallbackInfo@VValue@v8@@@Nan@@@Z 000000018004d9a4     image.obj
 0002:0001b9a4       $stateUnwindMap$?sharpen@LwipImage@@SAXAEBV?$FunctionCallbackInfo@VValue@v8@@@Nan@@@Z 000000018004d9a4     image.obj
 0002:0001b9b8       $ip2state$?blur@LwipImage@@SAXAEBV?$FunctionCallbackInfo@VValue@v8@@@Nan@@@Z 000000018004d9b8     image.obj
 0002:0001b9e0       $unwind$?crop@LwipImage@@SAXAEBV?$FunctionCallbackInfo@VValue@v8@@@Nan@@@Z 000000018004d9e0     image.obj
 0002:0001ba04       $stateUnwindMap$?crop@LwipImage@@SAXAEBV?$FunctionCallbackInfo@VValue@v8@@@Nan@@@Z 000000018004da04     image.obj
 0002:0001ba18       $ip2state$?crop@LwipImage@@SAXAEBV?$FunctionCallbackInfo@VValue@v8@@@Nan@@@Z 000000018004da18     image.obj
 0002:0001ba40       $unwind$?mirror@LwipImage@@SAXAEBV?$FunctionCallbackInfo@VValue@v8@@@Nan@@@Z 000000018004da40     image.obj
 0002:0001ba60       $ip2state$?mirror@LwipImage@@SAXAEBV?$FunctionCallbackInfo@VValue@v8@@@Nan@@@Z 000000018004da60     image.obj
 0002:0001ba88       $unwind$?pad@LwipImage@@SAXAEBV?$FunctionCallbackInfo@VValue@v8@@@Nan@@@Z 000000018004da88     image.obj
 0002:0001baac       $stateUnwindMap$?pad@LwipImage@@SAXAEBV?$FunctionCallbackInfo@VValue@v8@@@Nan@@@Z 000000018004daac     image.obj
 0002:0001bac0       $ip2state$?pad@LwipImage@@SAXAEBV?$FunctionCallbackInfo@VValue@v8@@@Nan@@@Z 000000018004dac0     image.obj
 0002:0001bae8       $unwind$?sharpen@LwipImage@@SAXAEBV?$FunctionCallbackInfo@VValue@v8@@@Nan@@@Z 000000018004dae8     image.obj
 0002:0001bb08       $ip2state$?sharpen@LwipImage@@SAXAEBV?$FunctionCallbackInfo@VValue@v8@@@Nan@@@Z 000000018004db08     image.obj
 0002:0001bb30       $unwind$?hslaAdj@LwipImage@@SAXAEBV?$FunctionCallbackInfo@VValue@v8@@@Nan@@@Z 000000018004db30     image.obj
 0002:0001bb58       $stateUnwindMap$?hslaAdj@LwipImage@@SAXAEBV?$FunctionCallbackInfo@VValue@v8@@@Nan@@@Z 000000018004db58     image.obj
 0002:0001bb68       $ip2state$?hslaAdj@LwipImage@@SAXAEBV?$FunctionCallbackInfo@VValue@v8@@@Nan@@@Z 000000018004db68     image.obj
 0002:0001bb90       $unwind$?opacify@LwipImage@@SAXAEBV?$FunctionCallbackInfo@VValue@v8@@@Nan@@@Z 000000018004db90     image.obj
 0002:0001bba8       $stateUnwindMap$?opacify@LwipImage@@SAXAEBV?$FunctionCallbackInfo@VValue@v8@@@Nan@@@Z 000000018004dba8     image.obj
 0002:0001bbb8       $ip2state$?opacify@LwipImage@@SAXAEBV?$FunctionCallbackInfo@VValue@v8@@@Nan@@@Z 000000018004dbb8     image.obj
 0002:0001bbe0       $unwind$?paste@LwipImage@@SAXAEBV?$FunctionCallbackInfo@VValue@v8@@@Nan@@@Z 000000018004dbe0     image.obj
 0002:0001bc04       $stateUnwindMap$?paste@LwipImage@@SAXAEBV?$FunctionCallbackInfo@VValue@v8@@@Nan@@@Z 000000018004dc04     image.obj
 0002:0001bc20       $ip2state$?paste@LwipImage@@SAXAEBV?$FunctionCallbackInfo@VValue@v8@@@Nan@@@Z 000000018004dc20     image.obj
 0002:0001bc50       $unwind$?setPixel@LwipImage@@SAXAEBV?$FunctionCallbackInfo@VValue@v8@@@Nan@@@Z 000000018004dc50     image.obj
 0002:0001bc74       $stateUnwindMap$?setPixel@LwipImage@@SAXAEBV?$FunctionCallbackInfo@VValue@v8@@@Nan@@@Z 000000018004dc74     image.obj
 0002:0001bc88       $ip2state$?setPixel@LwipImage@@SAXAEBV?$FunctionCallbackInfo@VValue@v8@@@Nan@@@Z 000000018004dc88     image.obj
 0002:0001bcb0       $unwind$??0?$CImg@E@cimg_library@@QEAA@QEBEIIII_N@Z 000000018004dcb0     image.obj
 0002:0001bcc8       $stateUnwindMap$?assign@?$CImg@E@cimg_library@@QEAAAEAU12@QEBEIIII@Z 000000018004dcc8     resize_worker.obj
 0002:0001bcc8       $stateUnwindMap$??0?$CImg@E@cimg_library@@QEAA@IIIIAEBE@Z 000000018004dcc8     resize_worker.obj
 0002:0001bcc8       $stateUnwindMap$??0?$CImg@I@cimg_library@@QEAA@IIII@Z 000000018004dcc8     resize_worker.obj
 0002:0001bcc8       $stateUnwindMap$??0?$CImg@E@cimg_library@@QEAA@QEBEIIII_N@Z 000000018004dcc8     image.obj
 0002:0001bcc8       $stateUnwindMap$??0?$CImg@E@cimg_library@@QEAA@IIII@Z 000000018004dcc8     image.obj
 0002:0001bcc8       $stateUnwindMap$?assign@?$CImg@E@cimg_library@@QEAAAEAU12@IIII@Z 000000018004dcc8     resize_worker.obj
 0002:0001bcc8       $stateUnwindMap$??0?$CImg@M@cimg_library@@QEAA@IIIIAEBM@Z 000000018004dcc8     resize_worker.obj
 0002:0001bcc8       $stateUnwindMap$??0?$CImg@M@cimg_library@@QEAA@IIII@Z 000000018004dcc8     resize_worker.obj
 0002:0001bcc8       $stateUnwindMap$??0?$CImg@E@cimg_library@@QEAA@AEBU01@_N@Z 000000018004dcc8     resize_worker.obj
 0002:0001bcc8       $stateUnwindMap$??0?$CImg@K@cimg_library@@QEAA@IIII@Z 000000018004dcc8     resize_worker.obj
 0002:0001bcc8       $stateUnwindMap$?assign@?$CImg@D@cimg_library@@QEAAAEAU12@IIII@Z 000000018004dcc8     image.obj
 0002:0001bcc8       $stateUnwindMap$??0?$CImg@D@cimg_library@@QEAA@IIII@Z 000000018004dcc8     image.obj
 0002:0001bcc8       $stateUnwindMap$??0?$CImg@E@cimg_library@@QEAA@AEBU01@@Z 000000018004dcc8     image.obj
 0002:0001bcd8       $tryMap$??0?$CImg@E@cimg_library@@QEAA@QEBEIIII_N@Z 000000018004dcd8     image.obj
 0002:0001bcec       $handlerMap$0$??0?$CImg@E@cimg_library@@QEAA@QEBEIIII_N@Z 000000018004dcec     image.obj
 0002:0001bd00       $ip2state$??0?$CImg@E@cimg_library@@QEAA@QEBEIIII_N@Z 000000018004dd00     image.obj
 0002:0001bd28       $unwind$?catch$0@?0???0?$CImg@E@cimg_library@@QEAA@QEBEIIII_N@Z@4HA 000000018004dd28     image.obj
 0002:0001bd40       $unwind$?assign@?$CImg@D@cimg_library@@QEAAAEAU12@IIII@Z 000000018004dd40     image.obj
 0002:0001bd58       $tryMap$?assign@?$CImg@D@cimg_library@@QEAAAEAU12@IIII@Z 000000018004dd58     image.obj
 0002:0001bd6c       $handlerMap$0$?assign@?$CImg@D@cimg_library@@QEAAAEAU12@IIII@Z 000000018004dd6c     image.obj
 0002:0001bd80       $ip2state$?assign@?$CImg@D@cimg_library@@QEAAAEAU12@IIII@Z 000000018004dd80     image.obj
 0002:0001bda8       $unwind$?catch$0@?0??assign@?$CImg@D@cimg_library@@QEAAAEAU12@IIII@Z@4HA 000000018004dda8     image.obj
 0002:0001bdbc       $unwind$??0?$CImg@D@cimg_library@@QEAA@IIII@Z 000000018004ddbc     image.obj
 0002:0001bdd0       $tryMap$??0?$CImg@D@cimg_library@@QEAA@IIII@Z 000000018004ddd0     image.obj
 0002:0001bde4       $handlerMap$0$??0?$CImg@D@cimg_library@@QEAA@IIII@Z 000000018004dde4     image.obj
 0002:0001bdf8       $ip2state$??0?$CImg@D@cimg_library@@QEAA@IIII@Z 000000018004ddf8     image.obj
 0002:0001be20       $unwind$?catch$7@?0???0?$CImg@D@cimg_library@@QEAA@IIII@Z@4HA 000000018004de20     image.obj
 0002:0001be34       $unwind$??0?$CImg@E@cimg_library@@QEAA@AEBU01@@Z 000000018004de34     image.obj
 0002:0001be50       $tryMap$??0?$CImg@E@cimg_library@@QEAA@AEBU01@@Z 000000018004de50     image.obj
 0002:0001be64       $handlerMap$0$??0?$CImg@E@cimg_library@@QEAA@AEBU01@@Z 000000018004de64     image.obj
 0002:0001be78       $ip2state$??0?$CImg@E@cimg_library@@QEAA@AEBU01@@Z 000000018004de78     image.obj
 0002:0001bea0       $unwind$?catch$0@?0???0?$CImg@E@cimg_library@@QEAA@AEBU01@@Z@4HA 000000018004dea0     image.obj
 0002:0001bebc       $unwind$??0?$CImg@E@cimg_library@@QEAA@IIII@Z 000000018004debc     image.obj
 0002:0001bed0       $tryMap$??0?$CImg@E@cimg_library@@QEAA@IIII@Z 000000018004ded0     image.obj
 0002:0001bee4       $handlerMap$0$??0?$CImg@E@cimg_library@@QEAA@IIII@Z 000000018004dee4     image.obj
 0002:0001bef8       $ip2state$??0?$CImg@E@cimg_library@@QEAA@IIII@Z 000000018004def8     image.obj
 0002:0001bf20       $unwind$?catch$0@?0???0?$CImg@E@cimg_library@@QEAA@IIII@Z@4HA 000000018004df20     image.obj
 0002:0001bf3c       $unwind$??$Unwrap@VLwipImage@@@ObjectWrap@node@@SAPEAVLwipImage@@V?$Local@VObject@v8@@@v8@@@Z 000000018004df3c     image.obj
 0002:0001bf44       $unwind$?Call@Callback@Nan@@QEBA?AV?$Local@VValue@v8@@@v8@@HQEAV34@@Z 000000018004df44     resize_worker.obj
 0002:0001bf60       $stateUnwindMap$?Call@Callback@Nan@@QEBA?AV?$Local@VValue@v8@@@v8@@HQEAV34@@Z 000000018004df60     resize_worker.obj
 0002:0001bf68       $ip2state$?Call@Callback@Nan@@QEBA?AV?$Local@VValue@v8@@@v8@@HQEAV34@@Z 000000018004df68     resize_worker.obj
 0002:0001bf80       $unwind$?Call@Callback@Nan@@QEBA?AV?$MaybeLocal@VValue@v8@@@v8@@HQEAV?$Local@VValue@v8@@@4@PEAVAsyncResource@2@@Z 000000018004df80     resize_worker.obj
 0002:0001bf9c       $stateUnwindMap$?Call@Callback@Nan@@QEBA?AV?$MaybeLocal@VValue@v8@@@v8@@HQEAV?$Local@VValue@v8@@@4@PEAVAsyncResource@2@@Z 000000018004df9c     resize_worker.obj
 0002:0001bfa8       $ip2state$?Call@Callback@Nan@@QEBA?AV?$MaybeLocal@VValue@v8@@@v8@@HQEAV?$Local@VValue@v8@@@4@PEAVAsyncResource@2@@Z 000000018004dfa8     resize_worker.obj
 0002:0001bfc0       $unwind$?Call_@Callback@Nan@@AEBA?AV?$Local@VValue@v8@@@v8@@PEAVIsolate@4@V?$Local@VObject@v8@@@4@HQEAV34@@Z 000000018004dfc0     resize_worker.obj
 0002:0001bfd8       $stateUnwindMap$?HandleErrorCallback@AsyncWorker@Nan@@MEAAXXZ 000000018004dfd8     resize_worker.obj
 0002:0001bfd8       $stateUnwindMap$?Call_@Callback@Nan@@AEBA?AV?$Local@VValue@v8@@@v8@@PEAVIsolate@4@V?$Local@VObject@v8@@@4@HQEAV34@@Z 000000018004dfd8     resize_worker.obj
 0002:0001bfd8       $stateUnwindMap$?SaveToPersistent@AsyncWorker@Nan@@QEAAXPEBDAEBV?$Local@VValue@v8@@@v8@@@Z 000000018004dfd8     paste_worker.obj
 0002:0001bfd8       $stateUnwindMap$?HandleOKCallback@AsyncWorker@Nan@@MEAAXXZ 000000018004dfd8     resize_worker.obj
 0002:0001bfe0       $ip2state$?Call_@Callback@Nan@@AEBA?AV?$Local@VValue@v8@@@v8@@PEAVIsolate@4@V?$Local@VObject@v8@@@4@HQEAV34@@Z 000000018004dfe0     resize_worker.obj
 0002:0001bff8       $unwind$??0AsyncWorker@Nan@@QEAA@PEAVCallback@1@PEBD@Z 000000018004dff8     resize_worker.obj
 0002:0001c00c       $stateUnwindMap$??0AsyncWorker@Nan@@QEAA@PEAVCallback@1@PEBD@Z 000000018004e00c     resize_worker.obj
 0002:0001c020       $ip2state$??0AsyncWorker@Nan@@QEAA@PEAVCallback@1@PEBD@Z 000000018004e020     resize_worker.obj
 0002:0001c048       $unwind$??1AsyncWorker@Nan@@UEAA@XZ 000000018004e048     resize_worker.obj
 0002:0001c05c       $stateUnwindMap$??1AsyncWorker@Nan@@UEAA@XZ 000000018004e05c     resize_worker.obj
 0002:0001c070       $ip2state$??1AsyncWorker@Nan@@UEAA@XZ 000000018004e070     resize_worker.obj
 0002:0001c088       $unwind$?WorkComplete@AsyncWorker@Nan@@UEAAXXZ 000000018004e088     resize_worker.obj
 0002:0001c09c       $stateUnwindMap$?WorkComplete@AsyncWorker@Nan@@UEAAXXZ 000000018004e09c     resize_worker.obj
 0002:0001c0b8       $ip2state$?WorkComplete@AsyncWorker@Nan@@UEAAXXZ 000000018004e0b8     resize_worker.obj
 0002:0001c0e0       $unwind$?HandleOKCallback@AsyncWorker@Nan@@MEAAXXZ 000000018004e0e0     resize_worker.obj
 0002:0001c0f0       $ip2state$?HandleOKCallback@AsyncWorker@Nan@@MEAAXXZ 000000018004e0f0     resize_worker.obj
 0002:0001c108       $unwind$?HandleErrorCallback@AsyncWorker@Nan@@MEAAXXZ 000000018004e108     resize_worker.obj
 0002:0001c120       $ip2state$?HandleErrorCallback@AsyncWorker@Nan@@MEAAXXZ 000000018004e120     resize_worker.obj
 0002:0001c138       $unwind$??1?$Persistent@VObject@v8@@V?$NonCopyablePersistentTraits@VObject@v8@@@2@@Nan@@QEAA@XZ 000000018004e138     resize_worker.obj
 0002:0001c148       $ip2state$??1?$Persistent@VObject@v8@@V?$NonCopyablePersistentTraits@VObject@v8@@@2@@Nan@@QEAA@XZ 000000018004e148     resize_worker.obj
 0002:0001c150       $unwind$?Execute@ResizeWorker@@UEAAXXZ 000000018004e150     resize_worker.obj
 0002:0001c160       $stateUnwindMap$?Execute@ResizeWorker@@UEAAXXZ 000000018004e160     resize_worker.obj
 0002:0001c178       $tryMap$?Execute@ResizeWorker@@UEAAXXZ 000000018004e178     resize_worker.obj
 0002:0001c18c       $handlerMap$0$?Execute@ResizeWorker@@UEAAXXZ 000000018004e18c     resize_worker.obj
 0002:0001c1a0       $ip2state$?Execute@ResizeWorker@@UEAAXXZ 000000018004e1a0     resize_worker.obj
 0002:0001c1d8       $unwind$?catch$1@?0??Execute@ResizeWorker@@UEAAXXZ@4HA 000000018004e1d8     resize_worker.obj
 0002:0001c1e8       $unwind$_isleadbyte_l      000000018004e1e8     libucrt:_wctype.obj
 0002:0001c1e8       $unwind$?HandleOKCallback@CropWorker@@UEAAXXZ 000000018004e1e8     crop_worker.obj
 0002:0001c1e8       $unwind$?HandleOKCallback@OpacifyWorker@@UEAAXXZ 000000018004e1e8     opacify_worker.obj
 0002:0001c1e8       $unwind$?HandleOKCallback@MirrorWorker@@UEAAXXZ 000000018004e1e8     mirror_worker.obj
 0002:0001c1e8       $unwind$?HandleOKCallback@SharpenWorker@@UEAAXXZ 000000018004e1e8     sharpen_worker.obj
 0002:0001c1e8       $unwind$?HandleOKCallback@HSLAWorker@@UEAAXXZ 000000018004e1e8     hsla_worker.obj
 0002:0001c1e8       $unwind$?HandleOKCallback@ResizeWorker@@UEAAXXZ 000000018004e1e8     resize_worker.obj
 0002:0001c1e8       $unwind$?HandleOKCallback@PadWorker@@UEAAXXZ 000000018004e1e8     pad_worker.obj
 0002:0001c1e8       $unwind$?getSystemCP@@YAHH@Z 000000018004e1e8     libucrt:mbctype.obj
 0002:0001c1e8       $unwind$?HandleOKCallback@RotateWorker@@UEAAXXZ 000000018004e1e8     rotate_worker.obj
 0002:0001c1e8       $unwind$?HandleOKCallback@PasteWorker@@UEAAXXZ 000000018004e1e8     paste_worker.obj
 0002:0001c1e8       $unwind$?HandleOKCallback@BlurWorker@@UEAAXXZ 000000018004e1e8     blur_worker.obj
 0002:0001c1e8       $unwind$?HandleOKCallback@SetPixelWorker@@UEAAXXZ 000000018004e1e8     setpixel_worker.obj
 0002:0001c1e8       $unwind$isdigit            000000018004e1e8     libucrt:_ctype.obj
 0002:0001c1f0       $unwind$?resize@?$CImg@E@cimg_library@@QEAAAEAU12@HHHHHIMMMM@Z 000000018004e1f0     resize_worker.obj
 0002:0001c208       $stateUnwindMap$?crop@?$CImg@E@cimg_library@@QEAAAEAU12@HHHHHHHH_N@Z 000000018004e208     crop_worker.obj
 0002:0001c208       $stateUnwindMap$?resize@?$CImg@E@cimg_library@@QEAAAEAU12@HHHHHIMMMM@Z 000000018004e208     resize_worker.obj
 0002:0001c210       $ip2state$?resize@?$CImg@E@cimg_library@@QEAAAEAU12@HHHHHIMMMM@Z 000000018004e210     resize_worker.obj
 0002:0001c228       $unwind$??0?$CImg@K@cimg_library@@QEAA@IIII@Z 000000018004e228     resize_worker.obj
 0002:0001c23c       $tryMap$??0?$CImg@K@cimg_library@@QEAA@IIII@Z 000000018004e23c     resize_worker.obj
 0002:0001c250       $handlerMap$0$??0?$CImg@K@cimg_library@@QEAA@IIII@Z 000000018004e250     resize_worker.obj
 0002:0001c268       $ip2state$??0?$CImg@K@cimg_library@@QEAA@IIII@Z 000000018004e268     resize_worker.obj
 0002:0001c290       $unwind$?catch$0@?0???0?$CImg@K@cimg_library@@QEAA@IIII@Z@4HA 000000018004e290     resize_worker.obj
 0002:0001c2a4       $unwind$?get_resize@?$CImg@E@cimg_library@@QEBA?AU12@HHHHHIMMMM@Z 000000018004e2a4     resize_worker.obj
 0002:0001c2e8       $stateUnwindMap$?get_resize@?$CImg@E@cimg_library@@QEBA?AU12@HHHHHIMMMM@Z 000000018004e2e8     resize_worker.obj
 0002:0001c600       $ip2state$?get_resize@?$CImg@E@cimg_library@@QEBA?AU12@HHHHHIMMMM@Z 000000018004e600     resize_worker.obj
 0002:0001cc40       $unwind$??$__acrt_stdio_parse_mode@D@@YA?AU__acrt_stdio_stream_mode@@QEBD@Z 000000018004ec40     libucrt:openfile.obj
 0002:0001cc40       $unwind$?move_to@?$CImg@E@cimg_library@@QEAAAEAU12@AEAU12@@Z 000000018004ec40     resize_worker.obj
 0002:0001cc40       $unwind$??$assign@M@?$CImg@E@cimg_library@@QEAAAEAU01@QEBMIIII@Z 000000018004ec40     resize_worker.obj
 0002:0001cc4c       $unwind$??0?$CImg@I@cimg_library@@QEAA@IIII@Z 000000018004ec4c     resize_worker.obj
 0002:0001cc60       $tryMap$??0?$CImg@I@cimg_library@@QEAA@IIII@Z 000000018004ec60     resize_worker.obj
 0002:0001cc74       $handlerMap$0$??0?$CImg@I@cimg_library@@QEAA@IIII@Z 000000018004ec74     resize_worker.obj
 0002:0001cc88       $ip2state$??0?$CImg@I@cimg_library@@QEAA@IIII@Z 000000018004ec88     resize_worker.obj
 0002:0001ccb0       $unwind$?catch$0@?0???0?$CImg@I@cimg_library@@QEAA@IIII@Z@4HA 000000018004ecb0     resize_worker.obj
 0002:0001ccc4       $unwind$?draw_image@?$CImg@E@cimg_library@@QEAAAEAU12@HHHHAEBU12@M@Z 000000018004ecc4     resize_worker.obj
 0002:0001ccf0       $stateUnwindMap$?draw_image@?$CImg@E@cimg_library@@QEAAAEAU12@HHHHAEBU12@M@Z 000000018004ecf0     resize_worker.obj
 0002:0001ccf8       $ip2state$?draw_image@?$CImg@E@cimg_library@@QEAAAEAU12@HHHHAEBU12@M@Z 000000018004ecf8     resize_worker.obj
 0002:0001cd10       $unwind$?get_crop@?$CImg@E@cimg_library@@QEBA?AU12@HHHHHHHH_N@Z 000000018004ed10     resize_worker.obj
 0002:0001cd30       $stateUnwindMap$?get_crop@?$CImg@E@cimg_library@@QEBA?AU12@HHHHHHHH_N@Z 000000018004ed30     resize_worker.obj
 0002:0001cd38       $ip2state$?get_crop@?$CImg@E@cimg_library@@QEBA?AU12@HHHHHHHH_N@Z 000000018004ed38     resize_worker.obj
 0002:0001cd48       $unwind$_sincos_special    000000018004ed48     libucrt:sincos_special.obj
 0002:0001cd48       $unwind$?_cimg_lanczos@?$CImg@E@cimg_library@@SAMM@Z 000000018004ed48     resize_worker.obj
 0002:0001cd48       $unwind$_sincosf_special   000000018004ed48     libucrt:sincos_special.obj
 0002:0001cd50       $chain$2$?_cimg_lanczos@?$CImg@E@cimg_library@@SAMM@Z 000000018004ed50     resize_worker.obj
 0002:0001cd6c       $chain$3$?_cimg_lanczos@?$CImg@E@cimg_library@@SAMM@Z 000000018004ed6c     resize_worker.obj
 0002:0001cd7c       $unwind$??$common_xtox_s@K_W@@YAHKQEA_W_KI_N@Z 000000018004ed7c     libucrt:xtoa.obj
 0002:0001cd7c       $unwind$??0out_of_range@std@@QEAA@PEBD@Z 000000018004ed7c     libcpmt:xthrow.obj
 0002:0001cd7c       $unwind$strtol             000000018004ed7c     libucrt:strtox.obj
 0002:0001cd7c       $unwind$??0length_error@std@@QEAA@PEBD@Z 000000018004ed7c     libcpmt:xthrow.obj
 0002:0001cd7c       $unwind$??H?$CImg@E@cimg_library@@QEBA?AU01@XZ 000000018004ed7c     resize_worker.obj
 0002:0001cd7c       $unwind$wcstol             000000018004ed7c     libucrt:strtox.obj
 0002:0001cd84       $unwind$?assign@?$CImg@E@cimg_library@@QEAAAEAU12@IIII@Z 000000018004ed84     resize_worker.obj
 0002:0001cda0       $tryMap$?assign@?$CImg@E@cimg_library@@QEAAAEAU12@IIII@Z 000000018004eda0     resize_worker.obj
 0002:0001cdb4       $handlerMap$0$?assign@?$CImg@E@cimg_library@@QEAAAEAU12@IIII@Z 000000018004edb4     resize_worker.obj
 0002:0001cdc8       $ip2state$?assign@?$CImg@E@cimg_library@@QEAAAEAU12@IIII@Z 000000018004edc8     resize_worker.obj
 0002:0001cdf0       $unwind$?catch$0@?0??assign@?$CImg@E@cimg_library@@QEAAAEAU12@IIII@Z@4HA 000000018004edf0     resize_worker.obj
 0002:0001ce0c       $unwind$??0?$CImg@E@cimg_library@@QEAA@IIIIAEBE@Z 000000018004ee0c     resize_worker.obj
 0002:0001ce20       $tryMap$??0?$CImg@E@cimg_library@@QEAA@IIIIAEBE@Z 000000018004ee20     resize_worker.obj
 0002:0001ce34       $handlerMap$0$??0?$CImg@E@cimg_library@@QEAA@IIIIAEBE@Z 000000018004ee34     resize_worker.obj
 0002:0001ce48       $ip2state$??0?$CImg@E@cimg_library@@QEAA@IIIIAEBE@Z 000000018004ee48     resize_worker.obj
 0002:0001ce70       $unwind$?catch$0@?0???0?$CImg@E@cimg_library@@QEAA@IIIIAEBE@Z@4HA 000000018004ee70     resize_worker.obj
 0002:0001ce8c       $unwind$??0?$CImg@M@cimg_library@@QEAA@IIIIAEBM@Z 000000018004ee8c     resize_worker.obj
 0002:0001cea0       $tryMap$??0?$CImg@M@cimg_library@@QEAA@IIIIAEBM@Z 000000018004eea0     resize_worker.obj
 0002:0001ceb4       $handlerMap$0$??0?$CImg@M@cimg_library@@QEAA@IIIIAEBM@Z 000000018004eeb4     resize_worker.obj
 0002:0001cec8       $ip2state$??0?$CImg@M@cimg_library@@QEAA@IIIIAEBM@Z 000000018004eec8     resize_worker.obj
 0002:0001cef0       $unwind$?catch$0@?0???0?$CImg@M@cimg_library@@QEAA@IIIIAEBM@Z@4HA 000000018004eef0     resize_worker.obj
 0002:0001cf0c       $unwind$??0?$CImg@M@cimg_library@@QEAA@IIII@Z 000000018004ef0c     resize_worker.obj
 0002:0001cf20       $tryMap$??0?$CImg@M@cimg_library@@QEAA@IIII@Z 000000018004ef20     resize_worker.obj
 0002:0001cf34       $handlerMap$0$??0?$CImg@M@cimg_library@@QEAA@IIII@Z 000000018004ef34     resize_worker.obj
 0002:0001cf48       $ip2state$??0?$CImg@M@cimg_library@@QEAA@IIII@Z 000000018004ef48     resize_worker.obj
 0002:0001cf70       $unwind$?catch$0@?0???0?$CImg@M@cimg_library@@QEAA@IIII@Z@4HA 000000018004ef70     resize_worker.obj
 0002:0001cf8c       $unwind$??0?$CImg@E@cimg_library@@QEAA@AEBU01@_N@Z 000000018004ef8c     resize_worker.obj
 0002:0001cfa8       $tryMap$??0?$CImg@E@cimg_library@@QEAA@AEBU01@_N@Z 000000018004efa8     resize_worker.obj
 0002:0001cfbc       $handlerMap$0$??0?$CImg@E@cimg_library@@QEAA@AEBU01@_N@Z 000000018004efbc     resize_worker.obj
 0002:0001cfd0       $ip2state$??0?$CImg@E@cimg_library@@QEAA@AEBU01@_N@Z 000000018004efd0     resize_worker.obj
 0002:0001cff8       $unwind$?catch$0@?0???0?$CImg@E@cimg_library@@QEAA@AEBU01@_N@Z@4HA 000000018004eff8     resize_worker.obj
 0002:0001d014       $unwind$?assign@?$CImg@E@cimg_library@@QEAAAEAU12@QEBEIIII_N@Z 000000018004f014     resize_worker.obj
 0002:0001d02c       $unwind$?assign@?$CImg@E@cimg_library@@QEAAAEAU12@QEBEIIII@Z 000000018004f02c     resize_worker.obj
 0002:0001d04c       $tryMap$?assign@?$CImg@E@cimg_library@@QEAAAEAU12@QEBEIIII@Z 000000018004f04c     resize_worker.obj
 0002:0001d060       $handlerMap$0$?assign@?$CImg@E@cimg_library@@QEAAAEAU12@QEBEIIII@Z 000000018004f060     resize_worker.obj
 0002:0001d078       $ip2state$?assign@?$CImg@E@cimg_library@@QEAAAEAU12@QEBEIIII@Z 000000018004f078     resize_worker.obj
 0002:0001d0a0       $unwind$?catch$0@?0??assign@?$CImg@E@cimg_library@@QEAAAEAU12@QEBEIIII@Z@4HA 000000018004f0a0     resize_worker.obj
 0002:0001d0bc       $unwind$?Execute@RotateWorker@@UEAAXXZ 000000018004f0bc     rotate_worker.obj
 0002:0001d0ec       $stateUnwindMap$?Execute@RotateWorker@@UEAAXXZ 000000018004f0ec     rotate_worker.obj
 0002:0001d12c       $tryMap$?Execute@RotateWorker@@UEAAXXZ 000000018004f12c     rotate_worker.obj
 0002:0001d154       $handlerMap$0$?Execute@RotateWorker@@UEAAXXZ 000000018004f154     rotate_worker.obj
 0002:0001d168       $handlerMap$1$?Execute@RotateWorker@@UEAAXXZ 000000018004f168     rotate_worker.obj
 0002:0001d180       $ip2state$?Execute@RotateWorker@@UEAAXXZ 000000018004f180     rotate_worker.obj
 0002:0001d1f8       $unwind$?catch$8@?0??Execute@RotateWorker@@UEAAXXZ@4HA 000000018004f1f8     rotate_worker.obj
 0002:0001d1f8       $unwind$?catch$7@?0??Execute@RotateWorker@@UEAAXXZ@4HA 000000018004f1f8     rotate_worker.obj
 0002:0001d208       $unwind$?fillC@?$CImg@E@cimg_library@@QEAAAEAU12@IIIHZZ 000000018004f208     rotate_worker.obj
 0002:0001d210       $chain$0$?fillC@?$CImg@E@cimg_library@@QEAAAEAU12@IIIHZZ 000000018004f210     rotate_worker.obj
 0002:0001d224       $chain$1$?fillC@?$CImg@E@cimg_library@@QEAAAEAU12@IIIHZZ 000000018004f224     rotate_worker.obj
 0002:0001d234       $unwind$?get_rotate@?$CImg@E@cimg_library@@QEBA?AU12@MII@Z 000000018004f234     rotate_worker.obj
 0002:0001d278       $stateUnwindMap$?get_rotate@?$CImg@E@cimg_library@@QEBA?AU12@MII@Z 000000018004f278     rotate_worker.obj
 0002:0001d280       $ip2state$?get_rotate@?$CImg@E@cimg_library@@QEBA?AU12@MII@Z 000000018004f280     rotate_worker.obj
 0002:0001d298       $unwind$?_linear_atXY@?$CImg@E@cimg_library@@QEBAMMMHH@Z 000000018004f298     rotate_worker.obj
 0002:0001d2a4       $unwind$?Execute@BlurWorker@@UEAAXXZ 000000018004f2a4     blur_worker.obj
 0002:0001d2ac       $unwind$?vanvliet@?$CImg@E@cimg_library@@QEAAAEAU12@MID_N@Z 000000018004f2ac     blur_worker.obj
 0002:0001d2bc       $chain$3$?vanvliet@?$CImg@E@cimg_library@@QEAAAEAU12@MID_N@Z 000000018004f2bc     blur_worker.obj
 0002:0001d2dc       $chain$4$?vanvliet@?$CImg@E@cimg_library@@QEAAAEAU12@MID_N@Z 000000018004f2dc     blur_worker.obj
 0002:0001d2f8       $chain$5$?vanvliet@?$CImg@E@cimg_library@@QEAAAEAU12@MID_N@Z 000000018004f2f8     blur_worker.obj
 0002:0001d308       $unwind$?_cimg_recursive_apply@?$CImg@E@cimg_library@@SAXPEAEQEBNHKI_N@Z 000000018004f308     blur_worker.obj
 0002:0001d340       $unwind$?Execute@CropWorker@@UEAAXXZ 000000018004f340     crop_worker.obj
 0002:0001d350       $stateUnwindMap$?Execute@CropWorker@@UEAAXXZ 000000018004f350     crop_worker.obj
 0002:0001d368       $tryMap$?Execute@CropWorker@@UEAAXXZ 000000018004f368     crop_worker.obj
 0002:0001d37c       $handlerMap$0$?Execute@CropWorker@@UEAAXXZ 000000018004f37c     crop_worker.obj
 0002:0001d390       $ip2state$?Execute@CropWorker@@UEAAXXZ 000000018004f390     crop_worker.obj
 0002:0001d3c8       $unwind$?catch$1@?0??Execute@CropWorker@@UEAAXXZ@4HA 000000018004f3c8     crop_worker.obj
 0002:0001d3d8       $unwind$?crop@?$CImg@E@cimg_library@@QEAAAEAU12@HHHHHHHH_N@Z 000000018004f3d8     crop_worker.obj
 0002:0001d3f0       $ip2state$?crop@?$CImg@E@cimg_library@@QEAAAEAU12@HHHHHHHH_N@Z 000000018004f3f0     crop_worker.obj
 0002:0001d408       $unwind$?Execute@MirrorWorker@@UEAAXXZ 000000018004f408     mirror_worker.obj
 0002:0001d420       $stateUnwindMap$?Execute@MirrorWorker@@UEAAXXZ 000000018004f420     mirror_worker.obj
 0002:0001d440       $tryMap$?Execute@MirrorWorker@@UEAAXXZ 000000018004f440     mirror_worker.obj
 0002:0001d454       $handlerMap$0$?Execute@MirrorWorker@@UEAAXXZ 000000018004f454     mirror_worker.obj
 0002:0001d470       $ip2state$?Execute@MirrorWorker@@UEAAXXZ 000000018004f470     mirror_worker.obj
 0002:0001d4b0       $unwind$?catch$2@?0??Execute@MirrorWorker@@UEAAXXZ@4HA 000000018004f4b0     mirror_worker.obj
 0002:0001d4c0       $unwind$?mirror@?$CImg@E@cimg_library@@QEAAAEAU12@D@Z 000000018004f4c0     mirror_worker.obj
 0002:0001d4cc       $chain$4$?mirror@?$CImg@E@cimg_library@@QEAAAEAU12@D@Z 000000018004f4cc     mirror_worker.obj
 0002:0001d4f0       $chain$5$?mirror@?$CImg@E@cimg_library@@QEAAAEAU12@D@Z 000000018004f4f0     mirror_worker.obj
 0002:0001d500       $chain$6$?mirror@?$CImg@E@cimg_library@@QEAAAEAU12@D@Z 000000018004f500     mirror_worker.obj
 0002:0001d524       $unwind$?assign@?$basic_string@DU?$char_traits@D@std@@V?$allocator@D@2@@std@@QEAAAEAV12@AEBV12@_K1@Z 000000018004f524     mirror_worker.obj
 0002:0001d524       $unwind$_free_osfhnd       000000018004f524     libucrt:osfinfo.obj
 0002:0001d524       $unwind$__std_exception_copy 000000018004f524     libvcruntime:std_exception.obj
 0002:0001d524       $unwind$?initialize_stdio_handles_nolock@@YAXXZ 000000018004f524     libucrt:ioinit.obj
 0002:0001d538       $unwind$?append@?$basic_string@DU?$char_traits@D@std@@V?$allocator@D@2@@std@@QEAAAEAV12@PEBD_K@Z 000000018004f538     mirror_worker.obj
 0002:0001d548       $chain$0$?append@?$basic_string@DU?$char_traits@D@std@@V?$allocator@D@2@@std@@QEAAAEAV12@PEBD_K@Z 000000018004f548     mirror_worker.obj
 0002:0001d55c       $chain$1$?append@?$basic_string@DU?$char_traits@D@std@@V?$allocator@D@2@@std@@QEAAAEAV12@PEBD_K@Z 000000018004f55c     mirror_worker.obj
 0002:0001d56c       $chain$2$?append@?$basic_string@DU?$char_traits@D@std@@V?$allocator@D@2@@std@@QEAAAEAV12@PEBD_K@Z 000000018004f56c     mirror_worker.obj
 0002:0001d580       $unwind$?append@?$basic_string@DU?$char_traits@D@std@@V?$allocator@D@2@@std@@QEAAAEAV12@AEBV12@_K1@Z 000000018004f580     mirror_worker.obj
 0002:0001d594       $chain$0$?append@?$basic_string@DU?$char_traits@D@std@@V?$allocator@D@2@@std@@QEAAAEAV12@AEBV12@_K1@Z 000000018004f594     mirror_worker.obj
 0002:0001d5a8       $chain$1$?append@?$basic_string@DU?$char_traits@D@std@@V?$allocator@D@2@@std@@QEAAAEAV12@AEBV12@_K1@Z 000000018004f5a8     mirror_worker.obj
 0002:0001d5b8       $chain$2$?append@?$basic_string@DU?$char_traits@D@std@@V?$allocator@D@2@@std@@QEAAAEAV12@AEBV12@_K1@Z 000000018004f5b8     mirror_worker.obj
 0002:0001d5cc       $unwind$?_Copy@?$basic_string@DU?$char_traits@D@std@@V?$allocator@D@2@@std@@QEAAX_K0@Z 000000018004f5cc     mirror_worker.obj
 0002:0001d5e0       $unwind$?Execute@PadWorker@@UEAAXXZ 000000018004f5e0     pad_worker.obj
 0002:0001d5fc       $stateUnwindMap$?Execute@PadWorker@@UEAAXXZ 000000018004f5fc     pad_worker.obj
 0002:0001d61c       $tryMap$?Execute@PadWorker@@UEAAXXZ 000000018004f61c     pad_worker.obj
 0002:0001d630       $handlerMap$0$?Execute@PadWorker@@UEAAXXZ 000000018004f630     pad_worker.obj
 0002:0001d650       $ip2state$?Execute@PadWorker@@UEAAXXZ 000000018004f650     pad_worker.obj
 0002:0001d690       $unwind$?catch$4@?0??Execute@PadWorker@@UEAAXXZ@4HA 000000018004f690     pad_worker.obj
 0002:0001d6a0       $unwind$?Execute@SharpenWorker@@UEAAXXZ 000000018004f6a0     sharpen_worker.obj
 0002:0001d6b0       $stateUnwindMap$?Execute@SharpenWorker@@UEAAXXZ 000000018004f6b0     sharpen_worker.obj
 0002:0001d6c8       $tryMap$?Execute@SharpenWorker@@UEAAXXZ 000000018004f6c8     sharpen_worker.obj
 0002:0001d6dc       $handlerMap$0$?Execute@SharpenWorker@@UEAAXXZ 000000018004f6dc     sharpen_worker.obj
 0002:0001d6f0       $ip2state$?Execute@SharpenWorker@@UEAAXXZ 000000018004f6f0     sharpen_worker.obj
 0002:0001d728       $unwind$?catch$1@?0??Execute@SharpenWorker@@UEAAXXZ@4HA 000000018004f728     sharpen_worker.obj
 0002:0001d738       $unwind$?sharpen@?$CImg@E@cimg_library@@QEAAAEAU12@M_NMMM@Z 000000018004f738     sharpen_worker.obj
 0002:0001d788       $stateUnwindMap$?sharpen@?$CImg@E@cimg_library@@QEAAAEAU12@M_NMMM@Z 000000018004f788     sharpen_worker.obj
 0002:0001d838       $ip2state$?sharpen@?$CImg@E@cimg_library@@QEAAAEAU12@M_NMMM@Z 000000018004f838     sharpen_worker.obj
 0002:0001d860       $unwind$?max@?$CImg@M@cimg_library@@QEAAAEAMXZ 000000018004f860     sharpen_worker.obj
 0002:0001d868       $unwind$??$?YE@?$CImg@M@cimg_library@@QEAAAEAU01@AEBU?$CImg@E@1@@Z 000000018004f868     sharpen_worker.obj
 0002:0001d884       $stateUnwindMap$??$?YE@?$CImg@M@cimg_library@@QEAAAEAU01@AEBU?$CImg@E@1@@Z 000000018004f884     sharpen_worker.obj
 0002:0001d890       $ip2state$??$?YE@?$CImg@M@cimg_library@@QEAAAEAU01@AEBU?$CImg@E@1@@Z 000000018004f890     sharpen_worker.obj
 0002:0001d8a8       $unwind$?Execute@HSLAWorker@@UEAAXXZ 000000018004f8a8     hsla_worker.obj
 0002:0001d8d8       $unwind$?rgb_to_hsl@@YAXEEEPEAM00@Z 000000018004f8d8     hsla_worker.obj
 0002:0001d8e8       $chain$0$?rgb_to_hsl@@YAXEEEPEAM00@Z 000000018004f8e8     hsla_worker.obj
 0002:0001d8fc       $chain$1$?rgb_to_hsl@@YAXEEEPEAM00@Z 000000018004f8fc     hsla_worker.obj
 0002:0001d90c       $unwind$?hsl_to_rgb@@YAXMMMPEAE00@Z 000000018004f90c     hsla_worker.obj
 0002:0001d928       $unwind$?Execute@OpacifyWorker@@UEAAXXZ 000000018004f928     opacify_worker.obj
 0002:0001d938       $unwind$?SaveToPersistent@AsyncWorker@Nan@@QEAAXPEBDAEBV?$Local@VValue@v8@@@v8@@@Z 000000018004f938     paste_worker.obj
 0002:0001d950       $ip2state$?SaveToPersistent@AsyncWorker@Nan@@QEAAXPEBDAEBV?$Local@VValue@v8@@@v8@@@Z 000000018004f950     paste_worker.obj
 0002:0001d968       $unwind$?Execute@PasteWorker@@UEAAXXZ 000000018004f968     paste_worker.obj
 0002:0001d990       $stateUnwindMap$?Execute@PasteWorker@@UEAAXXZ 000000018004f990     paste_worker.obj
 0002:0001d9a8       $tryMap$?Execute@PasteWorker@@UEAAXXZ 000000018004f9a8     paste_worker.obj
 0002:0001d9bc       $handlerMap$0$?Execute@PasteWorker@@UEAAXXZ 000000018004f9bc     paste_worker.obj
 0002:0001d9d0       $ip2state$?Execute@PasteWorker@@UEAAXXZ 000000018004f9d0     paste_worker.obj
 0002:0001da08       $unwind$?catch$3@?0??Execute@PasteWorker@@UEAAXXZ@4HA 000000018004fa08     paste_worker.obj
 0002:0001da18       $unwind$?Execute@SetPixelWorker@@UEAAXXZ 000000018004fa18     setpixel_worker.obj
 0002:0001da20       xdata                      000000018004fa20     node:node.exe
 0002:0001da28       $xdatasym                  000000018004fa28     LIBCMT:_amdsecgs_.obj
 0002:0001da2c       $unwind$__scrt_is_nonwritable_in_current_image 000000018004fa2c     LIBCMT:utility.obj
 0002:0001da4c       $unwind$__scrt_is_nonwritable_in_current_image$filt$0 000000018004fa4c     LIBCMT:utility.obj
 0002:0001da54       $unwind$__scrt_initialize_onexit_tables 000000018004fa54     LIBCMT:utility.obj
 0002:0001da60       $unwind$?dllmain_crt_process_attach@@YAHQEAUHINSTANCE__@@QEAX@Z 000000018004fa60     LIBCMT:dll_dllmain.obj
 0002:0001da8c       $unwind$?dllmain_crt_process_detach@@YAH_N@Z 000000018004fa8c     LIBCMT:dll_dllmain.obj
 0002:0001dab4       $unwind$?dllmain_dispatch@@YAHQEAUHINSTANCE__@@KQEAX@Z 000000018004fab4     LIBCMT:dll_dllmain.obj
 0002:0001dadc       $unwind$?filt$0@?0??dllmain_dispatch@@YAHQEAUHINSTANCE__@@KQEAX@Z@4HA 000000018004fadc     LIBCMT:dll_dllmain.obj
 0002:0001dae4       $unwind$__report_securityfailure 000000018004fae4     LIBCMT:gs_report.obj
 0002:0001daec       $unwind$_putwch_nolock     000000018004faec     libucrt:putwch.obj
 0002:0001daec       $unwind$__report_gsfailure 000000018004faec     LIBCMT:gs_report.obj
 0002:0001daf4       $unwind$capture_current_context 000000018004faf4     LIBCMT:gs_report.obj
 0002:0001db00       $unwind$capture_previous_context 000000018004fb00     LIBCMT:gs_report.obj
 0002:0001db0c       $unwind$__scrt_fastfail    000000018004fb0c     LIBCMT:utility_desktop.obj
 0002:0001db1c       $unwind$__isa_available_init 000000018004fb1c     LIBCMT:_cpu_disp_.obj
 0002:0001db2c       $unwind$__security_init_cookie 000000018004fb2c     LIBCMT:gs_support.obj
 0002:0001db38       $xdatasym                  000000018004fb38     LIBCMT:_guard_dispatch_.obj
 0002:0001db3c       $unwind$__CxxCallCatchBlock 000000018004fb3c     libvcruntime:frame.obj
 0002:0001db78       $unwind$__CxxCallCatchBlock$fin$1 000000018004fb78     libvcruntime:frame.obj
 0002:0001db84       $unwind$__FrameUnwindToState 000000018004fb84     libvcruntime:frame.obj
 0002:0001dbc0       $unwind$?FindHandler@@YAXPEAUEHExceptionRecord@@PEA_KPEAU_CONTEXT@@PEAU_xDISPATCHER_CONTEXT@@PEBU_s_FuncInfo@@EH1@Z 000000018004fbc0     libvcruntime:frame.obj
 0002:0001dbe0       $unwind$?CatchIt@@YAXPEAUEHExceptionRecord@@PEA_KPEAU_CONTEXT@@PEAU_xDISPATCHER_CONTEXT@@PEBU_s_FuncInfo@@PEBU_s_HandlerType@@PEBU_s_CatchableType@@PEBU_s_TryBlockMapEntry@@H1EE@Z 000000018004fbe0     libvcruntime:frame.obj
 0002:0001dbf8       $unwind$__BuildCatchObject 000000018004fbf8     libvcruntime:frame.obj
 0002:0001dc24       $unwind$?FindHandlerForForeignException@@YAXPEAUEHExceptionRecord@@PEA_KPEAU_CONTEXT@@PEAU_xDISPATCHER_CONTEXT@@PEBU_s_FuncInfo@@HH1@Z 000000018004fc24     libvcruntime:frame.obj
 0002:0001dc3c       $unwind$__DestructExceptionObject 000000018004fc3c     libvcruntime:frame.obj
 0002:0001dc60       $unwind$__C_specific_handler 000000018004fc60     libvcruntime:_chandler_.obj
 0002:0001dc60       $unwind$__InternalCxxFrameHandler 000000018004fc60     libvcruntime:frame.obj
 0002:0001dc7c       $unwind$__BuildCatchObjectHelper 000000018004fc7c     libvcruntime:frame.obj
 0002:0001dcc0       $xdatasym                  000000018004fcc0     libvcruntime:memcpy.obj
 0002:0001dcc4       $unwind$_CxxThrowException 000000018004fcc4     libvcruntime:throw.obj
 0002:0001dcd8       $unwind$__acrt_stdio_end_temporary_buffering_nolock 000000018004fcd8     libucrt:_sftbuf.obj
 0002:0001dcd8       $unwind$__vcrt_uninitialize_winapi_thunks 000000018004fcd8     libvcruntime:winapi_downlevel.obj
 0002:0001dce0       $xdatasym                  000000018004fce0     libvcruntime:memset.obj
 0002:0001dce8       $xdatasym                  000000018004fce8     libvcruntime:handlers.obj
 0002:0001dcf0       $unwind$?_GetEstablisherFrame@@YAPEA_KPEA_KPEAU_xDISPATCHER_CONTEXT@@PEBU_s_FuncInfo@@0@Z 000000018004fcf0     libvcruntime:trnsctrl.obj
 0002:0001dd08       $unwind$?__FrameUnwindToEmptyState@@YAXPEA_KPEAU_xDISPATCHER_CONTEXT@@PEBU_s_FuncInfo@@@Z 000000018004fd08     libvcruntime:trnsctrl.obj
 0002:0001dd1c       $unwind$_CallSETranslator  000000018004fd1c     libvcruntime:trnsctrl.obj
 0002:0001dd40       $unwind$?write_string@?$string_output_adapter@D@__crt_stdio_output@@QEBAXQEBDHQEAH1@Z 000000018004fd40     libucrt:output.obj
 0002:0001dd40       $unwind$??$parse_command_line@D@@YAXPEADPEAPEAD0PEA_K2@Z 000000018004fd40     libucrt:argv_parsing.obj
 0002:0001dd40       $unwind$?_GetRangeOfTrysToCheck@@YAPEBU_s_TryBlockMapEntry@@PEA_KPEBU_s_FuncInfo@@HHPEAI2PEAU_xDISPATCHER_CONTEXT@@@Z 000000018004fd40     libvcruntime:trnsctrl.obj
 0002:0001dd40       $unwind$??R<lambda_4e60a939b0d047cfe11ddc22648dfba9>@@QEBAHXZ 000000018004fd40     libucrt:onexit.obj
 0002:0001dd5c       $unwind$_UnwindNestedFrames 000000018004fd5c     libvcruntime:trnsctrl.obj
 0002:0001dd70       $xdatasym                  000000018004fd70     libvcruntime:_jmpuwind_.obj
 0002:0001dd84       $unwind$??$common_fsopen@D@@YAPEAU_iobuf@@QEBD0H@Z 000000018004fd84     libucrt:fopen.obj
 0002:0001ddac       $unwind$fclose             000000018004fdac     libucrt:fclose.obj
 0002:0001ddd0       $unwind$__stdio_common_vfwprintf 000000018004fdd0     libucrt:output.obj
 0002:0001ddd0       $unwind$__stdio_common_vfprintf 000000018004fdd0     libucrt:output.obj
 0002:0001ddd8       $unwind$__stdio_common_vsprintf 000000018004fdd8     libucrt:output.obj
 0002:0001ddd8       $unwind$__stdio_common_vswprintf 000000018004fdd8     libucrt:output.obj
 0002:0001ddfc       $unwind$__stdio_common_vsnprintf_s 000000018004fdfc     libucrt:output.obj
 0002:0001de14       $unwind$?parse_int_from_format_string@?$output_processor@DV?$string_output_adapter@D@__crt_stdio_output@@V?$format_validation_base@DV?$string_output_adapter@D@__crt_stdio_output@@@2@@__crt_stdio_output@@AEAA_NQEAH@Z 000000018004fe14     libucrt:output.obj
 0002:0001de14       $unwind$?parse_int_from_format_string@?$output_processor@DV?$stream_output_adapter@D@__crt_stdio_output@@V?$standard_base@DV?$stream_output_adapter@D@__crt_stdio_output@@@2@@__crt_stdio_output@@AEAA_NQEAH@Z 000000018004fe14     libucrt:output.obj
 0002:0001de14       $unwind$?parse_int_from_format_string@?$output_processor@DV?$string_output_adapter@D@__crt_stdio_output@@V?$standard_base@DV?$string_output_adapter@D@__crt_stdio_output@@@2@@__crt_stdio_output@@AEAA_NQEAH@Z 000000018004fe14     libucrt:output.obj
 0002:0001de28       $unwind$?type_case_a@?$output_processor@DV?$string_output_adapter@D@__crt_stdio_output@@V?$standard_base@DV?$string_output_adapter@D@__crt_stdio_output@@@2@@__crt_stdio_output@@AEAA_NXZ 000000018004fe28     libucrt:output.obj
 0002:0001de28       $unwind$?type_case_a@?$output_processor@DV?$stream_output_adapter@D@__crt_stdio_output@@V?$standard_base@DV?$stream_output_adapter@D@__crt_stdio_output@@@2@@__crt_stdio_output@@AEAA_NXZ 000000018004fe28     libucrt:output.obj
 0002:0001de28       $unwind$?type_case_a@?$output_processor@DV?$string_output_adapter@D@__crt_stdio_output@@V?$format_validation_base@DV?$string_output_adapter@D@__crt_stdio_output@@@2@@__crt_stdio_output@@AEAA_NXZ 000000018004fe28     libucrt:output.obj
 0002:0001de34       $unwind$?write_stored_string_tchar@?$output_processor@DV?$string_output_adapter@D@__crt_stdio_output@@V?$standard_base@DV?$string_output_adapter@D@__crt_stdio_output@@@2@@__crt_stdio_output@@AEAA_ND@Z 000000018004fe34     libucrt:output.obj
 0002:0001de34       $unwind$?write_stored_string_tchar@?$output_processor@DV?$string_output_adapter@D@__crt_stdio_output@@V?$format_validation_base@DV?$string_output_adapter@D@__crt_stdio_output@@@2@@__crt_stdio_output@@AEAA_ND@Z 000000018004fe34     libucrt:output.obj
 0002:0001de34       $unwind$?write_stored_string_tchar@?$output_processor@DV?$stream_output_adapter@D@__crt_stdio_output@@V?$standard_base@DV?$stream_output_adapter@D@__crt_stdio_output@@@2@@__crt_stdio_output@@AEAA_ND@Z 000000018004fe34     libucrt:output.obj
 0002:0001de4c       $unwind$?write_string@?$stream_output_adapter@_W@__crt_stdio_output@@QEBAXQEB_WHQEAH1@Z 000000018004fe4c     libucrt:output.obj
 0002:0001de64       $unwind$?process@?$output_processor@_WV?$stream_output_adapter@_W@__crt_stdio_output@@V?$standard_base@_WV?$stream_output_adapter@_W@__crt_stdio_output@@@2@@__crt_stdio_output@@QEAAHXZ 000000018004fe64     libucrt:output.obj
 0002:0001de7c       $unwind$?state_case_type@?$output_processor@_WV?$string_output_adapter@_W@__crt_stdio_output@@V?$standard_base@_WV?$string_output_adapter@_W@__crt_stdio_output@@@2@@__crt_stdio_output@@AEAA_NXZ 000000018004fe7c     libucrt:output.obj
 0002:0001de7c       $unwind$?state_case_type@?$output_processor@_WV?$stream_output_adapter@_W@__crt_stdio_output@@V?$standard_base@_WV?$stream_output_adapter@_W@__crt_stdio_output@@@2@@__crt_stdio_output@@AEAA_NXZ 000000018004fe7c     libucrt:output.obj
 0002:0001dea0       $unwind$?write_stored_string_tchar@?$output_processor@_WV?$stream_output_adapter@_W@__crt_stdio_output@@V?$standard_base@_WV?$stream_output_adapter@_W@__crt_stdio_output@@@2@@__crt_stdio_output@@AEAA_N_W@Z 000000018004fea0     libucrt:output.obj
 0002:0001deb4       $unwind$??R<lambda_dd75445284c072d0bd3768540cc698fa>@@QEBAHXZ 000000018004feb4     libucrt:output.obj
 0002:0001deb4       $unwind$??R<lambda_0a64b6a4deda75c01876f29c44fc5eb3>@@QEBAHXZ 000000018004feb4     libucrt:output.obj
 0002:0001ded0       $unwind$?process@?$output_processor@DV?$string_output_adapter@D@__crt_stdio_output@@V?$standard_base@DV?$string_output_adapter@D@__crt_stdio_output@@@2@@__crt_stdio_output@@QEAAHXZ 000000018004fed0     libucrt:output.obj
 0002:0001ded0       $unwind$?process@?$output_processor@DV?$stream_output_adapter@D@__crt_stdio_output@@V?$standard_base@DV?$stream_output_adapter@D@__crt_stdio_output@@@2@@__crt_stdio_output@@QEAAHXZ 000000018004fed0     libucrt:output.obj
 0002:0001dee0       $unwind$?parse_int_from_format_string@?$output_processor@_WV?$string_output_adapter@_W@__crt_stdio_output@@V?$standard_base@_WV?$string_output_adapter@_W@__crt_stdio_output@@@2@@__crt_stdio_output@@AEAA_NQEAH@Z 000000018004fee0     libucrt:output.obj
 0002:0001dee0       $unwind$?parse_int_from_format_string@?$output_processor@_WV?$stream_output_adapter@_W@__crt_stdio_output@@V?$standard_base@_WV?$stream_output_adapter@_W@__crt_stdio_output@@@2@@__crt_stdio_output@@AEAA_NQEAH@Z 000000018004fee0     libucrt:output.obj
 0002:0001def4       $unwind$?type_case_a@?$output_processor@_WV?$stream_output_adapter@_W@__crt_stdio_output@@V?$standard_base@_WV?$stream_output_adapter@_W@__crt_stdio_output@@@2@@__crt_stdio_output@@AEAA_NXZ 000000018004fef4     libucrt:output.obj
 0002:0001def4       $unwind$?type_case_a@?$output_processor@_WV?$string_output_adapter@_W@__crt_stdio_output@@V?$standard_base@_WV?$string_output_adapter@_W@__crt_stdio_output@@@2@@__crt_stdio_output@@AEAA_NXZ 000000018004fef4     libucrt:output.obj
 0002:0001df04       $unwind$?write_stored_string_tchar@?$output_processor@_WV?$string_output_adapter@_W@__crt_stdio_output@@V?$standard_base@_WV?$string_output_adapter@_W@__crt_stdio_output@@@2@@__crt_stdio_output@@AEAA_N_W@Z 000000018004ff04     libucrt:output.obj
 0002:0001df18       $unwind$??$common_vsprintf@Vformat_validation_base@__crt_stdio_output@@D@@YAH_KQEAD0QEBDQEAU__crt_locale_pointers@@1@Z 000000018004ff18     libucrt:output.obj
 0002:0001df38       $unwind$??$write_multiple_characters@V?$stream_output_adapter@D@__crt_stdio_output@@D@__crt_stdio_output@@YAXAEBV?$stream_output_adapter@D@0@DHQEAH@Z 000000018004ff38     libucrt:output.obj
 0002:0001df50       $unwind$??$write_multiple_characters@V?$stream_output_adapter@_W@__crt_stdio_output@@D@__crt_stdio_output@@YAXAEBV?$stream_output_adapter@_W@0@DHQEAH@Z 000000018004ff50     libucrt:output.obj
 0002:0001df68       $unwind$??$write_multiple_characters@V?$string_output_adapter@_W@__crt_stdio_output@@D@__crt_stdio_output@@YAXAEBV?$string_output_adapter@_W@0@DHQEAH@Z 000000018004ff68     libucrt:output.obj
 0002:0001df74       $unwind$??$write_multiple_characters@V?$string_output_adapter@D@__crt_stdio_output@@D@__crt_stdio_output@@YAXAEBV?$string_output_adapter@D@0@DHQEAH@Z 000000018004ff74     libucrt:output.obj
 0002:0001df74       $unwind$??$type_case_integer_parse_into_buffer@I@?$output_processor@DV?$stream_output_adapter@D@__crt_stdio_output@@V?$standard_base@DV?$stream_output_adapter@D@__crt_stdio_output@@@2@@__crt_stdio_output@@AEAAXII_N@Z 000000018004ff74     libucrt:output.obj
 0002:0001df74       $unwind$??$type_case_integer_parse_into_buffer@_K@?$output_processor@DV?$stream_output_adapter@D@__crt_stdio_output@@V?$standard_base@DV?$stream_output_adapter@D@__crt_stdio_output@@@2@@__crt_stdio_output@@AEAAX_KI_N@Z 000000018004ff74     libucrt:output.obj
 0002:0001df74       $unwind$??$type_case_integer_parse_into_buffer@_K@?$output_processor@_WV?$stream_output_adapter@_W@__crt_stdio_output@@V?$standard_base@_WV?$stream_output_adapter@_W@__crt_stdio_output@@@2@@__crt_stdio_output@@AEAAX_KI_N@Z 000000018004ff74     libucrt:output.obj
 0002:0001df74       $unwind$??$type_case_integer_parse_into_buffer@I@?$output_processor@_WV?$stream_output_adapter@_W@__crt_stdio_output@@V?$standard_base@_WV?$stream_output_adapter@_W@__crt_stdio_output@@@2@@__crt_stdio_output@@AEAAXII_N@Z 000000018004ff74     libucrt:output.obj
 0002:0001df74       $unwind$??$type_case_integer_parse_into_buffer@I@?$output_processor@_WV?$string_output_adapter@_W@__crt_stdio_output@@V?$standard_base@_WV?$string_output_adapter@_W@__crt_stdio_output@@@2@@__crt_stdio_output@@AEAAXII_N@Z 000000018004ff74     libucrt:output.obj
 0002:0001df74       $unwind$??$type_case_integer_parse_into_buffer@_K@?$output_processor@DV?$string_output_adapter@D@__crt_stdio_output@@V?$format_validation_base@DV?$string_output_adapter@D@__crt_stdio_output@@@2@@__crt_stdio_output@@AEAAX_KI_N@Z 000000018004ff74     libucrt:output.obj
 0002:0001df74       $unwind$??$type_case_integer_parse_into_buffer@I@?$output_processor@DV?$string_output_adapter@D@__crt_stdio_output@@V?$format_validation_base@DV?$string_output_adapter@D@__crt_stdio_output@@@2@@__crt_stdio_output@@AEAAXII_N@Z 000000018004ff74     libucrt:output.obj
 0002:0001df74       $unwind$??$type_case_integer_parse_into_buffer@_K@?$output_processor@_WV?$string_output_adapter@_W@__crt_stdio_output@@V?$standard_base@_WV?$string_output_adapter@_W@__crt_stdio_output@@@2@@__crt_stdio_output@@AEAAX_KI_N@Z 000000018004ff74     libucrt:output.obj
 0002:0001df74       $unwind$??$type_case_integer_parse_into_buffer@_K@?$output_processor@DV?$string_output_adapter@D@__crt_stdio_output@@V?$standard_base@DV?$string_output_adapter@D@__crt_stdio_output@@@2@@__crt_stdio_output@@AEAAX_KI_N@Z 000000018004ff74     libucrt:output.obj
 0002:0001df74       $unwind$??$type_case_integer_parse_into_buffer@I@?$output_processor@DV?$string_output_adapter@D@__crt_stdio_output@@V?$standard_base@DV?$string_output_adapter@D@__crt_stdio_output@@@2@@__crt_stdio_output@@AEAAXII_N@Z 000000018004ff74     libucrt:output.obj
 0002:0001df7c       $unwind$??$?RV<lambda_aa279a7bcb127014629d5b1d62c7325d>@@AEAV<lambda_0a64b6a4deda75c01876f29c44fc5eb3>@@V<lambda_3323e69fbefe9d1a11713e670d47cdfa>@@@?$__crt_seh_guarded_call@H@@QEAAH$$QEAV<lambda_aa279a7bcb127014629d5b1d62c7325d>@@AEAV<lambda_0a64b6a4deda75c01876f29c44fc5eb3>@@$$QEAV<lambda_3323e69fbefe9d1a11713e670d47cdfa>@@@Z 000000018004ff7c     libucrt:output.obj
 0002:0001dfa0       $unwind$??$?RV<lambda_7b91131dde12e1c3dfc74ff76b3f2eac>@@AEAV<lambda_dd75445284c072d0bd3768540cc698fa>@@V<lambda_16bc4ecb55b4718497c16bceaea2ceaf>@@@?$__crt_seh_guarded_call@H@@QEAAH$$QEAV<lambda_7b91131dde12e1c3dfc74ff76b3f2eac>@@AEAV<lambda_dd75445284c072d0bd3768540cc698fa>@@$$QEAV<lambda_16bc4ecb55b4718497c16bceaea2ceaf>@@@Z 000000018004ffa0     libucrt:output.obj
 0002:0001dfc8       $xdatasym                  000000018004ffc8     libucrt:strncpy.obj
 0002:0001dfcc       $unwind$??$common_assert_to_stderr@_W@@YAXQEB_W0I@Z 000000018004ffcc     libucrt:assert.obj
 0002:0001dfe8       $unwind$??$common_assert_to_message_box@_W@@YAXQEB_W0IQEAX@Z 000000018004ffe8     libucrt:assert.obj
 0002:0001e004       $unwind$??$common_assert_to_message_box_build_string@_W@@YAXQEA_W_KQEB_W2IQEAX@Z 0000000180050004     libucrt:assert.obj
 0002:0001e024       $unwind$??$common_getenv@D@@YAPEADQEBD@Z 0000000180050024     libucrt:getenv.obj
 0002:0001e044       $unwind$__acrt_call_reportfault 0000000180050044     libucrt:invalid_parameter.obj
 0002:0001e064       $unwind$_invalid_parameter 0000000180050064     libucrt:invalid_parameter.obj
 0002:0001e07c       $unwind$?x_ismbbtype_l@@YAHPEAU__crt_locale_pointers@@IHH@Z 000000018005007c     libucrt:ismbbyte.obj
 0002:0001e07c       $unwind$_stricmp_l         000000018005007c     libucrt:stricmp.obj
 0002:0001e08c       $unwind$terminate          000000018005008c     libucrt:terminate.obj
 0002:0001e0ac       $unwind$_query_new_handler 00000001800500ac     libucrt:new_handler.obj
 0002:0001e0cc       $unwind$?common_exit@@YAXHW4_crt_exit_cleanup_mode@@W4_crt_exit_return_mode@@@Z 00000001800500cc     libucrt:exit.obj
 0002:0001e10c       $unwind$_configure_narrow_argv 000000018005010c     libucrt:argv_parsing.obj
 0002:0001e120       $unwind$??$initialize_environment_by_cloning_nolock@D@@YAHXZ 0000000180050120     libucrt:environment_initialization.obj
 0002:0001e130       $unwind$_register_onexit_function 0000000180050130     libucrt:onexit.obj
 0002:0001e138       $unwind$_execute_onexit_table 0000000180050138     libucrt:onexit.obj
 0002:0001e140       $unwind$??$?RV<lambda_b8c45f8f788dd370798f47cfe8ac3a86>@@AEAV<lambda_4e60a939b0d047cfe11ddc22648dfba9>@@V<lambda_332c3edc96d0294ec56c57d38c1cdfd5>@@@?$__crt_seh_guarded_call@H@@QEAAH$$QEAV<lambda_b8c45f8f788dd370798f47cfe8ac3a86>@@AEAV<lambda_4e60a939b0d047cfe11ddc22648dfba9>@@$$QEAV<lambda_332c3edc96d0294ec56c57d38c1cdfd5>@@@Z 0000000180050140     libucrt:onexit.obj
 0002:0001e164       $unwind$??$?RV<lambda_e24bbb7b643b32fcea6fa61b31d4c984>@@AEAV<lambda_275893d493268fdec8709772e3fcec0e>@@V<lambda_9d71df4d7cf3f480f8d633942495c3b0>@@@?$__crt_seh_guarded_call@H@@QEAAH$$QEAV<lambda_e24bbb7b643b32fcea6fa61b31d4c984>@@AEAV<lambda_275893d493268fdec8709772e3fcec0e>@@$$QEAV<lambda_9d71df4d7cf3f480f8d633942495c3b0>@@@Z 0000000180050164     libucrt:onexit.obj
 0002:0001e194       $unwind$__GSHandlerCheck_EH 0000000180050194     LIBCMT:gshandlereh.obj
 0002:0001e194       $unwind$__TypeMatch        0000000180050194     libvcruntime:frame.obj
 0002:0001e194       $unwind$__acrt_initialize_stdio 0000000180050194     libucrt:_file.obj
 0002:0001e194       $unwind$__acrt_MessageBoxW 0000000180050194     libucrt:winapi_thunks.obj
 0002:0001e194       $unwind$_initterm          0000000180050194     libucrt:initterm.obj
 0002:0001e194       $unwind$?process@?$output_processor@_WV?$string_output_adapter@_W@__crt_stdio_output@@V?$standard_base@_WV?$string_output_adapter@_W@__crt_stdio_output@@@2@@__crt_stdio_output@@QEAAHXZ 0000000180050194     libucrt:output.obj
 0002:0001e194       $unwind$__acrt_lowio_set_os_handle 0000000180050194     libucrt:osfinfo.obj
 0002:0001e1ac       $unwind$??$parse_integer@KV?$c_string_character_source@D@__crt_strtox@@@__crt_strtox@@YAKQEAU__crt_locale_pointers@@V?$c_string_character_source@D@0@H_N@Z 00000001800501ac     libucrt:atox.obj
 0002:0001e1c8       $unwind$??$parse_integer@KV?$c_string_character_source@_W@__crt_strtox@@@__crt_strtox@@YAKQEAU__crt_locale_pointers@@V?$c_string_character_source@_W@0@H_N@Z 00000001800501c8     libucrt:atox.obj
 0002:0001e1e4       $unwind$?construct_ptd_array@@YAXQEAU__acrt_ptd@@@Z 00000001800501e4     libucrt:per_thread_data.obj
 0002:0001e1ec       $unwind$?destroy_ptd_array@@YAXQEAU__acrt_ptd@@@Z 00000001800501ec     libucrt:per_thread_data.obj
 0002:0001e1f4       $unwind$??$?RV<lambda_72d1df2b273a38828b1ce30cbf4cdab5>@@AEAV<lambda_876a65b173b8412d3a47c70a915b0cf4>@@V<lambda_41932305e351933ebe8f8be3ed8bb5dc>@@@?$__crt_seh_guarded_call@X@@QEAAX$$QEAV<lambda_72d1df2b273a38828b1ce30cbf4cdab5>@@AEAV<lambda_876a65b173b8412d3a47c70a915b0cf4>@@$$QEAV<lambda_41932305e351933ebe8f8be3ed8bb5dc>@@@Z 00000001800501f4     libucrt:per_thread_data.obj
 0002:0001e218       $unwind$??$?RV<lambda_5e887d1dcbef67a5eb4283622ba103bf>@@AEAV<lambda_4466841279450cc726390878d4a41900>@@V<lambda_341c25c0346d94847f1f3c463c57e077>@@@?$__crt_seh_guarded_call@X@@QEAAX$$QEAV<lambda_5e887d1dcbef67a5eb4283622ba103bf>@@AEAV<lambda_4466841279450cc726390878d4a41900>@@$$QEAV<lambda_341c25c0346d94847f1f3c463c57e077>@@@Z 0000000180050218     libucrt:per_thread_data.obj
 0002:0001e23c       $unwind$??$?RV<lambda_46352004c1216016012b18bd6f87e700>@@AEAV<lambda_3bd07e1a1191394380780325891bf33f>@@V<lambda_334532d3f185bcaa59b5be82d7d22bff>@@@?$__crt_seh_guarded_call@X@@QEAAX$$QEAV<lambda_46352004c1216016012b18bd6f87e700>@@AEAV<lambda_3bd07e1a1191394380780325891bf33f>@@$$QEAV<lambda_334532d3f185bcaa59b5be82d7d22bff>@@@Z 000000018005023c     libucrt:per_thread_data.obj
 0002:0001e260       $unwind$??$?RV<lambda_fb3a7dec4e47f37f22dae91bb15c9095>@@AEAV<lambda_698284760c8add0bfb0756c19673e34b>@@V<lambda_dfb8eca1e75fef3034a8fb18dd509707>@@@?$__crt_seh_guarded_call@X@@QEAAX$$QEAV<lambda_fb3a7dec4e47f37f22dae91bb15c9095>@@AEAV<lambda_698284760c8add0bfb0756c19673e34b>@@$$QEAV<lambda_dfb8eca1e75fef3034a8fb18dd509707>@@@Z 0000000180050260     libucrt:per_thread_data.obj
 0002:0001e284       $unwind$?__acrt_stdio_allocate_stream@@YA?AV__crt_stdio_stream@@XZ 0000000180050284     libucrt:stream.obj
 0002:0001e2a4       $unwind$_openfile          00000001800502a4     libucrt:openfile.obj
 0002:0001e2b8       $unwind$__acrt_initialize_winapi_thunks 00000001800502b8     libucrt:winapi_thunks.obj
 0002:0001e2c0       $unwind$__acrt_is_interactive 00000001800502c0     libucrt:winapi_thunks.obj
 0002:0001e2d4       $unwind$iswctype           00000001800502d4     libucrt:iswctype.obj
 0002:0001e2d4       $unwind$__acrt_is_packaged_app 00000001800502d4     libucrt:winapi_thunks.obj
 0002:0001e2e0       $unwind$?IsInExceptionSpec@@YAEPEAUEHExceptionRecord@@PEBU_s_ESTypeList@@@Z 00000001800502e0     libvcruntime:frame.obj
 0002:0001e2e0       $unwind$?try_get_function@@YAPEAXW4function_id@?A0x679b24ab@@QEBDQEBW4module_id@2@2@Z 00000001800502e0     libvcruntime:winapi_downlevel.obj
 0002:0001e2e0       $unwind$?try_get_function@@YAPEAXW4function_id@?A0x63058377@@QEBDQEBW4module_id@2@2@Z 00000001800502e0     libucrt:winapi_thunks.obj
 0002:0001e2e0       $unwind$?write_string@?$string_output_adapter@_W@__crt_stdio_output@@QEBAXQEB_WHQEAH1@Z 00000001800502e0     libucrt:output.obj
 0002:0001e2fc       $unwind$_fcloseall         00000001800502fc     libucrt:closeall.obj
 0002:0001e320       $unwind$fflush             0000000180050320     libucrt:fflush.obj
 0002:0001e344       $unwind$common_flush_all   0000000180050344     libucrt:fflush.obj
 0002:0001e380       $unwind$__acrt_initialize_lowio 0000000180050380     libucrt:ioinit.obj
 0002:0001e3a0       $unwind$?initialize_inherited_file_handles_nolock@@YAXXZ 00000001800503a0     libucrt:ioinit.obj
 0002:0001e3bc       $unwind$_close             00000001800503bc     libucrt:close.obj
 0002:0001e3bc       $unwind$_commit            00000001800503bc     libucrt:commit.obj
 0002:0001e3c4       $unwind$??$?RV<lambda_bfedae4ebbf01fab1bb6dcc6a9e276e0>@@AEAV<lambda_2fe9b910cf3cbf4a0ab98a02ba45b3ec>@@V<lambda_237c231691f317818eb88cc1d5d642d6>@@@?$__crt_seh_guarded_call@H@@QEAAH$$QEAV<lambda_bfedae4ebbf01fab1bb6dcc6a9e276e0>@@AEAV<lambda_2fe9b910cf3cbf4a0ab98a02ba45b3ec>@@$$QEAV<lambda_237c231691f317818eb88cc1d5d642d6>@@@Z 00000001800503c4     libucrt:close.obj
 0002:0001e3e8       $unwind$__acrt_copy_path_to_wide_string 00000001800503e8     libucrt:string_utilities.obj
 0002:0001e3e8       $unwind$??$create_environment@D@@YAQEAPEADQEAD@Z 00000001800503e8     libucrt:environment_initialization.obj
 0002:0001e400       $unwind$_tolower_l         0000000180050400     libucrt:tolower_toupper.obj
 0002:0001e410       $unwind$__acrt_LCMapStringEx 0000000180050410     libucrt:winapi_thunks.obj
 0002:0001e410       $unwind$__acrt_CompareStringEx 0000000180050410     libucrt:winapi_thunks.obj
 0002:0001e410       $unwind$_mbtowc_l          0000000180050410     libucrt:mbtowc.obj
 0002:0001e410       $unwind$__acrt_show_wide_message_box 0000000180050410     libucrt:crtmbox.obj
 0002:0001e428       $unwind$_wctomb_s_l        0000000180050428     libucrt:wctomb.obj
 0002:0001e438       $unwind$strnlen            0000000180050438     libucrt:strnlen.obj
 0002:0001e438       $unwind$wcsnlen            0000000180050438     libucrt:strnlen.obj
 0002:0001e440       $unwind$__acrt_fp_format   0000000180050440     libucrt:cvt.obj
 0002:0001e45c       $unwind$?fp_format_nan_or_infinity@@YAHW4__acrt_fp_class@@_NPEAD_K1@Z 000000018005045c     libucrt:cvt.obj
 0002:0001e470       $unwind$?fp_format_e_internal@@YAHQEAD_KH_NIQEAU_strflt@@2QEAU__crt_locale_pointers@@@Z 0000000180050470     libucrt:cvt.obj
 0002:0001e488       $unwind$_sopen_nolock      0000000180050488     libucrt:open.obj
 0002:0001e488       $unwind$?fp_format_e@@YAHQEBNQEAD_K12H_NIQEAU__crt_locale_pointers@@@Z 0000000180050488     libucrt:cvt.obj
 0002:0001e49c       $unwind$?fp_format_a@@YAHQEBNPEAD_KQEAD2H_NIQEAU__crt_locale_pointers@@@Z 000000018005049c     libucrt:cvt.obj
 0002:0001e4b8       $unwind$__dcrt_get_narrow_environment_from_os 00000001800504b8     libucrt:get_environment_from_os.obj
 0002:0001e4b8       $unwind$?fp_format_f_internal@@YAHQEAD_KHQEAU_strflt@@_NQEAU__crt_locale_pointers@@@Z 00000001800504b8     libucrt:cvt.obj
 0002:0001e4d0       $unwind$?fp_format_g@@YAHQEBNQEAD_K12H_NIQEAU__crt_locale_pointers@@@Z 00000001800504d0     libucrt:cvt.obj
 0002:0001e4e4       $unwind$_fputwc_nolock     00000001800504e4     libucrt:fputwc.obj
 0002:0001e500       $unwind$__acrt_uninitialize_locale 0000000180050500     libucrt:wsetlocale.obj
 0002:0001e520       $unwind$setvbuf            0000000180050520     libucrt:setvbuf.obj
 0002:0001e528       $unwind$??$?RV<lambda_7a5ef57ff966f610505f1d28a3d40618>@@AEAV<lambda_b721fa326cdb32351d23dfa67958c160>@@V<lambda_5e0fb27672408a07956fe59e48ccb2aa>@@@?$__crt_seh_guarded_call@H@@QEAAH$$QEAV<lambda_7a5ef57ff966f610505f1d28a3d40618>@@AEAV<lambda_b721fa326cdb32351d23dfa67958c160>@@$$QEAV<lambda_5e0fb27672408a07956fe59e48ccb2aa>@@@Z 0000000180050528     libucrt:setvbuf.obj
 0002:0001e54c       $unwind$__acrt_get_sigabrt_handler 000000018005054c     libucrt:signal.obj
 0002:0001e554       $unwind$raise              0000000180050554     libucrt:signal.obj
 0002:0001e580       $unwind$??$?RV<lambda_c36588078e9f5dfd39652860aa6b3aaf>@@AEAV<lambda_ec61778202f4f5fc7e7711acc23c3bca>@@V<lambda_dc9d2797ccde5d239b4a0efae8ebd7db>@@@?$__crt_seh_guarded_call@P6AXH@Z@@QEAAP6AXH@Z$$QEAV<lambda_c36588078e9f5dfd39652860aa6b3aaf>@@AEAV<lambda_ec61778202f4f5fc7e7711acc23c3bca>@@$$QEAV<lambda_dc9d2797ccde5d239b4a0efae8ebd7db>@@@Z 0000000180050580     libucrt:signal.obj
 0002:0001e5a4       $unwind$_strnicoll_l       00000001800505a4     libucrt:strnicol.obj
 0002:0001e5b8       $unwind$??$common_expand_argv_wildcards@D@@YAHQEAPEADQEAPEAPEAD@Z 00000001800505b8     libucrt:argv_wildcards.obj
 0002:0001e5d0       $unwind$??$copy_and_add_argument_to_buffer@D@@YAHQEBD0_KAEAV?$argument_list@D@?A0xca0879c4@@@Z 00000001800505d0     libucrt:argv_wildcards.obj
 0002:0001e5ec       $unwind$??$expand_argument_wildcards@D@@YAHQEAD0AEAV?$argument_list@D@?A0xca0879c4@@@Z 00000001800505ec     libucrt:argv_wildcards.obj
 0002:0001e60c       $unwind$__acrt_update_thread_multibyte_data 000000018005060c     libucrt:mbctype.obj
 0002:0001e630       $unwind$_setmbcp_nolock    0000000180050630     libucrt:mbctype.obj
 0002:0001e650       $unwind$?setSBUpLow@@YAXPEAU__crt_multibyte_data@@@Z 0000000180050650     libucrt:mbctype.obj
 0002:0001e66c       $unwind$?setmbcp_internal@@YAHH_N@Z 000000018005066c     libucrt:mbctype.obj
 0002:0001e67c       $unwind$??$?RV<lambda_99476a1ad63dd22509b5d3e65b0ffc95>@@AEAV<lambda_ad1ced32f4ac17aa236e5ef05d6b3b7c>@@V<lambda_f7424dd8d45958661754dc4f2697e9c3>@@@?$__crt_seh_guarded_call@X@@QEAAX$$QEAV<lambda_99476a1ad63dd22509b5d3e65b0ffc95>@@AEAV<lambda_ad1ced32f4ac17aa236e5ef05d6b3b7c>@@$$QEAV<lambda_f7424dd8d45958661754dc4f2697e9c3>@@@Z 000000018005067c     libucrt:mbctype.obj
 0002:0001e6a0       $unwind$??$common_set_variable_in_environment_nolock@D@@YAHQEADH@Z 00000001800506a0     libucrt:setenv.obj
 0002:0001e6b8       $unwind$??$copy_environment@D@@YAPEAPEADQEAPEAD@Z 00000001800506b8     libucrt:setenv.obj
 0002:0001e6cc       $unwind$__acrt_InitializeCriticalSectionEx 00000001800506cc     libucrt:winapi_thunks.obj
 0002:0001e6cc       $unwind$__vcrt_InitializeCriticalSectionEx 00000001800506cc     libvcruntime:winapi_downlevel.obj
 0002:0001e6cc       $unwind$_wassert           00000001800506cc     libucrt:assert.obj
 0002:0001e6cc       $unwind$??$ensure_buffer_is_big_enough@D@formatting_buffer@__crt_stdio_output@@QEAA_N_K@Z 00000001800506cc     libucrt:output.obj
 0002:0001e6cc       $unwind$?expand_if_necessary@?$argument_list@D@?A0xca0879c4@@AEAAHXZ 00000001800506cc     libucrt:argv_wildcards.obj
 0002:0001e6cc       $unwind$_recalloc_base     00000001800506cc     libucrt:recalloc.obj
 0002:0001e6cc       $unwind$__acrt_free_locale 00000001800506cc     libucrt:locale_refcounting.obj
 0002:0001e6cc       $unwind$?setSBCS@@YAXPEAU__crt_multibyte_data@@@Z 00000001800506cc     libucrt:mbctype.obj
 0002:0001e6cc       $unwind$__scrt_dllmain_exception_filter 00000001800506cc     LIBCMT:utility.obj
 0002:0001e6cc       $unwind$__acrt_execute_initializers 00000001800506cc     libucrt:shared_initialization.obj
 0002:0001e6cc       $unwind$?find_or_allocate_unused_stream_nolock@@YA?AV__crt_stdio_stream@@XZ 00000001800506cc     libucrt:stream.obj
 0002:0001e6cc       $unwind$?process@?$output_processor@DV?$string_output_adapter@D@__crt_stdio_output@@V?$format_validation_base@DV?$string_output_adapter@D@__crt_stdio_output@@@2@@__crt_stdio_output@@QEAAHXZ 00000001800506cc     libucrt:output.obj
 0002:0001e6cc       $unwind$?_ExecutionInCatch@@YAHPEAU_xDISPATCHER_CONTEXT@@PEBU_s_FuncInfo@@@Z 00000001800506cc     libvcruntime:trnsctrl.obj
 0002:0001e6cc       $unwind$?dllmain_raw@@YAHQEAUHINSTANCE__@@KQEAX@Z 00000001800506cc     LIBCMT:dll_dllmain.obj
 0002:0001e6cc       $unwind$_seh_filter_exe    00000001800506cc     libucrt:exception_filter.obj
 0002:0001e6cc       $unwind$__acrt_lowio_create_handle_array 00000001800506cc     libucrt:osfinfo.obj
 0002:0001e6e0       $unwind$_isctype_l         00000001800506e0     libucrt:isctype.obj
 0002:0001e6fc       $unwind$__acrt_update_thread_locale_data 00000001800506fc     libucrt:locale_refcounting.obj
 0002:0001e720       $xdatasym                  0000000180050720     libucrt:strncmp.obj
 0002:0001e724       $unwind$?__SehTransFilter@@YAHPEAU_EXCEPTION_POINTERS@@PEAUEHExceptionRecord@@PEA_KPEAU_CONTEXT@@PEAU_xDISPATCHER_CONTEXT@@PEBU_s_FuncInfo@@PEAH@Z 0000000180050724     libvcruntime:trnsctrl.obj
 0002:0001e724       $unwind$_strnicmp_l        0000000180050724     libucrt:strnicmp.obj
 0002:0001e738       $unwind$_wsopen_nolock     0000000180050738     libucrt:open.obj
 0002:0001e754       $unwind$??$common_sopen_dispatch@D@@YAHQEBDHHHQEAHH@Z 0000000180050754     libucrt:open.obj
 0002:0001e778       $unwind$?fin$0@?0???$common_sopen_dispatch@D@@YAHQEBDHHHQEAHH@Z@4HA 0000000180050778     libucrt:open.obj
 0002:0001e778       $unwind$_CallSETranslator$filt$0 0000000180050778     libvcruntime:trnsctrl.obj
 0002:0001e780       $unwind$?decode_options@@YA?AUfile_options@?A0x656cf9f4@@HHH@Z 0000000180050780     libucrt:open.obj
 0002:0001e794       $unwind$?type_case_c_tchar@?$output_processor@_WV?$string_output_adapter@_W@__crt_stdio_output@@V?$standard_base@_WV?$string_output_adapter@_W@__crt_stdio_output@@@2@@__crt_stdio_output@@AEAA_N_W@Z 0000000180050794     libucrt:output.obj
 0002:0001e794       $unwind$??R<lambda_b721fa326cdb32351d23dfa67958c160>@@QEBAHXZ 0000000180050794     libucrt:setvbuf.obj
 0002:0001e794       $unwind$?type_case_c_tchar@?$output_processor@_WV?$stream_output_adapter@_W@__crt_stdio_output@@V?$standard_base@_WV?$stream_output_adapter@_W@__crt_stdio_output@@@2@@__crt_stdio_output@@AEAA_N_W@Z 0000000180050794     libucrt:output.obj
 0002:0001e794       $unwind$?truncate_ctrl_z_if_present@@YAHH@Z 0000000180050794     libucrt:open.obj
 0002:0001e7a4       $unwind$?state_case_type@?$output_processor@DV?$stream_output_adapter@D@__crt_stdio_output@@V?$standard_base@DV?$stream_output_adapter@D@__crt_stdio_output@@@2@@__crt_stdio_output@@AEAA_NXZ 00000001800507a4     libucrt:output.obj
 0002:0001e7a4       $unwind$?state_case_type@?$output_processor@DV?$string_output_adapter@D@__crt_stdio_output@@V?$format_validation_base@DV?$string_output_adapter@D@__crt_stdio_output@@@2@@__crt_stdio_output@@AEAA_NXZ 00000001800507a4     libucrt:output.obj
 0002:0001e7a4       $unwind$?configure_text_mode@@YAHHUfile_options@?A0x656cf9f4@@HAEAW4__crt_lowio_text_mode@@@Z 00000001800507a4     libucrt:open.obj
 0002:0001e7a4       $unwind$?state_case_type@?$output_processor@DV?$string_output_adapter@D@__crt_stdio_output@@V?$standard_base@DV?$string_output_adapter@D@__crt_stdio_output@@@2@@__crt_stdio_output@@AEAA_NXZ 00000001800507a4     libucrt:output.obj
 0002:0001e7bc       $unwind$?GetTableIndexFromLocaleName@@YAHPEB_W@Z 00000001800507bc     libucrt:lcidtoname_downlevel.obj
 0002:0001e7d4       $unwind$??$?RV<lambda_b521505b218e5242e90febf6bfebc422>@@AEAV<lambda_6978c1fb23f02e42e1d9e99668cc68aa>@@V<lambda_314360699dd331753a4119843814e9a7>@@@?$__crt_seh_guarded_call@H@@QEAAH$$QEAV<lambda_b521505b218e5242e90febf6bfebc422>@@AEAV<lambda_6978c1fb23f02e42e1d9e99668cc68aa>@@$$QEAV<lambda_314360699dd331753a4119843814e9a7>@@@Z 00000001800507d4     libucrt:commit.obj
 0002:0001e7f8       $unwind$_write             00000001800507f8     libucrt:write.obj
 0002:0001e828       $unwind$_write_nolock      0000000180050828     libucrt:write.obj
 0002:0001e840       $unwind$?write_double_translated_ansi_nolock@@YA?AUwrite_result@?A0x9c548279@@HQEBDI@Z 0000000180050840     libucrt:write.obj
 0002:0001e860       $unwind$?write_text_utf16le_nolock@@YA?AUwrite_result@?A0x9c548279@@HQEBDI@Z 0000000180050860     libucrt:write.obj
 0002:0001e860       $unwind$?write_text_ansi_nolock@@YA?AUwrite_result@?A0x9c548279@@HQEBDI@Z 0000000180050860     libucrt:write.obj
 0002:0001e880       $unwind$?write_text_utf8_nolock@@YA?AUwrite_result@?A0x9c548279@@HQEBDI@Z 0000000180050880     libucrt:write.obj
 0002:0001e8a4       $unwind$_alloc_osfhnd      00000001800508a4     libucrt:osfinfo.obj
 0002:0001e8d4       $unwind$__acrt_lowio_destroy_handle_array 00000001800508d4     libucrt:osfinfo.obj
 0002:0001e8e4       $unwind$__acrt_lowio_ensure_fh_exists 00000001800508e4     libucrt:osfinfo.obj
 0002:0001e910       $unwind$__acrt_LCMapStringA 0000000180050910     libucrt:lcmapstringa.obj
 0002:0001e920       $unwind$?__acrt_LCMapStringA_stat@@YAHPEAU__crt_locale_pointers@@PEB_WKPEBDHPEADHHH@Z 0000000180050920     libucrt:lcmapstringa.obj
 0002:0001e948       $unwind$__acrt_fltout      0000000180050948     libucrt:cfout.obj
 0002:0001e968       $unwind$?divide@__crt_strtox@@YA_KAEAUbig_integer@1@AEBU21@@Z 0000000180050968     libucrt:cfout.obj
 0002:0001e988       $chain$5$?divide@__crt_strtox@@YA_KAEAUbig_integer@1@AEBU21@@Z 0000000180050988     libucrt:cfout.obj
 0002:0001e99c       $chain$6$?divide@__crt_strtox@@YA_KAEAUbig_integer@1@AEBU21@@Z 000000018005099c     libucrt:cfout.obj
 0002:0001e9ac       $unwind$??$write_buffer_nolock@D@@YA_NDV__crt_stdio_stream@@@Z 00000001800509ac     libucrt:_flsbuf.obj
 0002:0001e9bc       $unwind$??$write_buffer_nolock@_W@@YA_N_WV__crt_stdio_stream@@@Z 00000001800509bc     libucrt:_flsbuf.obj
 0002:0001e9cc       $unwind$__acrt_locale_free_monetary 00000001800509cc     libucrt:initmon.obj
 0002:0001e9d4       $unwind$__acrt_locale_free_time 00000001800509d4     libucrt:inittime.obj
 0002:0001e9e4       $unwind$__acrt_GetStringTypeA 00000001800509e4     libucrt:getstringtypea.obj
 0002:0001ea0c       $unwind$__acrt_CompareStringA 0000000180050a0c     libucrt:comparestringa.obj
 0002:0001ea1c       $unwind$?InternalCompareStringA@@YAHPEAU__crt_locale_pointers@@PEB_WKPEBDH2HH@Z 0000000180050a1c     libucrt:comparestringa.obj
 0002:0001ea40       $unwind$qsort              0000000180050a40     libucrt:qsort.obj
 0002:0001ea58       $chain$4$qsort             0000000180050a58     libucrt:qsort.obj
 0002:0001ea7c       $chain$5$qsort             0000000180050a7c     libucrt:qsort.obj
 0002:0001ea8c       $unwind$?shortsort@@YAXPEAD0_KP6AHPEBX2@Z@Z 0000000180050a8c     libucrt:qsort.obj
 0002:0001ea9c       $chain$2$?shortsort@@YAXPEAD0_KP6AHPEBX2@Z@Z 0000000180050a9c     libucrt:qsort.obj
 0002:0001eab8       $chain$3$?shortsort@@YAXPEAD0_KP6AHPEBX2@Z@Z 0000000180050ab8     libucrt:qsort.obj
 0002:0001eac8       $unwind$strpbrk            0000000180050ac8     libucrt:strpbrk.obj
 0002:0001ead8       $unwind$_mbsdec_l          0000000180050ad8     libucrt:mbsdec.obj
 0002:0001eae4       $unwind$_setmode_nolock    0000000180050ae4     libucrt:setmode.obj
 0002:0001eaf4       $unwind$_chsize_nolock     0000000180050af4     libucrt:chsize.obj
 0002:0001eaf4       $unwind$?write_string@?$stream_output_adapter@D@__crt_stdio_output@@QEBAXQEBDHQEAH1@Z 0000000180050af4     libucrt:output.obj
 0002:0001eb0c       $unwind$_read_nolock       0000000180050b0c     libucrt:read.obj
 0002:0001eb24       $unwind$?translate_ansi_or_utf8_nolock@@YAHHQEAD_KQEA_W1@Z 0000000180050b24     libucrt:read.obj
 0002:0001eb3c       $unwind$??$translate_text_mode_nolock@_W@@YAHHQEA_W_K@Z 0000000180050b3c     libucrt:read.obj
 0002:0001eb54       $unwind$??$common_lseek@_J@@YA_JH_JH@Z 0000000180050b54     libucrt:lseek.obj
 0002:0001eb88       $xdatasym                  0000000180050b88     libucrt:log10.obj
 0002:0001eb94       $unwind$common_control87   0000000180050b94     libucrt:ieee.obj
 0002:0001ebc4       $unwind$_call_matherr      0000000180050bc4     libucrt:libm_error.obj
 0002:0001ebcc       $unwind$_handle_errorf     0000000180050bcc     libucrt:libm_error.obj
 0002:0001ebcc       $unwind$_handle_error      0000000180050bcc     libucrt:libm_error.obj
 0002:0001ebec       $unwind$__acrt_initialize_fma3 0000000180050bec     libucrt:fma3_available.obj
 0002:0001ebf8       $xdatasym                  0000000180050bf8     libucrt:fpsr.obj
 0002:0001ec00       $unwind$_raise_exc_ex      0000000180050c00     libucrt:fpexcept.obj
 0002:0001ec14       $unwind$_ctrlfp            0000000180050c14     libucrt:fpctrl.obj
 0002:0001ec3c       $unwind$?DloadObtainSection@@YAPEAXPEAK0@Z 0000000180050c3c     DelayImp:delayhlp.obj
 0002:0001ec4c       $unwind$?DloadMakePermanentImageCommit@@YAXPEAX_K@Z 0000000180050c4c     DelayImp:delayhlp.obj
 0002:0001ec58       $unwind$?DloadProtectSection@@YAXKPEAK@Z 0000000180050c58     DelayImp:delayhlp.obj
 0002:0001ec68       $unwind$__delayLoadHelper2 0000000180050c68     DelayImp:delayhlp.obj
 0002:0001ec80       $unwind$_IsNonwritableInCurrentImage 0000000180050c80     LIBCMT:pesect.obj
 0002:0001eca4       $unwind$__GSHandlerCheckCommon 0000000180050ca4     LIBCMT:_gshandler_.obj
 0002:0001ecb0       $xdatasym                  0000000180050cb0     LIBCMT:_chkstk_.obj
 0002:0001ecb8       $unwind$strchr             0000000180050cb8     libvcruntime:strchr.obj
 0002:0001ecb8       $unwind$strrchr            0000000180050cb8     libvcruntime:strrchr.obj
 0002:0001ecc0       $xdatasym                  0000000180050cc0     libvcruntime:memcmp.obj
 0002:0001ecc8       $xdatasym                  0000000180050cc8     libucrt:cos.obj
 0002:0001ecd0       $xdatasym                  0000000180050cd0     libucrt:cosf.obj
 0002:0001ecd8       $xdatasym                  0000000180050cd8     libucrt:expf.obj
 0002:0001ece0       $xdatasym                  0000000180050ce0     libucrt:powf.obj
 0002:0001ecf0       $xdatasym                  0000000180050cf0     libucrt:sin.obj
 0002:0001ecf8       $xdatasym                  0000000180050cf8     libucrt:sinf.obj
 0002:0001ed00       $xdatasym                  0000000180050d00     libucrt:remainder_piby2_forasm.obj
 0002:0001ed10       $xdatasym                  0000000180050d10     libucrt:remainder_piby2_forfma3.obj
 0002:0001ed20       $xdatasym                  0000000180050d20     libucrt:remainder_piby2f_forasm.obj
 0002:0001ed24       $unwind$_expf_special      0000000180050d24     libucrt:exp_special.obj
 0002:0001ed24       $unwind$_log_special_common 0000000180050d24     libucrt:log_special.obj
 0002:0001ed30       $unwind$_powf_special      0000000180050d30     libucrt:pow_special.obj
 0002:0001ed40       $xdatasym                  0000000180050d40     libucrt:remainder_piby2f_forc.obj
 0002:00020200       .edata                     0000000180052200     lwip_image.exp
 0002:00020228       rgpv                       0000000180052228     lwip_image.exp
 0002:0002022c       rgszName                   000000018005222c     lwip_image.exp
 0002:00020230       rgwOrd                     0000000180052230     lwip_image.exp
 0002:00020232       szName                     0000000180052232     lwip_image.exp
 0002:00020242       $N00001                    0000000180052242     lwip_image.exp
 0002:000205f6       .idata$6                   00000001800525f6     kernel32:KERNEL32.dll
 0002:0002061e       .idata$6                   000000018005261e     shell32:SHELL32.dll
 0003:00000030       ?__vcrt_flsindex@@3KA      0000000180053030     libvcruntime:per_thread_data.obj
 0003:00000154       __acrt_flsindex            0000000180053154     libucrt:per_thread_data.obj
 0003:00000158       errno_no_memory            0000000180053158     libucrt:errno.obj
 0003:0000015c       doserrno_no_memory         000000018005315c     libucrt:errno.obj
 0003:00000540       __rgctypeflag              0000000180053540     libucrt:mbctype.obj
 0003:00000550       __rgcode_page_info         0000000180053550     libucrt:mbctype.obj
 0003:00000a18       ?dazSupported@?1??common_control87@@9@9 0000000180053a18     libucrt:ieee.obj
 0003:00000a20       ?dazSupported@?1??_ctrlfp@@9@9 0000000180053a20     libucrt:fpctrl.obj
 0003:00000a40       _module                    0000000180053a40     init.obj
 0003:00000e88       ?_Tss_mutex@@3U_RTL_CRITICAL_SECTION@@A 0000000180053e88     LIBCMT:thread_safe_statics.obj
 0003:00000eb0       ?_Tss_cv@@3U_RTL_CONDITION_VARIABLE@@A 0000000180053eb0     LIBCMT:thread_safe_statics.obj
 0003:00000eb8       ?_Tss_event@@3PEAXEA       0000000180053eb8     LIBCMT:thread_safe_statics.obj
 0003:00000ec0       ?encoded_sleep_condition_variable_cs@@3P6AHPEAU_RTL_CONDITION_VARIABLE@@PEAU_RTL_CRITICAL_SECTION@@K@ZEA 0000000180053ec0     LIBCMT:thread_safe_statics.obj
 0003:00000ec8       ?encoded_wake_all_condition_variable@@3P6AXPEAU_RTL_CONDITION_VARIABLE@@@ZEA 0000000180053ec8     LIBCMT:thread_safe_statics.obj
 0003:00000ee0       ?module_local_atexit_table@@3U_onexit_table_t@@A 0000000180053ee0     LIBCMT:utility.obj
 0003:00000ef8       ?module_local_at_quick_exit_table@@3U_onexit_table_t@@A 0000000180053ef8     LIBCMT:utility.obj
 0003:00000f10       ?is_initialized_as_dll@@3_NA 0000000180053f10     LIBCMT:utility.obj
 0003:00000f14       ?__proc_attached@@3HA      0000000180053f14     LIBCMT:dll_dllmain.obj
 0003:00000f20       GS_ExceptionRecord         0000000180053f20     LIBCMT:gs_report.obj
 0003:00000fc0       GS_ContextRecord           0000000180053fc0     LIBCMT:gs_report.obj
 0003:000014c0       ?module_handles@@3PAPEAUHINSTANCE__@@A 00000001800544c0     libvcruntime:winapi_downlevel.obj
 0003:000014e0       ?encoded_function_pointers@@3PAPEAXA 00000001800544e0     libvcruntime:winapi_downlevel.obj
 0003:00001530       ?__vcrt_startup_thread_ptd@@3U__vcrt_ptd@@A 0000000180054530     libvcruntime:per_thread_data.obj
 0003:000015b0       __vcrt_lock_table          00000001800545b0     libvcruntime:locks.obj
 0003:000015d8       __vcrt_locks_initialized   00000001800545d8     libvcruntime:locks.obj
 0003:00001628       ?heap@@3V_HeapManager@@A   0000000180054628     libvcruntime:undname.obj
 0003:00001668       __acrt_invalid_parameter_handler 0000000180054668     libucrt:invalid_parameter.obj
 0003:00001670       __acrt_new_handler         0000000180054670     libucrt:new_handler.obj
 0003:00001678       c_termination_complete     0000000180054678     libucrt:exit.obj
 0003:00001680       thread_local_exit_callback_func 0000000180054680     libucrt:exit.obj
 0003:00001688       ?c_exit_complete@?5??common_exit@@YAXHW4_crt_exit_cleanup_mode@@W4_crt_exit_return_mode@@@Z@4_NA 0000000180054688     libucrt:exit.obj
 0003:00001690       ?program_name@?5???$common_configure_argv@D@@YAHW4_crt_argv_mode@@@Z@4PADA 0000000180054690     libucrt:argv_parsing.obj
 0003:000017f0       module_handles             00000001800547f0     libucrt:winapi_thunks.obj
 0003:00001890       encoded_function_pointers  0000000180054890     libucrt:winapi_thunks.obj
 0003:00001990       ?state_cache@?1??__acrt_is_packaged_app@@9@4JA 0000000180054990     libucrt:winapi_thunks.obj
 0003:00001da8       enable_percent_n           0000000180054da8     libucrt:printf_count_output.obj
 0003:00001dd0       __acrt_app_type            0000000180054dd0     libucrt:report_runtime_error.obj
 0003:00001dd4       __acrt_error_mode          0000000180054dd4     libucrt:set_error_mode.obj
 0003:00001dd8       ctrlc_action               0000000180054dd8     libucrt:signal.obj
 0003:00001de0       ctrlbreak_action           0000000180054de0     libucrt:signal.obj
 0003:00001de8       abort_action               0000000180054de8     libucrt:signal.obj
 0003:00001df0       term_action                0000000180054df0     libucrt:signal.obj
 0003:00001e00       __acrt_lock_table          0000000180054e00     libucrt:locks.obj
 0003:00002008       __acrt_locks_initialized   0000000180055008     libucrt:locks.obj
 0003:00002024       fSystemSet                 0000000180055024     libucrt:mbctype.obj
 0003:00002030       ?initialized@?1??__acrt_initialize_multibyte@@9@4_NA 0000000180055030     libucrt:mbctype.obj
 0003:00002068       user_matherr               0000000180055068     libucrt:matherr.obj
 0003:00002070       __acrt_global_new_mode     0000000180055070     libucrt:new_mode.obj
 0004:00000000       $pdata$?InitAll@@YAXV?$Local@VObject@v8@@@v8@@@Z 0000000180056000     init.obj
 0004:0000000c       $pdata$fprintf             000000018005600c     image.obj
 0004:00000018       $pdata$??_Gexception@stdext@@UEAAPEAXI@Z 0000000180056018     image.obj
 0004:00000024       $pdata$??1ObjectWrap@node@@UEAA@XZ 0000000180056024     image.obj
 0004:00000030       $pdata$?Wrap@ObjectWrap@node@@IEAAXV?$Local@VObject@v8@@@v8@@@Z 0000000180056030     image.obj
 0004:0000003c       $pdata$?Ref@ObjectWrap@node@@MEAAXXZ 000000018005603c     image.obj
 0004:00000048       $pdata$?Unref@ObjectWrap@node@@MEAAXXZ 0000000180056048     image.obj
 0004:00000054       $pdata$?WeakCallback@ObjectWrap@node@@CAXAEBV?$WeakCallbackInfo@VObjectWrap@node@@@v8@@@Z 0000000180056054     image.obj
 0004:00000060       $pdata$??_GObjectWrap@node@@UEAAPEAXI@Z 0000000180056060     image.obj
 0004:0000006c       $pdata$?FunctionCallbackWrapper@imp@Nan@@YAXAEBV?$FunctionCallbackInfo@VValue@v8@@@v8@@@Z 000000018005606c     image.obj
 0004:00000078       $pdata$?NewInstance@Nan@@YA?AV?$MaybeLocal@VObject@v8@@@v8@@V?$Local@VObjectTemplate@v8@@@3@@Z 0000000180056078     image.obj
 0004:00000084       $pdata$?convert@?$ToFactory@VInt32@v8@@@imp@Nan@@SA?AV?$MaybeLocal@VInt32@v8@@@v8@@V?$Local@VValue@v8@@@5@@Z 0000000180056084     image.obj
 0004:00000090       $pdata$?New@?$Factory@VFunctionTemplate@v8@@@imp@Nan@@SA?AV?$Local@VFunctionTemplate@v8@@@v8@@P6AXAEBV?$FunctionCallbackInfo@VValue@v8@@@3@@ZV?$Local@VValue@v8@@@5@V?$Local@VSignature@v8@@@5@@Z 0000000180056090     image.obj
 0004:0000009c       $pdata$?AsyncExecuteComplete@Nan@@YAXPEAUuv_work_s@@@Z 000000018005609c     image.obj
 0004:000000a8       $pdata$?SetPrototypeMethod@Nan@@YAXV?$Local@VFunctionTemplate@v8@@@v8@@PEBDP6AXAEBV?$FunctionCallbackInfo@VValue@v8@@@1@@Z@Z 00000001800560a8     image.obj
 0004:000000b4       $pdata$?_snprintf@cimg@cimg_library@@YAHQEAD_KQEBDZZ 00000001800560b4     image.obj
 0004:000000c0       $pdata$?_vsnprintf@cimg@cimg_library@@YAHQEAD_KQEBDPEAD@Z 00000001800560c0     image.obj
 0004:000000cc       $pdata$??0CImgException@cimg_library@@QEAA@AEBU01@@Z 00000001800560cc     image.obj
 0004:000000d8       $pdata$??1CImgException@cimg_library@@UEAA@XZ 00000001800560d8     image.obj
 0004:000000d8       $pdata$??1CImgArgumentException@cimg_library@@UEAA@XZ 00000001800560d8     image.obj
 0004:000000d8       $pdata$??1CImgInstanceException@cimg_library@@UEAA@XZ 00000001800560d8     image.obj
 0004:000000d8       $pdata$??1CImgIOException@cimg_library@@UEAA@XZ 00000001800560d8     image.obj
 0004:000000e4       $pdata$??_GCImgInstanceException@cimg_library@@UEAAPEAXI@Z 00000001800560e4     image.obj
 0004:000000e4       $pdata$??_GCImgException@cimg_library@@UEAAPEAXI@Z 00000001800560e4     image.obj
 0004:000000e4       $pdata$??_GCImgArgumentException@cimg_library@@UEAAPEAXI@Z 00000001800560e4     image.obj
 0004:000000e4       $pdata$??_GCImgIOException@cimg_library@@UEAAPEAXI@Z 00000001800560e4     image.obj
 0004:000000f0       $pdata$??0CImgArgumentException@cimg_library@@QEAA@QEBDZZ 00000001800560f0     image.obj
 0004:000000fc       $pdata$??0CImgInstanceException@cimg_library@@QEAA@QEBDZZ 00000001800560fc     image.obj
 0004:00000108       $pdata$??0CImgIOException@cimg_library@@QEAA@QEBDZZ 0000000180056108     image.obj
 0004:00000114       $pdata$?Mutex_attr@cimg@cimg_library@@YAAEAUMutex_info@12@XZ 0000000180056114     image.obj
 0004:00000120       $pdata$?output@cimg@cimg_library@@YAPEAU_iobuf@@PEAU3@@Z 0000000180056120     image.obj
 0004:0000012c       $pdata$?warn@cimg@cimg_library@@YAXQEBDZZ 000000018005612c     image.obj
 0004:00000138       $pdata$0$?warn@cimg@cimg_library@@YAXQEBDZZ 0000000180056138     image.obj
 0004:00000144       $pdata$1$?warn@cimg@cimg_library@@YAXQEBDZZ 0000000180056144     image.obj
 0004:00000150       $pdata$?filenamerand@cimg@cimg_library@@YAPEBDXZ 0000000180056150     image.obj
 0004:0000015c       $pdata$?winformat_string@cimg@cimg_library@@YAXQEAD@Z 000000018005615c     image.obj
 0004:00000168       $pdata$0$?winformat_string@cimg@cimg_library@@YAXQEAD@Z 0000000180056168     image.obj
 0004:00000174       $pdata$1$?winformat_string@cimg@cimg_library@@YAXQEAD@Z 0000000180056174     image.obj
 0004:00000180       $pdata$??0CImgArgumentException@cimg_library@@QEAA@AEBU01@@Z 0000000180056180     image.obj
 0004:00000180       $pdata$??0CImgIOException@cimg_library@@QEAA@AEBU01@@Z 0000000180056180     image.obj
 0004:00000180       $pdata$??0CImgInstanceException@cimg_library@@QEAA@AEBU01@@Z 0000000180056180     image.obj
 0004:0000018c       $pdata$?fclose@cimg@cimg_library@@YAHPEAU_iobuf@@@Z 000000018005618c     image.obj
 0004:00000198       $pdata$?info@cimg@cimg_library@@YAXXZ 0000000180056198     image.obj
 0004:000001a4       $pdata$?temporary_path@cimg@cimg_library@@YAPEBDQEBD_N@Z 00000001800561a4     image.obj
 0004:000001b0       $pdata$?programfiles_path@cimg@cimg_library@@YAPEBDQEBD_N@Z 00000001800561b0     image.obj
 0004:000001bc       $pdata$?imagemagick_path@cimg@cimg_library@@YAPEBDQEBD_N@Z 00000001800561bc     image.obj
 0004:000001c8       $pdata$0$?imagemagick_path@cimg@cimg_library@@YAPEBDQEBD_N@Z 00000001800561c8     image.obj
 0004:000001d4       $pdata$5$?imagemagick_path@cimg@cimg_library@@YAPEBDQEBD_N@Z 00000001800561d4     image.obj
 0004:000001e0       $pdata$6$?imagemagick_path@cimg@cimg_library@@YAPEBDQEBD_N@Z 00000001800561e0     image.obj
 0004:000001ec       $pdata$7$?imagemagick_path@cimg@cimg_library@@YAPEBDQEBD_N@Z 00000001800561ec     image.obj
 0004:000001f8       $pdata$8$?imagemagick_path@cimg@cimg_library@@YAPEBDQEBD_N@Z 00000001800561f8     image.obj
 0004:00000204       $pdata$9$?imagemagick_path@cimg@cimg_library@@YAPEBDQEBD_N@Z 0000000180056204     image.obj
 0004:00000210       $pdata$10$?imagemagick_path@cimg@cimg_library@@YAPEBDQEBD_N@Z 0000000180056210     image.obj
 0004:0000021c       $pdata$?graphicsmagick_path@cimg@cimg_library@@YAPEBDQEBD_N@Z 000000018005621c     image.obj
 0004:00000228       $pdata$0$?graphicsmagick_path@cimg@cimg_library@@YAPEBDQEBD_N@Z 0000000180056228     image.obj
 0004:00000234       $pdata$5$?graphicsmagick_path@cimg@cimg_library@@YAPEBDQEBD_N@Z 0000000180056234     image.obj
 0004:00000240       $pdata$6$?graphicsmagick_path@cimg@cimg_library@@YAPEBDQEBD_N@Z 0000000180056240     image.obj
 0004:0000024c       $pdata$7$?graphicsmagick_path@cimg@cimg_library@@YAPEBDQEBD_N@Z 000000018005624c     image.obj
 0004:00000258       $pdata$8$?graphicsmagick_path@cimg@cimg_library@@YAPEBDQEBD_N@Z 0000000180056258     image.obj
 0004:00000264       $pdata$9$?graphicsmagick_path@cimg@cimg_library@@YAPEBDQEBD_N@Z 0000000180056264     image.obj
 0004:00000270       $pdata$10$?graphicsmagick_path@cimg@cimg_library@@YAPEBDQEBD_N@Z 0000000180056270     image.obj
 0004:0000027c       $pdata$?medcon_path@cimg@cimg_library@@YAPEBDQEBD_N@Z 000000018005627c     image.obj
 0004:00000288       $pdata$0$?medcon_path@cimg@cimg_library@@YAPEBDQEBD_N@Z 0000000180056288     image.obj
 0004:00000294       $pdata$1$?medcon_path@cimg@cimg_library@@YAPEBDQEBD_N@Z 0000000180056294     image.obj
 0004:000002a0       $pdata$?strbuffersize@cimg@cimg_library@@YAPEBDK@Z 00000001800562a0     image.obj
 0004:000002ac       $pdata$?Init@LwipImage@@SAXV?$Local@VObject@v8@@@v8@@@Z 00000001800562ac     image.obj
 0004:000002b8       $pdata$??0LwipImage@@QEAA@PEAE_K1@Z 00000001800562b8     image.obj
 0004:000002c4       $pdata$??_GLwipImage@@UEAAPEAXI@Z 00000001800562c4     image.obj
 0004:000002d0       $pdata$?New@LwipImage@@SAXAEBV?$FunctionCallbackInfo@VValue@v8@@@Nan@@@Z 00000001800562d0     image.obj
 0004:000002dc       $pdata$?width@LwipImage@@SAXAEBV?$FunctionCallbackInfo@VValue@v8@@@Nan@@@Z 00000001800562dc     image.obj
